 ipcsdk

 Timestamp is 59e06d37 (Fri Oct 13 15:37:27 2017)

 Preferred load address is 10000000

 Start         Length     Name                   Class
 0001:00000000 0007526bH .text                   CODE
 0001:00075270 00002a95H .text$x                 CODE
 0001:00077d10 00000081H .text$yc                CODE
 0001:00077da0 0000012bH .text$yd                CODE
 0002:00000000 000002a0H .idata$5                DATA
 0002:000002a0 00000004H .CRT$XCA                DATA
 0002:000002a4 00000014H .CRT$XCU                DATA
 0002:000002b8 00000004H .CRT$XCZ                DATA
 0002:000002bc 00000004H .CRT$XIA                DATA
 0002:000002c0 00000004H .CRT$XIAA               DATA
 0002:000002c4 00000004H .CRT$XIZ                DATA
 0002:000002d0 0000bce8H .rdata                  DATA
 0002:0000bfb8 0000007dH .rdata$debug            DATA
 0002:0000c038 000002d8H .rdata$r                DATA
 0002:0000c310 00000240H .rdata$sxdata           DATA
 0002:0000c550 00000004H .rtc$IAA                DATA
 0002:0000c554 00000004H .rtc$IZZ                DATA
 0002:0000c558 00000004H .rtc$TAA                DATA
 0002:0000c55c 00000004H .rtc$TZZ                DATA
 0002:0000c560 00001fa8H .xdata$x                DATA
 0002:0000e508 00000000H ATL$__a                 DATA
 0002:0000e508 00000000H ATL$__z                 DATA
 0002:0000e508 00000064H .idata$2                DATA
 0002:0000e56c 00000014H .idata$3                DATA
 0002:0000e580 000002a0H .idata$4                DATA
 0002:0000e820 00000bf4H .idata$6                DATA
 0002:0000f420 00002494H .edata                  DATA
 0003:00000000 000004b0H .data                   DATA
 0003:000004b0 03087e00H .bss                    DATA

  Address         Publics by Value              Rva+Base       Lib:Object

 0000:00000000       __except_list              00000000     <absolute>
 0000:00000090       ___safe_se_handler_count   00000090     <absolute>
 0000:00009876       __ldused                   00009876     <absolute>
 0000:00009876       __fltused                  00009876     <absolute>
 0000:00000000       ___ImageBase               10000000     <linker-defined>
 0001:00000000       ??1bad_alloc@std@@UAE@XZ   10001000 f i aucmanager.obj
 0001:00000010       ??_Gbad_alloc@std@@UAEPAXI@Z 10001010 f i aucmanager.obj
 0001:00000010       ??_Ebad_alloc@std@@UAEPAXI@Z 10001010 f i  CIL library: CIL module
 0001:00000040       ??0logic_error@std@@QAE@ABV?$basic_string@DU?$char_traits@D@std@@V?$allocator@D@2@@1@@Z 10001040 f i aucmanager.obj
 0001:000000a0       ?what@logic_error@std@@UBEPBDXZ 100010a0 f i aucmanager.obj
 0001:000000b0       ??_Eout_of_range@std@@UAEPAXI@Z 100010b0 f i  CIL library: CIL module
 0001:000000b0       ??_Elogic_error@std@@UAEPAXI@Z 100010b0 f i  CIL library: CIL module
 0001:000000b0       ??_Gout_of_range@std@@UAEPAXI@Z 100010b0 f i aucmanager.obj
 0001:000000b0       ??_Glength_error@std@@UAEPAXI@Z 100010b0 f i aucmanager.obj
 0001:000000b0       ??_Glogic_error@std@@UAEPAXI@Z 100010b0 f i aucmanager.obj
 0001:000000b0       ??_Elength_error@std@@UAEPAXI@Z 100010b0 f i  CIL library: CIL module
 0001:000000e0       ??1out_of_range@std@@UAE@XZ 100010e0 f i aucmanager.obj
 0001:000000e0       ??1length_error@std@@UAE@XZ 100010e0 f i aucmanager.obj
 0001:00000100       ??0out_of_range@std@@QAE@ABV01@@Z 10001100 f i aucmanager.obj
 0001:00000120       ??0logic_error@std@@QAE@ABV01@@Z 10001120 f i aucmanager.obj
 0001:00000190       ??1CCriticalLock@@UAE@XZ   10001190 f i aucmanager.obj
 0001:000001b0       ??_GCCriticalLock@@UAEPAXI@Z 100011b0 f i aucmanager.obj
 0001:000001b0       ??_ECCriticalLock@@UAEPAXI@Z 100011b0 f i  CIL library: CIL module
 0001:000001e0       ??0CAucManager@@QAE@XZ     100011e0 f   aucmanager.obj
 0001:00000250       ??1?$map@KV?$basic_string@DU?$char_traits@D@std@@V?$allocator@D@2@@std@@U?$less@K@2@V?$allocator@U?$pair@$$CBKV?$basic_string@DU?$char_traits@D@std@@V?$allocator@D@2@@std@@@std@@@2@@std@@QAE@XZ 10001250 f i aucmanager.obj
 0001:000002a0       ??1CAucManager@@QAE@XZ     100012a0 f   aucmanager.obj
 0001:00000340       ?Init@CAucManager@@SAKXZ   10001340 f   aucmanager.obj
 0001:000003d0       ?Release@CAucManager@@SAKXZ 100013d0 f   aucmanager.obj
 0001:00000420       ?Removeall@CAucManager@@SAKXZ 10001420 f   aucmanager.obj
 0001:000004d0       ?_GetAuc@CAucManager@@AAEKAAPBDK@Z 100014d0 f   aucmanager.obj
 0001:00000560       ?_Login@CAucManager@@AAEHPAXPAD1PAK@Z 10001560 f   aucmanager.obj
 0001:00000950       ?_LoginDetect@CAucManager@@AAEHPAXPAD1PAK@Z 10001950 f   aucmanager.obj
 0001:00000d50       ?_Logout@CAucManager@@AAEHPAXPAK@Z 10001d50 f   aucmanager.obj
 0001:00000e70       ?_CreateHandle@CAucManager@@AAEKKGPAD0@Z 10001e70 f   aucmanager.obj
 0001:00000f90       ?_GetInfoFromHandle@CAucManager@@AAEKKPAXHPAK@Z 10001f90 f   aucmanager.obj
 0001:00001000       ?_DestroyHandle@CAucManager@@AAEKXZ 10002000 f   aucmanager.obj
 0001:000010a0       ?_DeleteHandle@CAucManager@@AAEKK@Z 100020a0 f   aucmanager.obj
 0001:00001100       ??A?$map@KV?$basic_string@DU?$char_traits@D@std@@V?$allocator@D@2@@std@@U?$less@K@2@V?$allocator@U?$pair@$$CBKV?$basic_string@DU?$char_traits@D@std@@V?$allocator@D@2@@std@@@std@@@2@@std@@QAEAAV?$basic_string@DU?$char_traits@D@std@@V?$allocator@D@2@@1@ABK@Z 10002100 f i aucmanager.obj
 0001:00001210       ?find@?$_Tree@V?$_Tmap_traits@KV?$basic_string@DU?$char_traits@D@std@@V?$allocator@D@2@@std@@U?$less@K@2@V?$allocator@U?$pair@$$CBKV?$basic_string@DU?$char_traits@D@std@@V?$allocator@D@2@@std@@@std@@@2@$0A@@std@@@std@@QAE?AViterator@12@ABK@Z 10002210 f i aucmanager.obj
 0001:000012a0       ??A?$map@KPAUtagHandleParam@@U?$less@K@std@@V?$allocator@U?$pair@$$CBKPAUtagHandleParam@@@std@@@3@@std@@QAEAAPAUtagHandleParam@@ABK@Z 100022a0 f i aucmanager.obj
 0001:00001350       ?find@?$_Tree@V?$_Tmap_traits@KPAUtagHandleParam@@U?$less@K@std@@V?$allocator@U?$pair@$$CBKPAUtagHandleParam@@@std@@@3@$0A@@std@@@std@@QAE?AViterator@12@ABK@Z 10002350 f i aucmanager.obj
 0001:00001350       ?find@?$_Tree@V?$_Tmap_traits@KKU?$less@K@std@@V?$allocator@U?$pair@$$CBKK@std@@@2@$0A@@std@@@std@@QAE?AViterator@12@ABK@Z 10002350 f i rtspwraper.obj
 0001:000013e0       ??1?$pair@$$CBKV?$basic_string@DU?$char_traits@D@std@@V?$allocator@D@2@@std@@@std@@QAE@XZ 100023e0 f i aucmanager.obj
 0001:000013f0       ??0?$_Tree@V?$_Tmap_traits@KV?$basic_string@DU?$char_traits@D@std@@V?$allocator@D@2@@std@@U?$less@K@2@V?$allocator@U?$pair@$$CBKV?$basic_string@DU?$char_traits@D@std@@V?$allocator@D@2@@std@@@std@@@2@$0A@@std@@@std@@QAE@ABU?$less@K@1@ABV?$allocator@U?$pair@$$CBKV?$basic_string@DU?$char_traits@D@std@@V?$allocator@D@2@@std@@@std@@@1@@Z 100023f0 f i aucmanager.obj
 0001:00001470       ?insert@?$_Tree@V?$_Tmap_traits@KV?$basic_string@DU?$char_traits@D@std@@V?$allocator@D@2@@std@@U?$less@K@2@V?$allocator@U?$pair@$$CBKV?$basic_string@DU?$char_traits@D@std@@V?$allocator@D@2@@std@@@std@@@2@$0A@@std@@@std@@QAE?AViterator@12@Vconst_iterator@12@ABU?$pair@$$CBKV?$basic_string@DU?$char_traits@D@std@@V?$allocator@D@2@@std@@@2@@Z 10002470 f i aucmanager.obj
 0001:00001650       ?_Erase@?$_Tree@V?$_Tmap_traits@KV?$basic_string@DU?$char_traits@D@std@@V?$allocator@D@2@@std@@U?$less@K@2@V?$allocator@U?$pair@$$CBKV?$basic_string@DU?$char_traits@D@std@@V?$allocator@D@2@@std@@@std@@@2@$0A@@std@@@std@@IAEXPAU_Node@?$_Tree_nod@V?$_Tmap_traits@KV?$basic_string@DU?$char_traits@D@std@@V?$allocator@D@2@@std@@U?$less@K@2@V?$allocator@U?$pair@$$CBKV?$basic_string@DU?$char_traits@D@std@@V?$allocator@D@2@@std@@@std@@@2@$0A@@std@@@2@@Z 10002650 f i aucmanager.obj
 0001:00001690       ?_Tidy@?$_Tree@V?$_Tmap_traits@KV?$basic_string@DU?$char_traits@D@std@@V?$allocator@D@2@@std@@U?$less@K@2@V?$allocator@U?$pair@$$CBKV?$basic_string@DU?$char_traits@D@std@@V?$allocator@D@2@@std@@@std@@@2@$0A@@std@@@std@@IAEXXZ 10002690 f i aucmanager.obj
 0001:000016d0       ?insert@?$_Tree@V?$_Tmap_traits@KPAUtagHandleParam@@U?$less@K@std@@V?$allocator@U?$pair@$$CBKPAUtagHandleParam@@@std@@@3@$0A@@std@@@std@@QAE?AViterator@12@Vconst_iterator@12@ABU?$pair@$$CBKPAUtagHandleParam@@@2@@Z 100026d0 f i aucmanager.obj
 0001:000016d0       ?insert@?$_Tree@V?$_Tmap_traits@KPAVCUploadSysThread@@U?$less@K@std@@V?$allocator@U?$pair@$$CBKPAVCUploadSysThread@@@std@@@3@$0A@@std@@@std@@QAE?AViterator@12@Vconst_iterator@12@ABU?$pair@$$CBKPAVCUploadSysThread@@@2@@Z 100026d0 f i uploadsys.obj
 0001:000018a0       ?_Lrotate@?$_Tree@V?$_Tmap_traits@KPAUtagHandleParam@@U?$less@K@std@@V?$allocator@U?$pair@$$CBKPAUtagHandleParam@@@std@@@3@$0A@@std@@@std@@IAEXPAU_Node@?$_Tree_nod@V?$_Tmap_traits@KPAUtagHandleParam@@U?$less@K@std@@V?$allocator@U?$pair@$$CBKPAUtagHandleParam@@@std@@@3@$0A@@std@@@2@@Z 100028a0 f i aucmanager.obj
 0001:000018a0       ?_Lrotate@?$_Tree@V?$_Tmap_traits@KPAVCUploadSysThread@@U?$less@K@std@@V?$allocator@U?$pair@$$CBKPAVCUploadSysThread@@@std@@@3@$0A@@std@@@std@@IAEXPAU_Node@?$_Tree_nod@V?$_Tmap_traits@KPAVCUploadSysThread@@U?$less@K@std@@V?$allocator@U?$pair@$$CBKPAVCUploadSysThread@@@std@@@3@$0A@@std@@@2@@Z 100028a0 f i uploadsys.obj
 0001:000018a0       ?_Lrotate@?$_Tree@V?$_Tmap_traits@KKU?$less@K@std@@V?$allocator@U?$pair@$$CBKK@std@@@2@$0A@@std@@@std@@IAEXPAU_Node@?$_Tree_nod@V?$_Tmap_traits@KKU?$less@K@std@@V?$allocator@U?$pair@$$CBKK@std@@@2@$0A@@std@@@2@@Z 100028a0 f i rtspwraper.obj
 0001:000018f0       ?insert@?$_Tree@V?$_Tmap_traits@KV?$basic_string@DU?$char_traits@D@std@@V?$allocator@D@2@@std@@U?$less@K@2@V?$allocator@U?$pair@$$CBKV?$basic_string@DU?$char_traits@D@std@@V?$allocator@D@2@@std@@@std@@@2@$0A@@std@@@std@@QAE?AU?$pair@Viterator@?$_Tree@V?$_Tmap_traits@KV?$basic_string@DU?$char_traits@D@std@@V?$allocator@D@2@@std@@U?$less@K@2@V?$allocator@U?$pair@$$CBKV?$basic_string@DU?$char_traits@D@std@@V?$allocator@D@2@@std@@@std@@@2@$0A@@std@@@std@@_N@2@ABU?$pair@$$CBKV?$basic_string@DU?$char_traits@D@std@@V?$allocator@D@2@@std@@@2@@Z 100028f0 f i aucmanager.obj
 0001:000019f0       ?erase@?$_Tree@V?$_Tmap_traits@KV?$basic_string@DU?$char_traits@D@std@@V?$allocator@D@2@@std@@U?$less@K@2@V?$allocator@U?$pair@$$CBKV?$basic_string@DU?$char_traits@D@std@@V?$allocator@D@2@@std@@@std@@@2@$0A@@std@@@std@@QAE?AViterator@12@Vconst_iterator@12@0@Z 100029f0 f i aucmanager.obj
 0001:00001ad0       ?_Insert@?$_Tree@V?$_Tmap_traits@KV?$basic_string@DU?$char_traits@D@std@@V?$allocator@D@2@@std@@U?$less@K@2@V?$allocator@U?$pair@$$CBKV?$basic_string@DU?$char_traits@D@std@@V?$allocator@D@2@@std@@@std@@@2@$0A@@std@@@std@@IAE?AViterator@12@_NPAU_Node@?$_Tree_nod@V?$_Tmap_traits@KV?$basic_string@DU?$char_traits@D@std@@V?$allocator@D@2@@std@@U?$less@K@2@V?$allocator@U?$pair@$$CBKV?$basic_string@DU?$char_traits@D@std@@V?$allocator@D@2@@std@@@std@@@2@$0A@@std@@@2@ABU?$pair@$$CBKV?$basic_string@DU?$char_traits@D@std@@V?$allocator@D@2@@std@@@2@@Z 10002ad0 f i aucmanager.obj
 0001:00001d10       ??0length_error@std@@QAE@ABV01@@Z 10002d10 f i aucmanager.obj
 0001:00001d30       ?erase@?$_Tree@V?$_Tmap_traits@KV?$basic_string@DU?$char_traits@D@std@@V?$allocator@D@2@@std@@U?$less@K@2@V?$allocator@U?$pair@$$CBKV?$basic_string@DU?$char_traits@D@std@@V?$allocator@D@2@@std@@@std@@@2@$0A@@std@@@std@@QAE?AViterator@12@Vconst_iterator@12@@Z 10002d30 f i aucmanager.obj
 0001:00002020       ?_Lrotate@?$_Tree@V?$_Tmap_traits@KV?$basic_string@DU?$char_traits@D@std@@V?$allocator@D@2@@std@@U?$less@K@2@V?$allocator@U?$pair@$$CBKV?$basic_string@DU?$char_traits@D@std@@V?$allocator@D@2@@std@@@std@@@2@$0A@@std@@@std@@IAEXPAU_Node@?$_Tree_nod@V?$_Tmap_traits@KV?$basic_string@DU?$char_traits@D@std@@V?$allocator@D@2@@std@@U?$less@K@2@V?$allocator@U?$pair@$$CBKV?$basic_string@DU?$char_traits@D@std@@V?$allocator@D@2@@std@@@std@@@2@$0A@@std@@@2@@Z 10003020 f i aucmanager.obj
 0001:00002070       ?_Rrotate@?$_Tree@V?$_Tmap_traits@KV?$basic_string@DU?$char_traits@D@std@@V?$allocator@D@2@@std@@U?$less@K@2@V?$allocator@U?$pair@$$CBKV?$basic_string@DU?$char_traits@D@std@@V?$allocator@D@2@@std@@@std@@@2@$0A@@std@@@std@@IAEXPAU_Node@?$_Tree_nod@V?$_Tmap_traits@KV?$basic_string@DU?$char_traits@D@std@@V?$allocator@D@2@@std@@U?$less@K@2@V?$allocator@U?$pair@$$CBKV?$basic_string@DU?$char_traits@D@std@@V?$allocator@D@2@@std@@@std@@@2@$0A@@std@@@2@@Z 10003070 f i aucmanager.obj
 0001:000020c0       ?_Buynode@?$_Tree@V?$_Tmap_traits@KV?$basic_string@DU?$char_traits@D@std@@V?$allocator@D@2@@std@@U?$less@K@2@V?$allocator@U?$pair@$$CBKV?$basic_string@DU?$char_traits@D@std@@V?$allocator@D@2@@std@@@std@@@2@$0A@@std@@@std@@IAEPAU_Node@?$_Tree_nod@V?$_Tmap_traits@KV?$basic_string@DU?$char_traits@D@std@@V?$allocator@D@2@@std@@U?$less@K@2@V?$allocator@U?$pair@$$CBKV?$basic_string@DU?$char_traits@D@std@@V?$allocator@D@2@@std@@@std@@@2@$0A@@std@@@2@XZ 100030c0 f i aucmanager.obj
 0001:00002100       ?_Buynode@?$_Tree@V?$_Tmap_traits@KV?$basic_string@DU?$char_traits@D@std@@V?$allocator@D@2@@std@@U?$less@K@2@V?$allocator@U?$pair@$$CBKV?$basic_string@DU?$char_traits@D@std@@V?$allocator@D@2@@std@@@std@@@2@$0A@@std@@@std@@IAEPAU_Node@?$_Tree_nod@V?$_Tmap_traits@KV?$basic_string@DU?$char_traits@D@std@@V?$allocator@D@2@@std@@U?$less@K@2@V?$allocator@U?$pair@$$CBKV?$basic_string@DU?$char_traits@D@std@@V?$allocator@D@2@@std@@@std@@@2@$0A@@std@@@2@PAU342@00ABU?$pair@$$CBKV?$basic_string@DU?$char_traits@D@std@@V?$allocator@D@2@@std@@@2@D@Z 10003100 f i aucmanager.obj
 0001:000021a0       ?_Buynode@?$_Tree@V?$_Tmap_traits@KPAVCVersionMgr@@U?$less@K@std@@V?$allocator@U?$pair@$$CBKPAVCVersionMgr@@@std@@@3@$0A@@std@@@std@@IAEPAU_Node@?$_Tree_nod@V?$_Tmap_traits@KPAVCVersionMgr@@U?$less@K@std@@V?$allocator@U?$pair@$$CBKPAVCVersionMgr@@@std@@@3@$0A@@std@@@2@XZ 100031a0 f i vermanager.obj
 0001:000021a0       ?_Buynode@?$_Tree@V?$_Tmap_traits@KPAVCUploadSysThread@@U?$less@K@std@@V?$allocator@U?$pair@$$CBKPAVCUploadSysThread@@@std@@@3@$0A@@std@@@std@@IAEPAU_Node@?$_Tree_nod@V?$_Tmap_traits@KPAVCUploadSysThread@@U?$less@K@std@@V?$allocator@U?$pair@$$CBKPAVCUploadSysThread@@@std@@@3@$0A@@std@@@2@XZ 100031a0 f i uploadsys.obj
 0001:000021a0       ?_Buynode@?$_Tree@V?$_Tmap_traits@KKU?$less@K@std@@V?$allocator@U?$pair@$$CBKK@std@@@2@$0A@@std@@@std@@IAEPAU_Node@?$_Tree_nod@V?$_Tmap_traits@KKU?$less@K@std@@V?$allocator@U?$pair@$$CBKK@std@@@2@$0A@@std@@@2@XZ 100031a0 f i rtspwraper.obj
 0001:000021a0       ?_Buynode@?$_Tree@V?$_Tmap_traits@KPAUtagHandleParam@@U?$less@K@std@@V?$allocator@U?$pair@$$CBKPAUtagHandleParam@@@std@@@3@$0A@@std@@@std@@IAEPAU_Node@?$_Tree_nod@V?$_Tmap_traits@KPAUtagHandleParam@@U?$less@K@std@@V?$allocator@U?$pair@$$CBKPAUtagHandleParam@@@std@@@3@$0A@@std@@@2@XZ 100031a0 f i aucmanager.obj
 0001:000021e0       ?_Dec@const_iterator@?$_Tree@V?$_Tmap_traits@KV?$basic_string@DU?$char_traits@D@std@@V?$allocator@D@2@@std@@U?$less@K@2@V?$allocator@U?$pair@$$CBKV?$basic_string@DU?$char_traits@D@std@@V?$allocator@D@2@@std@@@std@@@2@$0A@@std@@@std@@QAEXXZ 100031e0 f i aucmanager.obj
 0001:00002270       ?_Inc@const_iterator@?$_Tree@V?$_Tmap_traits@KV?$basic_string@DU?$char_traits@D@std@@V?$allocator@D@2@@std@@U?$less@K@2@V?$allocator@U?$pair@$$CBKV?$basic_string@DU?$char_traits@D@std@@V?$allocator@D@2@@std@@@std@@@2@$0A@@std@@@std@@QAEXXZ 10003270 f i aucmanager.obj
 0001:000022e0       ?_Max@?$_Tree@V?$_Tmap_traits@KV?$basic_string@DU?$char_traits@D@std@@V?$allocator@D@2@@std@@U?$less@K@2@V?$allocator@U?$pair@$$CBKV?$basic_string@DU?$char_traits@D@std@@V?$allocator@D@2@@std@@@std@@@2@$0A@@std@@@std@@KAPAU_Node@?$_Tree_nod@V?$_Tmap_traits@KV?$basic_string@DU?$char_traits@D@std@@V?$allocator@D@2@@std@@U?$less@K@2@V?$allocator@U?$pair@$$CBKV?$basic_string@DU?$char_traits@D@std@@V?$allocator@D@2@@std@@@std@@@2@$0A@@std@@@2@PAU342@@Z 100032e0 f i aucmanager.obj
 0001:00002300       ??$_Allocate@U_Node@?$_Tree_nod@V?$_Tmap_traits@KPAVCUploadSysThread@@U?$less@K@std@@V?$allocator@U?$pair@$$CBKPAVCUploadSysThread@@@std@@@3@$0A@@std@@@std@@@std@@YAPAU_Node@?$_Tree_nod@V?$_Tmap_traits@KPAVCUploadSysThread@@U?$less@K@std@@V?$allocator@U?$pair@$$CBKPAVCUploadSysThread@@@std@@@3@$0A@@std@@@0@IPAU120@@Z 10003300 f i uploadsys.obj
 0001:00002300       ??$_Allocate@U_Node@?$_Tree_nod@V?$_Tmap_traits@KKU?$less@K@std@@V?$allocator@U?$pair@$$CBKK@std@@@2@$0A@@std@@@std@@@std@@YAPAU_Node@?$_Tree_nod@V?$_Tmap_traits@KKU?$less@K@std@@V?$allocator@U?$pair@$$CBKK@std@@@2@$0A@@std@@@0@IPAU120@@Z 10003300 f i rtspwraper.obj
 0001:00002300       ??$_Allocate@U_Node@?$_Tree_nod@V?$_Tmap_traits@KPAUtagHandleParam@@U?$less@K@std@@V?$allocator@U?$pair@$$CBKPAUtagHandleParam@@@std@@@3@$0A@@std@@@std@@@std@@YAPAU_Node@?$_Tree_nod@V?$_Tmap_traits@KPAUtagHandleParam@@U?$less@K@std@@V?$allocator@U?$pair@$$CBKPAUtagHandleParam@@@std@@@3@$0A@@std@@@0@IPAU120@@Z 10003300 f i aucmanager.obj
 0001:00002300       ??$_Allocate@U_Node@?$_Tree_nod@V?$_Tmap_traits@KPAVCVersionMgr@@U?$less@K@std@@V?$allocator@U?$pair@$$CBKPAVCVersionMgr@@@std@@@3@$0A@@std@@@std@@@std@@YAPAU_Node@?$_Tree_nod@V?$_Tmap_traits@KPAVCVersionMgr@@U?$less@K@std@@V?$allocator@U?$pair@$$CBKPAVCVersionMgr@@@std@@@3@$0A@@std@@@0@IPAU120@@Z 10003300 f i vermanager.obj
 0001:00002360       ??$_Allocate@V_Aux_cont@std@@@std@@YAPAV_Aux_cont@0@IPAV10@@Z 10003360 f i aucmanager.obj
 0001:000023b0       ??0bad_alloc@std@@QAE@ABV01@@Z 100033b0 f i aucmanager.obj
 0001:000023d0       ??0parse_error@rapidxml@@QAE@PBDPAX@Z 100033d0 f i cgipro_normal.obj
 0001:00002400       ?what@parse_error@rapidxml@@UBEPBDXZ 10003400 f i cgipro_normal.obj
 0001:00002410       ??_Eparse_error@rapidxml@@UAEPAXI@Z 10003410 f i  CIL library: CIL module
 0001:00002410       ??_Gparse_error@rapidxml@@UAEPAXI@Z 10003410 f i cgipro_normal.obj
 0001:00002430       ??1parse_error@rapidxml@@UAE@XZ 10003430 f i cgipro_normal.obj
 0001:00002440       ??1xml_documentmem@rapidxml@@QAE@XZ 10003440 f i cgipro_normal.obj
 0001:00002470       ?allock_value@xml_documentmem@rapidxml@@QAEPADH@Z 10003470 f i cgipro_normal.obj
 0001:000024a0       ?AtlThrowImpl@ATL@@YGXJ@Z  100034a0 f i cgipro_normal.obj
 0001:000024c0       ??0CTime@ATL@@QAE@HHHHHHH@Z 100034c0 f i cgipro_normal.obj
 0001:00002590       ?Analvze_XmlStr@cgixml@@YA_NPAV?$xml_node@D@rapidxml@@PAD1@Z 10003590 f   cgipro_normal.obj
 0001:00002640       ?Analvze_XmlHugeStr@cgixml@@YA_NPAV?$xml_node@D@rapidxml@@PAD1@Z 10003640 f   cgipro_normal.obj
 0001:00002700       ?Analvze_XmlData@cgixml@@YA_NPAV?$xml_node@D@rapidxml@@PAD1@Z 10003700 f   cgipro_normal.obj
 0001:00002770       ?Analvze_XmlBool@cgixml@@YA_NPAV?$xml_node@D@rapidxml@@PADPA_N@Z 10003770 f   cgipro_normal.obj
 0001:00002830       ?Analvze_XmlU8@cgixml@@YA_NPAV?$xml_node@D@rapidxml@@PADPAE@Z 10003830 f   cgipro_normal.obj
 0001:000028e0       ?Analvze_XmlU16@cgixml@@YA_NPAV?$xml_node@D@rapidxml@@PADPAG@Z 100038e0 f   cgipro_normal.obj
 0001:00002990       ?Analvze_XmlU32@cgixml@@YA_NPAV?$xml_node@D@rapidxml@@PADPAK@Z 10003990 f   cgipro_normal.obj
 0001:00002a30       ?Analvze_XmlINT@cgixml@@YA_NPAV?$xml_node@D@rapidxml@@PADPAH@Z 10003a30 f   cgipro_normal.obj
 0001:00002ae0       ?Analvze_Result@cgixml@@YAKPAD@Z 10003ae0 f   cgipro_normal.obj
 0001:00002c90       ??1?$xml_document@D@rapidxml@@QAE@XZ 10003c90 f i cgipro_normal.obj
 0001:00002ca0       ?Analvze_Attribute@cgixml@@YA_NPAV?$xml_node@D@rapidxml@@PAD1@Z 10003ca0 f   cgipro_normal.obj
 0001:00002e30       ?Analvze_Attribute2@cgixml@@YA_NPAV?$xml_node@D@rapidxml@@PAD1@Z 10003e30 f   cgipro_normal.obj
 0001:00002f10       ?Analvze_XmlStrNode@cgixml@@YA_NPAV?$xml_node@D@rapidxml@@PAD1PAX@Z 10003f10 f   cgipro_normal.obj
 0001:00002f70       ?Analvze_XmlStrSonNodeAll@cgixml@@YA_NPAV?$xml_node@D@rapidxml@@PADPAX@Z 10003f70 f   cgipro_normal.obj
 0001:00003000       ?Analvze_XmlStrSonNodeWeekDay@cgixml@@YA_NPAV?$xml_node@D@rapidxml@@PADPAX@Z 10004000 f   cgipro_normal.obj
 0001:000030f0       ?AddNode_First@cgixml@@YAPAV?$xml_node@D@rapidxml@@AAV?$xml_document@D@3@PAD@Z 100040f0 f   cgipro_normal.obj
 0001:000031d0       ?AddNode_U32@cgixml@@YAPAV?$xml_node@D@rapidxml@@AAV?$xml_document@D@3@PAV23@PADK@Z 100041d0 f   cgipro_normal.obj
 0001:00003290       ?AddNode_bool@cgixml@@YAPAV?$xml_node@D@rapidxml@@AAV?$xml_document@D@3@PAV23@PAD_N@Z 10004290 f   cgipro_normal.obj
 0001:000032f0       ?AddNode_str@cgixml@@YAPAV?$xml_node@D@rapidxml@@AAV?$xml_document@D@3@PAV23@PAD2@Z 100042f0 f   cgipro_normal.obj
 0001:00003330       ?AddNode_strIrcut@cgixml@@YAPAV?$xml_node@D@rapidxml@@AAV?$xml_document@D@3@PAV23@PAD2PAX@Z 10004330 f   cgipro_normal.obj
 0001:00003480       ?AddNode_UpnpMap@cgixml@@YAPAV?$xml_node@D@rapidxml@@AAV?$xml_document@D@3@PAV23@PADPAX@Z 10004480 f   cgipro_normal.obj
 0001:000035d0       ?AddNode_GbEncChns@cgixml@@YAPAV?$xml_node@D@rapidxml@@AAV?$xml_document@D@3@PAV23@PADPAX@Z 100045d0 f   cgipro_normal.obj
 0001:000036c0       ?AddNode_GbAlmChns@cgixml@@YAPAV?$xml_node@D@rapidxml@@AAV?$xml_document@D@3@PAV23@PADPAX@Z 100046c0 f   cgipro_normal.obj
 0001:000037a0       ?AddNode_StrgDisk@cgixml@@YAPAV?$xml_node@D@rapidxml@@AAV?$xml_document@D@3@PAV23@PADPAX@Z 100047a0 f   cgipro_normal.obj
 0001:000038e0       ?AddNode_DetectArea@cgixml@@YAPAV?$xml_node@D@rapidxml@@AAV?$xml_document@D@3@PAV23@PADPAX@Z 100048e0 f   cgipro_normal.obj
 0001:00003980       ?AddNode_DetectAreas@cgixml@@YAPAV?$xml_node@D@rapidxml@@AAV?$xml_document@D@3@PAV23@PAD@Z 10004980 f   cgipro_normal.obj
 0001:00003a40       ?AddNode_WarningLine@cgixml@@YAPAV?$xml_node@D@rapidxml@@AAV?$xml_document@D@3@PAV23@PADPAX@Z 10004a40 f   cgipro_normal.obj
 0001:00003fe0       ?AddNode_RegInvasion@cgixml@@YAPAV?$xml_node@D@rapidxml@@AAV?$xml_document@D@3@PAV23@PADPAX@Z 10004fe0 f   cgipro_normal.obj
 0001:00004580       ?AddNode_ObjDetect@cgixml@@YAPAV?$xml_node@D@rapidxml@@AAV?$xml_document@D@3@PAV23@PADPAX@Z 10005580 f   cgipro_normal.obj
 0001:00004af0       ?AddNode_PerDetect@cgixml@@YAPAV?$xml_node@D@rapidxml@@AAV?$xml_document@D@3@PAV23@PADPAX@Z 10005af0 f   cgipro_normal.obj
 0001:00004fb0       ?AddNode_DetectA1List@cgixml@@YAPAV?$xml_node@D@rapidxml@@AAV?$xml_document@D@3@PAV23@PADPAX@Z 10005fb0 f   cgipro_normal.obj
 0001:00005040       ?AddNode_AreaPoint@cgixml@@YAPAV?$xml_node@D@rapidxml@@AAV?$xml_document@D@3@PAV23@PADPAX@Z 10006040 f   cgipro_normal.obj
 0001:000050c0       ?AddNode_EventTime@cgixml@@YAPAV?$xml_node@D@rapidxml@@AAV?$xml_document@D@3@PAV23@PADPAXH@Z 100060c0 f   cgipro_normal.obj
 0001:00005240       ?AddNode_PtzCruisePath@cgixml@@YAPAV?$xml_node@D@rapidxml@@AAV?$xml_document@D@3@PAV23@PADPAXH@Z 10006240 f   cgipro_normal.obj
 0001:00005350       ?AddNode_TaskWeek@cgixml@@YAPAV?$xml_node@D@rapidxml@@AAV?$xml_document@D@3@PAV23@PADH@Z 10006350 f   cgipro_normal.obj
 0001:00005350       ?AddNode_EventWeek@cgixml@@YAPAV?$xml_node@D@rapidxml@@AAV?$xml_document@D@3@PAV23@PADH@Z 10006350 f   cgipro_normal.obj
 0001:00005440       ?AddNode_TaskTime@cgixml@@YAPAV?$xml_node@D@rapidxml@@AAV?$xml_document@D@3@PAV23@PADPAXH@Z 10006440 f   cgipro_normal.obj
 0001:000056c0       ?AddNode_AudioList@cgixml@@YAPAV?$xml_node@D@rapidxml@@AAV?$xml_document@D@3@PAV23@PADH@Z 100066c0 f   cgipro_normal.obj
 0001:00005770       ?AddNode_OsdList@cgixml@@YAPAV?$xml_node@D@rapidxml@@AAV?$xml_document@D@3@PAV23@PADPAX@Z 10006770 f   cgipro_normal.obj
 0001:00005960       ?Build_HttpHeader@cginormal@@YA_NPAD00H@Z 10006960 f   cgipro_normal.obj
 0001:00005ad0       ?Build_HttpHeader@cginormal@@YA_NPAD000H@Z 10006ad0 f   cgipro_normal.obj
 0001:00005c80       ?Build_HttpHeader_Upload@cginormal@@YA_NPAD00HH@Z 10006c80 f   cgipro_normal.obj
 0001:00005df0       ?Build_SendXml_EventTime@cginormal@@YA_NPADPBD00@Z 10006df0 f   cgipro_normal.obj
 0001:00006450       ?Analvze_EventTime@cginormal@@YA_NPAD0PAXHH0AAH@Z 10007450 f   cgipro_normal.obj
 0001:00006740       ?Build_SetEventTime@cginormal@@YA_NAAPADAAPBDPAD2PAXHH@Z 10007740 f   cgipro_normal.obj
 0001:00006cb0       ?Build_SendXml_Cap@cginormal@@YA_NPADPBDGQAPAD@Z 10007cb0 f   cgipro_normal.obj
 0001:00006e90       ?Analvze_cap@cginormal@@YA_NPADGQAPADQAK@Z 10007e90 f   cgipro_normal.obj
 0001:000070e0       ?Build_CGIVer@cginormal@@YA_NPADPBD@Z 100080e0 f   cgipro_normal.obj
 0001:000072a0       ?Analvze_CGIVer@cginormal@@YA_NPAD0@Z 100082a0 f   cgipro_normal.obj
 0001:000073d0       ?Build_SendXml_TransData@cginormal@@YA_NPADPBD00H@Z 100083d0 f   cgipro_normal.obj
 0001:000076e0       ?Analvze_TransData@cginormal@@YA_NPAD00AAH@Z 100086e0 f   cgipro_normal.obj
 0001:00007840       ?Build_StartVideo_Rtcp@cgivideo@@YA_NPADAAPADAAPBDPAXHAAH@Z 10008840 f   cgipro_normal.obj
 0001:00008190       ?Analvze_StartVideo_Rtcp@cgivideo@@YA_NPADAAKPAXAAHH@Z 10009190 f   cgipro_normal.obj
 0001:00008330       ?Build_StopVideo_Rtcp@cgivideo@@YA_NAAPADAAPBDK@Z 10009330 f   cgipro_normal.obj
 0001:00008550       ?Build_GetRtspURL_CgiMeta@cgivideo@@YA_NAAPADPADPAXAAPBD2HH@Z 10009550 f   cgipro_normal.obj
 0001:00008820       ?Build_GetRtspURL@cgivideo@@YA_NAAPADPADPAXAAPBDW4emPlayVideoType@@AA_N2H@Z 10009820 f   cgipro_normal.obj
 0001:000090d0       ?Analvze_GetRtspURL@cgivideo@@YA_NPAD_NPAXAAH@Z 1000a0d0 f   cgipro_normal.obj
 0001:000092c0       ?Build_KeyFrameQur_RTCP@cgivideo@@YA_NAAPADAAPBDK@Z 1000a2c0 f   cgipro_normal.obj
 0001:000094e0       ?Build_StartCall_Rtcp@cgivideo@@YAKAAPADPADW4emTransType@@AAPBDPAXAAH@Z 1000a4e0 f   cgipro_normal.obj
 0001:000098e0       ?Build_StopCall_Rtcp@cgivideo@@YA_NAAPADAAPBDK@Z 1000a8e0 f   cgipro_normal.obj
 0001:00009b00       ?Analvze_CallState@cgivideo@@YA_NPADPAXAAH@Z 1000ab00 f   cgipro_normal.obj
 0001:00009c30       ?Build_PuSnapShop@cgivideo@@YA_NAAPADAAPBDE@Z 1000ac30 f   cgipro_normal.obj
 0001:00009e20       ?Analvze_PuSnapShop@cgivideo@@YA_NPAD0@Z 1000ae20 f   cgipro_normal.obj
 0001:00009f50       ?Build_PuPicData@cgivideo@@YA_NAAPADPAD@Z 1000af50 f   cgipro_normal.obj
 0001:0000a050       ?Analvze_GetVideoVolume_Rtcp@cgivideo@@YA_NPADPAXAAH@Z 1000b050 f   cgipro_normal.obj
 0001:0000a1b0       ?Build_SetVideoVolume_Rtcp@cgivideo@@YA_NAAPADAAPBDPAXH@Z 1000b1b0 f   cgipro_normal.obj
 0001:0000a400       ?Build_GetMulitVideoMode@cgivideo@@YA_NAAPADAAPBDE@Z 1000b400 f   cgipro_normal.obj
 0001:0000a660       ?Build_SetMulitVideoMode@cgivideo@@YA_NAAPADAAPBDPAXH@Z 1000b660 f   cgipro_normal.obj
 0001:0000a950       ?Analvze_GetMulitVideoMode@cgivideo@@YA_NPADPAXAAH@Z 1000b950 f   cgipro_normal.obj
 0001:0000aaa0       ?Build_GetAudioDec@cgivideo@@YA_NAAPADAAPBDEE@Z 1000baa0 f   cgipro_normal.obj
 0001:0000ad10       ?Build_SetAudioDec@cgivideo@@YA_NAAPADAAPBDPAXH@Z 1000bd10 f   cgipro_normal.obj
 0001:0000aff0       ?Analvze_GetAudioDec@cgivideo@@YA_NPADPAXAAH@Z 1000bff0 f   cgipro_normal.obj
 0001:0000b150       ?Build_GetAudioEec@cgivideo@@YA_NAAPADAAPBDEE@Z 1000c150 f   cgipro_normal.obj
 0001:0000b3c0       ?Build_SetAudioEec@cgivideo@@YA_NAAPADAAPBDPAXH@Z 1000c3c0 f   cgipro_normal.obj
 0001:0000b760       ?Analvze_GetAudioEnc@cgivideo@@YA_NPADPAXAAH02@Z 1000c760 f   cgipro_normal.obj
 0001:0000ba30       ?Build_GetVideoEnc@cgivideo@@YA_NAAPADAAPBDEE@Z 1000ca30 f   cgipro_normal.obj
 0001:0000bca0       ?Build_SetVideoEnc@cgivideo@@YA_NAAPADAAPBDPAXH@Z 1000cca0 f   cgipro_normal.obj
 0001:0000c0d0       ?Analvze_GetVideoEnc@cgivideo@@YA_NPADPAXAAH02@Z 1000d0d0 f   cgipro_normal.obj
 0001:0000c6b0       ?Build_GetVideoShield@cgivideo@@YA_NAAPADAAPBDE@Z 1000d6b0 f   cgipro_normal.obj
 0001:0000c910       ?Build_SetVideoShield@cgivideo@@YA_NAAPADAAPBDPAXH@Z 1000d910 f   cgipro_normal.obj
 0001:0000cf80       ?Analvze_GetVideoShield@cgivideo@@YA_NPADPAXAAH02@Z 1000df80 f   cgipro_normal.obj
 0001:0000d460       ?Build_GetVideoRoi@cgivideo@@YA_NAAPADAAPBDE@Z 1000e460 f   cgipro_normal.obj
 0001:0000d6c0       ?Build_SetVideoRoi@cgivideo@@YA_NAAPADAAPBDPAXH@Z 1000e6c0 f   cgipro_normal.obj
 0001:0000dc20       ?Analvze_GetVideoRoi@cgivideo@@YA_NPADPAXAAH@Z 1000ec20 f   cgipro_normal.obj
 0001:0000dff0       ?Build_GetVideoEncCut@cgivideo@@YA_NAAPADAAPBDE@Z 1000eff0 f   cgipro_normal.obj
 0001:0000e250       ?Build_SetVideoEncCut@cgivideo@@YA_NAAPADAAPBDPAXH@Z 1000f250 f   cgipro_normal.obj
 0001:0000e6d0       ?Analvze_GetVideoEncCut@cgivideo@@YA_NPADPAXAAH@Z 1000f6d0 f   cgipro_normal.obj
 0001:0000e8c0       ?Build_GetOsdStateQuery@cgivideo@@YA_NAAPADAAPBDE@Z 1000f8c0 f   cgipro_normal.obj
 0001:0000eb20       ?Analvze_GetOsdStateQuery@cgivideo@@YA_NPADPAXAAH02@Z 1000fb20 f   cgipro_normal.obj
 0001:0000ecc0       ?Build_SetOsdPrepare@cgivideo@@YA_NAAPADAAPBDPAXH@Z 1000fcc0 f   cgipro_normal.obj
 0001:0000f010       ?Build_SetOsdUploadFile@cgivideo@@YA_NAAPADAAPBDPAXH@Z 10010010 f   cgipro_normal.obj
 0001:0000f340       ?Build_GetOsd@cgivideo@@YA_NAAPADAAPBDE@Z 10010340 f   cgipro_normal.obj
 0001:0000f340       ?Build_GetOsdCap@cgivideo@@YA_NAAPADAAPBDE@Z 10010340 f   cgipro_normal.obj
 0001:0000f340       ?Build_GetOsdList@cgivideo@@YA_NAAPADAAPBDE@Z 10010340 f   cgipro_normal.obj
 0001:0000f5a0       ?Analvze_GetOsdCap@cgivideo@@YA_NPADPAXAAH@Z 100105a0 f   cgipro_normal.obj
 0001:0000f950       ?Build_SetOsd@cgivideo@@YA_NAAPADAAPBDPAXH@Z 10010950 f   cgipro_normal.obj
 0001:0000fea0       ?Analvze_GetOsd@cgivideo@@YA_NPADPAXAAH02@Z 10010ea0 f   cgipro_normal.obj
 0001:00010140       ?Analvze_GetOsdList@cgivideo@@YA_NPADPAXAAH@Z 10011140 f   cgipro_normal.obj
 0001:000103d0       ?Build_SetOsdList@cgivideo@@YA_NAAPADAAPBDPAXH@Z 100113d0 f   cgipro_normal.obj
 0001:000107a0       ?Build_GetRecMonthInfo@cgivideo@@YA_NAAPADAAPBDH@Z 100117a0 f   cgipro_normal.obj
 0001:00010aa0       ?Analvze_GetRecMonthInfo@cgivideo@@YA_NPADPAXAAH@Z 10011aa0 f   cgipro_normal.obj
 0001:00010ca0       ?Build_GetPreLoadRecordList@cgivideo@@YA_NAAPADAAPBDPAXH@Z 10011ca0 f   cgipro_normal.obj
 0001:00011010       ?Analvze_GetPreLoadRecordList@cgivideo@@YA_NPADAAK@Z 10012010 f   cgipro_normal.obj
 0001:00011160       ?Build_GetRecordNext@cgivideo@@YA_NAAPADAAPBDKKH@Z 10012160 f   cgipro_normal.obj
 0001:000113a0       ?Analvze_GetRecordNext@cgivideo@@YA_NPADPAXHAAHAA_N@Z 100123a0 f   cgipro_normal.obj
 0001:00011a50       ?Build_StartRecordPlay@cgivideo@@YA_NAAPADAAPBD_NPAXH@Z 10012a50 f   cgipro_normal.obj
 0001:00011dd0       ?Analvze_StartRecordPlay@cgivideo@@YA_NPADAAHPAXH@Z 10012dd0 f   cgipro_normal.obj
 0001:00011f40       ?Build_StartStream@cgivideo@@YA_NAAPADAAPBDK@Z 10012f40 f   cgipro_normal.obj
 0001:00012160       ?Build_PauseRecordPlay@cgivideo@@YA_NAAPADAAPBDK@Z 10013160 f   cgipro_normal.obj
 0001:00012430       ?Build_ResumeRecordPlay@cgivideo@@YA_NAAPADAAPBDK@Z 10013430 f   cgipro_normal.obj
 0001:00012700       ?Build_StopRecordPlay@cgivideo@@YA_NAAPADAAPBDK@Z 10013700 f   cgipro_normal.obj
 0001:00012990       ?Build_MoveRecordPlay@cgivideo@@YA_NAAPADAAPBDKPAXH@Z 10013990 f   cgipro_normal.obj
 0001:00012c60       ?Build_SetRecordPlayRate@cgivideo@@YA_NAAPADAAPBDKK@Z 10013c60 f   cgipro_normal.obj
 0001:00012f70       ?Build_Getrecplaystate@cgivideo@@YA_NAAPADAAPBDK@Z 10013f70 f   cgipro_normal.obj
 0001:00013190       ?Build_Setrecdownloadspeed@cgivideo@@YA_NAAPADAAPBD@Z 10014190 f   cgipro_normal.obj
 0001:00013350       ?Analvze_Getrecplaystate@cgivideo@@YA_NPADPAXAAH@Z 10014350 f   cgipro_normal.obj
 0001:000134d0       ?Build_RecoveryDef@cgiimage@@YA_NAAPADAAPBDPAXH@Z 100144d0 f   cgipro_normal.obj
 0001:00013750       ?Build_GetColor@cgiimage@@YA_NAAPADAAPBDE@Z 10014750 f   cgipro_normal.obj
 0001:000139b0       ?Build_SetColor@cgiimage@@YA_NAAPADAAPBDPAXH@Z 100149b0 f   cgipro_normal.obj
 0001:00013cc0       ?Analvze_GetColor@cgiimage@@YA_NPADPAXAAH@Z 10014cc0 f   cgipro_normal.obj
 0001:00013e40       ?Build_GetFocus@cgiimage@@YA_NAAPADAAPBDE@Z 10014e40 f   cgipro_normal.obj
 0001:00014040       ?Analvze_GetFocus@cgiimage@@YA_NPADPAXAAH02@Z 10015040 f   cgipro_normal.obj
 0001:00014340       ?Build_SetFocus@cgiimage@@YA_NAAPADAAPBDPAXH@Z 10015340 f   cgipro_normal.obj
 0001:00014640       ?Build_GetWhiteBlance@cgiimage@@YA_NAAPADAAPBDE@Z 10015640 f   cgipro_normal.obj
 0001:00014840       ?Build_SetWhiteBlance@cgiimage@@YA_NAAPADAAPBDPAXH@Z 10015840 f   cgipro_normal.obj
 0001:00014b60       ?Analvze_GetWhiteBlance@cgiimage@@YA_NPADPAXAAH02@Z 10015b60 f   cgipro_normal.obj
 0001:00014d90       ?Build_GetIrcutFilter@cgiimage@@YA_NAAPADAAPBDE@Z 10015d90 f   cgipro_normal.obj
 0001:00014f90       ?Analvze_GetIrcutFilter@cgiimage@@YA_NPADPAXAAH02@Z 10015f90 f   cgipro_normal.obj
 0001:00015180       ?Build_SetIrcutFilter@cgiimage@@YA_NAAPADAAPBDPAXH@Z 10016180 f   cgipro_normal.obj
 0001:000155d0       ?Build_GetIris@cgiimage@@YA_NAAPADAAPBDE@Z 100165d0 f   cgipro_normal.obj
 0001:000157d0       ?Analvze_GetIris@cgiimage@@YA_NPADPAXAAH@Z 100167d0 f   cgipro_normal.obj
 0001:00015950       ?Build_SetIris@cgiimage@@YA_NAAPADAAPBDPAXH@Z 10016950 f   cgipro_normal.obj
 0001:00015bf0       ?Build_GetShutter@cgiimage@@YA_NAAPADAAPBDE@Z 10016bf0 f   cgipro_normal.obj
 0001:00015e00       ?Build_SetShutter@cgiimage@@YA_NAAPADAAPBDPAXH@Z 10016e00 f   cgipro_normal.obj
 0001:00016100       ?Analvze_GetShutter@cgiimage@@YA_NPADPAXAAH02@Z 10017100 f   cgipro_normal.obj
 0001:00016400       ?Build_GetGain@cgiimage@@YA_NAAPADAAPBDE@Z 10017400 f   cgipro_normal.obj
 0001:00016600       ?Build_SetGain@cgiimage@@YA_NAAPADAAPBDPAXH@Z 10017600 f   cgipro_normal.obj
 0001:000168a0       ?Analvze_GetGain@cgiimage@@YA_NPADPAXAAH@Z 100178a0 f   cgipro_normal.obj
 0001:00016a20       ?Build_GetInfrared@cgiimage@@YA_NAAPADAAPBDE@Z 10017a20 f   cgipro_normal.obj
 0001:00016c20       ?Analvze_GetInfrared@cgiimage@@YA_NPADPAXAAH02@Z 10017c20 f   cgipro_normal.obj
 0001:00016dc0       ?Build_SetInfrared@cgiimage@@YA_NAAPADAAPBDPAXH@Z 10017dc0 f   cgipro_normal.obj
 0001:00017060       ?Build_GetLaser@cgiimage@@YA_NAAPADAAPBDE@Z 10018060 f   cgipro_normal.obj
 0001:00017260       ?Analvze_GetLaser@cgiimage@@YA_NPADPAXAAH02@Z 10018260 f   cgipro_normal.obj
 0001:00017420       ?Build_SetLaser@cgiimage@@YA_NAAPADAAPBDPAXH@Z 10018420 f   cgipro_normal.obj
 0001:00017700       ?Build_GetCorrido@cgiimage@@YA_NAAPADAAPBDE@Z 10018700 f   cgipro_normal.obj
 0001:00017960       ?Analvze_GetCorrido@cgiimage@@YA_NPADPAXAAH02@Z 10018960 f   cgipro_normal.obj
 0001:00017af0       ?Build_SetCorrido@cgiimage@@YA_NAAPADAAPBDPAXH@Z 10018af0 f   cgipro_normal.obj
 0001:00017de0       ?Build_GetImageMode@cgiimage@@YA_NAAPADAAPBDE@Z 10018de0 f   cgipro_normal.obj
 0001:00018040       ?Analvze_GetImageMode@cgiimage@@YA_NPADPAXAAH02@Z 10019040 f   cgipro_normal.obj
 0001:000181d0       ?Build_SetImageMode@cgiimage@@YA_NAAPADAAPBDPAXH@Z 100191d0 f   cgipro_normal.obj
 0001:000184c0       ?Build_GetNoiseReduce2D@cgiimage@@YA_NAAPADAAPBDE@Z 100194c0 f   cgipro_normal.obj
 0001:00018720       ?Build_SetNoiseReduce2D@cgiimage@@YA_NAAPADAAPBDPAXH@Z 10019720 f   cgipro_normal.obj
 0001:00018a30       ?Analvze_GetNoiseReduce2D@cgiimage@@YA_NPADPAXAAH02@Z 10019a30 f   cgipro_normal.obj
 0001:00018bd0       ?Build_GetNoiseReduce3D@cgiimage@@YA_NAAPADAAPBDE@Z 10019bd0 f   cgipro_normal.obj
 0001:00018e30       ?Build_SetNoiseReduce3D@cgiimage@@YA_NAAPADAAPBDPAXH@Z 10019e30 f   cgipro_normal.obj
 0001:00019140       ?Analvze_GetNoiseReduce3D@cgiimage@@YA_NPADPAXAAH02@Z 1001a140 f   cgipro_normal.obj
 0001:000192e0       ?Build_GetLocalEcho@cgiimage@@YA_NAAPADAAPBDE@Z 1001a2e0 f   cgipro_normal.obj
 0001:00019540       ?Build_SetLocalEcho@cgiimage@@YA_NAAPADAAPBDPAXH@Z 1001a540 f   cgipro_normal.obj
 0001:00019830       ?Analvze_GetLocalEcho@cgiimage@@YA_NPADPAXAAH02@Z 1001a830 f   cgipro_normal.obj
 0001:000199c0       ?Build_GetPowerLineFrequency@cgiimage@@YA_NAAPADAAPBDE@Z 1001a9c0 f   cgipro_normal.obj
 0001:00019c20       ?Build_SetPowerLineFrequency@cgiimage@@YA_NAAPADAAPBDPAXH@Z 1001ac20 f   cgipro_normal.obj
 0001:00019f10       ?Analvze_GetPowerLineFrequency@cgiimage@@YA_NPADPAXAAH02@Z 1001af10 f   cgipro_normal.obj
 0001:0001a0a0       ?Build_GetWdr@cgiimage@@YA_NAAPADAAPBDE@Z 1001b0a0 f   cgipro_normal.obj
 0001:0001a300       ?Build_SetWdr@cgiimage@@YA_NAAPADAAPBDPAXH@Z 1001b300 f   cgipro_normal.obj
 0001:0001a610       ?Analvze_GetWdr@cgiimage@@YA_NPADPAXAAH@Z 1001b610 f   cgipro_normal.obj
 0001:0001a760       ?Build_GetHlc@cgiimage@@YA_NAAPADAAPBDE@Z 1001b760 f   cgipro_normal.obj
 0001:0001a9c0       ?Build_SetHlc@cgiimage@@YA_NAAPADAAPBDPAXH@Z 1001b9c0 f   cgipro_normal.obj
 0001:0001acd0       ?Analvze_GetHlc@cgiimage@@YA_NPADPAXH@Z 1001bcd0 f   cgipro_normal.obj
 0001:0001ae10       ?Build_GetFogThough@cgiimage@@YA_NAAPADAAPBDE@Z 1001be10 f   cgipro_normal.obj
 0001:0001b070       ?Build_SetFogThough@cgiimage@@YA_NAAPADAAPBDPAXH@Z 1001c070 f   cgipro_normal.obj
 0001:0001b380       ?Analvze_GetFogThough@cgiimage@@YA_NPADPAXAAH@Z 1001c380 f   cgipro_normal.obj
 0001:0001b4d0       ?Build_GetGamma@cgiimage@@YA_NAAPADAAPBDE@Z 1001c4d0 f   cgipro_normal.obj
 0001:0001b730       ?Build_SetGamma@cgiimage@@YA_NAAPADAAPBDPAXH@Z 1001c730 f   cgipro_normal.obj
 0001:0001ba40       ?Analvze_GetGamma@cgiimage@@YA_NPADPAXAAH@Z 1001ca40 f   cgipro_normal.obj
 0001:0001bb90       ?Build_GetSmartIR@cgiimage@@YA_NAAPADAAPBDE@Z 1001cb90 f   cgipro_normal.obj
 0001:0001bdf0       ?Build_SetSmartIR@cgiimage@@YA_NAAPADAAPBDPAXH@Z 1001cdf0 f   cgipro_normal.obj
 0001:0001c100       ?Analvze_GetSmartIR@cgiimage@@YA_NPADPAXAAH@Z 1001d100 f   cgipro_normal.obj
 0001:0001c250       ?Build_GetBlc@cgiimage@@YA_NAAPADAAPBDE@Z 1001d250 f   cgipro_normal.obj
 0001:0001c4b0       ?Build_SetBlc@cgiimage@@YA_NAAPADAAPBDPAXH@Z 1001d4b0 f   cgipro_normal.obj
 0001:0001c980       ?Analvze_GetBlc@cgiimage@@YA_NPADPAXAAH02@Z 1001d980 f   cgipro_normal.obj
 0001:0001ccc0       ?Build_AssTeleZoomInfo@cgiimage@@YA_NAAPADAAPBDPAXH@Z 1001dcc0 f   cgipro_normal.obj
 0001:0001d040       ?Build_GetAssTeleZoomInfo@cgiimage@@YA_NAAPADAAPBD@Z 1001e040 f   cgipro_normal.obj
 0001:0001d2a0       ?Analvze_AssTeleZoomInfo@cgiimage@@YA_NPADPAXH@Z 1001e2a0 f   cgipro_normal.obj
 0001:0001d550       ?Build_AssMalfInfo@cgiimage@@YA_NAAPADAAPBDPAXH@Z 1001e550 f   cgipro_normal.obj
 0001:0001d7b0       ?Build_GetAssMalfInfo@cgiimage@@YA_NAAPADAAPBD@Z 1001e7b0 f   cgipro_normal.obj
 0001:0001da10       ?Analvze_AssMalfInfo@cgiimage@@YA_NPADPAXH@Z 1001ea10 f   cgipro_normal.obj
 0001:0001dbc0       ?Build_SetMTCF@cgiimage@@YA_NAAPADAAPBDPAXH@Z 1001ebc0 f   cgipro_normal.obj
 0001:0001ddf0       ?Build_GetMTCF@cgiimage@@YA_NAAPADAAPBD@Z 1001edf0 f   cgipro_normal.obj
 0001:0001e050       ?Analvze_GetMTCF@cgiimage@@YA_NPADPAXH@Z 1001f050 f   cgipro_normal.obj
 0001:0001e200       ?Build_GetFillLight@cgiimage@@YA_NAAPADAAPBD@Z 1001f200 f   cgipro_normal.obj
 0001:0001e460       ?Analvze_GetFillLight@cgiimage@@YA_NPADPAXH@Z 1001f460 f   cgipro_normal.obj
 0001:0001e5c0       ?Build_SetFillLight@cgiimage@@YA_NAAPADAAPBDPAXH@Z 1001f5c0 f   cgipro_normal.obj
 0001:0001e8b0       ?Build_SetDynPluginState@cgiimage@@YA_NAAPADAAPBDPAXH@Z 1001f8b0 f   cgipro_normal.obj
 0001:0001ead0       ?Analvze_AucId@cgiauc@@YA_NPAD0@Z 1001fad0 f   cgipro_normal.obj
 0001:0001ec80       ?Build_AucInfo@cgiauc@@YA_NAAV?$basic_string@DU?$char_traits@D@std@@V?$allocator@D@2@@std@@PAD111@Z 1001fc80 f   cgipro_normal.obj
 0001:0001f0f0       ?Build_SendXml_DeviceInfo@cgisystem@@YA_NPADPBDPAXH@Z 100200f0 f   cgipro_normal.obj
 0001:0001f350       ?Build_SendXml_SystemTime@cgisystem@@YA_NPADPBDPAXH@Z 10020350 f   cgipro_normal.obj
 0001:0001f350       ?Build_SendXml_SetSysTimeSynChronise@cgisystem@@YA_NPADPBDPAXH@Z 10020350 f   cgipro_normal.obj
 0001:0001f7a0       ?Build_SendXml_TimeAuto@cgisystem@@YA_NPADPBDPAXH@Z 100207a0 f   cgipro_normal.obj
 0001:0001fb50       ?Build_SendXml_SetDST@cgisystem@@YA_NPADPBDPAXH@Z 10020b50 f   cgipro_normal.obj
 0001:000201f0       ?Build_SendXml_SetRSInfo@cgisystem@@YA_NPADPBDPAXH@Z 100211f0 f   cgipro_normal.obj
 0001:000205f0       ?Build_SendXml_SetLedFind@cgisystem@@YA_NPADPBDPAXH@Z 100215f0 f   cgipro_normal.obj
 0001:000208f0       ?Build_SendXml_SystemReboot@cgisystem@@YA_NPADPBDPAXH@Z 100218f0 f   cgipro_normal.obj
 0001:00020af0       ?Build_SendXml_RecoverFactory@cgisystem@@YA_NPADPBDPAXH@Z 10021af0 f   cgipro_normal.obj
 0001:00020df0       ?Build_SendXml_UserActive@cgisystem@@YA_NPADPAXH@Z 10021df0 f   cgipro_normal.obj
 0001:000210b0       ?Build_SendXml_SetAdvance@cgisystem@@YA_NPADPBDPAXH@Z 100220b0 f   cgipro_normal.obj
 0001:00021500       ?Build_SendXml_SetPreUploadCfg@cgisystem@@YA_NPADPBDPAXH@Z 10022500 f   cgipro_normal.obj
 0001:00021780       ?Build_SendXml_SetUploadCfg@cgisystem@@YA_NPADPBDPAXHH@Z 10022780 f   cgipro_normal.obj
 0001:00021ab0       ?Build_SendXml_SetPreUploadSys@cgisystem@@YA_NPADPBDHH0H@Z 10022ab0 f   cgipro_normal.obj
 0001:00021d70       ?Analvze_DeviceInfo@cgisystem@@YA_NPADPAXH@Z 10022d70 f   cgipro_normal.obj
 0001:00021f00       ?Analvze_SystemTime@cgisystem@@YA_NPADPAXAAH@Z 10022f00 f   cgipro_normal.obj
 0001:00022090       ?Analvze_TimeAuto@cgisystem@@YA_NPADPAXH@Z 10023090 f   cgipro_normal.obj
 0001:00022260       ?Analvze_GetDST@cgisystem@@YA_NPADPAXH@Z 10023260 f   cgipro_normal.obj
 0001:00022450       ?Analvze_GetRSInfo@cgisystem@@YA_NPADPAXH@Z 10023450 f   cgipro_normal.obj
 0001:00022600       ?Analvze_GetAdvance@cgisystem@@YA_NPADPAXH@Z 10023600 f   cgipro_normal.obj
 0001:000227d0       ?Analvze_GetPreDownload@cgisystem@@YA_NPADPAXH@Z 100237d0 f   cgipro_normal.obj
 0001:00022900       ?Analvze_GetDownload@cgisystem@@YA_NPADPAH10@Z 10023900 f   cgipro_normal.obj
 0001:00022a60       ?Analvze_GetUploadState@cgisystem@@YA_NPAD0PAH@Z 10023a60 f   cgipro_normal.obj
 0001:00022be0       ?Analvze_BatteryStatus@cgisystem@@YA_NPADPAXH@Z 10023be0 f   cgipro_normal.obj
 0001:00022d20       ?Build_SendXml_SetSSH@cgisystem@@YA_NPADPBD_N@Z 10023d20 f   cgipro_normal.obj
 0001:00023000       ?Build_SendXml_AddUser@cgisecurity@@YA_NPADPBDPAXH@Z 10024000 f   cgipro_normal.obj
 0001:000234e0       ?Build_SendXml_DelUser@cgisecurity@@YA_NPADPBDPAXH@Z 100244e0 f   cgipro_normal.obj
 0001:000237f0       ?Build_SendXml_UpdateUser@cgisecurity@@YA_NPADPBDPAXH@Z 100247f0 f   cgipro_normal.obj
 0001:00023d10       ?Build_SendXml_SetUsers@cgisecurity@@YA_NPADPBDPAXH@Z 10024d10 f   cgipro_normal.obj
 0001:00024240       ?Analvze_GetUsers@cgisecurity@@YA_NPADPAXAAH2@Z 10025240 f   cgipro_normal.obj
 0001:00024500       ?Analvze_NetPort@cginet@@YA_NPADPAXH@Z 10025500 f   cgipro_normal.obj
 0001:00024670       ?Build_SetNetPort@cginet@@YA_NAAPADAAPBDPAXH@Z 10025670 f   cgipro_normal.obj
 0001:000248f0       ?Analvze_IP@cginet@@YA_NPADPAXH@Z 100258f0 f   cgipro_normal.obj
 0001:00024e20       ?Build_SetIp@cginet@@YA_NAAPADAAPBDPAXH@Z 10025e20 f   cgipro_normal.obj
 0001:000254d0       ?Analvze_Ddns@cginet@@YA_NPADPAXHQADH@Z 100264d0 f   cgipro_normal.obj
 0001:00025690       ?Build_SetDdns@cginet@@YA_NAAPADAAPBDPAXH@Z 10026690 f   cgipro_normal.obj
 0001:00025a90       ?Analvze_DdnsState@cginet@@YA_NPADPAXH@Z 10026a90 f   cgipro_normal.obj
 0001:00025bc0       ?Analvze_PPPoE@cginet@@YA_NPADPAXH@Z 10026bc0 f   cgipro_normal.obj
 0001:00025d70       ?Build_SetPppoe@cginet@@YA_NAAPADAAPBDPAXH@Z 10026d70 f   cgipro_normal.obj
 0001:000260d0       ?Analvze_Qos@cginet@@YA_NPADPAXH@Z 100270d0 f   cgipro_normal.obj
 0001:00026230       ?Build_SetQos@cginet@@YA_NAAPADAAPBDPAXH@Z 10027230 f   cgipro_normal.obj
 0001:00026480       ?Analvze_KSnmp@cginet@@YA_NPADPAXH@Z 10027480 f   cgipro_normal.obj
 0001:00026650       ?Build_SetKSnmp@cginet@@YA_NAAPADAAPBDPAXH@Z 10027650 f   cgipro_normal.obj
 0001:00026990       ?Analvze_8021x@cginet@@YA_NPADPAXHQADH@Z 10027990 f   cgipro_normal.obj
 0001:00026ba0       ?Build_Set8021x@cginet@@YA_NAAPADAAPBDPAXH@Z 10027ba0 f   cgipro_normal.obj
 0001:00026fb0       ?Analvze_Upnp@cginet@@YA_NPADPAXH1HAAH@Z 10027fb0 f   cgipro_normal.obj
 0001:00027230       ?Build_SetUpnp@cginet@@YA_NAAPADAAPBDPAXH2HAAH@Z 10028230 f   cgipro_normal.obj
 0001:000275d0       ?Analvze_Vsip@cginet@@YA_NPADPAXH@Z 100285d0 f   cgipro_normal.obj
 0001:000277d0       ?Build_SetVsip@cginet@@YA_NAAPADAAPBDPAXH@Z 100287d0 f   cgipro_normal.obj
 0001:00027c80       ?Analvze_Onvif@cginet@@YA_NPADPAXH@Z 10028c80 f   cgipro_normal.obj
 0001:00027dd0       ?Build_SetOnvif@cginet@@YA_NAAPADAAPBDPAXH@Z 10028dd0 f   cgipro_normal.obj
 0001:00028030       ?Build_SendXml_Dpss@cginet@@YA_NPADPBD@Z 10029030 f   cgipro_normal.obj
 0001:000281f0       ?Analvze_Dpss@cginet@@YA_NPADPAXH@Z 100291f0 f   cgipro_normal.obj
 0001:000283b0       ?Build_SetDpss@cginet@@YA_NAAPADAAPBDPAXH@Z 100293b0 f   cgipro_normal.obj
 0001:00028760       ?Build_SendXml_AuthMode@cginet@@YA_NAAPADPBD@Z 10029760 f   cgipro_normal.obj
 0001:00028920       ?Analvze_AuthMode@cginet@@YA_NPADPAXH@Z 10029920 f   cgipro_normal.obj
 0001:00028a50       ?Build_SetAuthMode@cginet@@YA_NAAPADAAPBDPAXH@Z 10029a50 f   cgipro_normal.obj
 0001:00028ca0       ?Build_SendXml_GB28181@cginet@@YA_NPAD0@Z 10029ca0 f   cgipro_normal.obj
 0001:00028d40       ?Analvze_GB28181@cginet@@YA_NPADPAXH1AAH12QADH@Z 10029d40 f   cgipro_normal.obj
 0001:00029260       ?Build_SetGB28181@cginet@@YA_NAAPADAAPBDPADPAXH3H3H@Z 1002a260 f   cgipro_normal.obj
 0001:00029ae0       ?Build_SendXml_Wlan@cginet@@YA_NPAD@Z 1002aae0 f   cgipro_normal.obj
 0001:00029b50       ?Analvze_Wlan@cginet@@YA_NPADPAXH@Z 1002ab50 f   cgipro_normal.obj
 0001:00029ce0       ?Build_SetWlan@cginet@@YA_NAAPADAAPBDPAXH@Z 1002ace0 f   cgipro_normal.obj
 0001:0002a040       ?Analvze_StorageState@cgistorage@@YA_NPADPAXH0AAH@Z 1002b040 f   cgipro_normal.obj
 0001:0002a1c0       ?Analvze_StorageNum@cgistorage@@YA_NPADAAH@Z 1002b1c0 f   cgipro_normal.obj
 0001:0002a310       ?Analvze_StorageManager@cgistorage@@YA_NPADPAXH0AAH@Z 1002b310 f   cgipro_normal.obj
 0001:0002a6c0       ?Build_SetStorageManager@cgistorage@@YA_NAAPADAAPBDPAXH@Z 1002b6c0 f   cgipro_normal.obj
 0001:0002a9f0       ?Build_SetStorageFomat@cgistorage@@YA_NAAPADAAPBDPAXH@Z 1002b9f0 f   cgipro_normal.obj
 0001:0002ac40       ?Build_SendXml_FomatProgress@cgistorage@@YA_NPADPBD@Z 1002bc40 f   cgipro_normal.obj
 0001:0002ae70       ?Analvze_FomatProgress@cgistorage@@YA_NPADPAXH@Z 1002be70 f   cgipro_normal.obj
 0001:0002afc0       ?Analvze_RecSchedule@cgistorage@@YA_NPADPAXH0AAH@Z 1002bfc0 f   cgipro_normal.obj
 0001:0002b2a0       ?Build_SetRecSchedule@cgistorage@@YA_NAAPADAAPBDPAXH@Z 1002c2a0 f   cgipro_normal.obj
 0001:0002b5e0       ?Analvze_SnapPicConfig@cgistorage@@YA_NPADPAXH0AAH@Z 1002c5e0 f   cgipro_normal.obj
 0001:0002b820       ?Build_SetSnapPicConfig@cgistorage@@YA_NAAPADAAPBDPAXH@Z 1002c820 f   cgipro_normal.obj
 0001:0002bb10       ?Analvze_SnapEvent@cgistorage@@YA_NPADPAXH@Z 1002cb10 f   cgipro_normal.obj
 0001:0002bc70       ?Build_SetSnapEvent@cgistorage@@YA_NAAPADAAPBDPAXH@Z 1002cc70 f   cgipro_normal.obj
 0001:0002bef0       ?Analvze_SnapTime@cgistorage@@YA_NPADPAXH@Z 1002cef0 f   cgipro_normal.obj
 0001:0002c060       ?Build_SetSnapTime@cgistorage@@YA_NAAPADAAPBDPAXH@Z 1002d060 f   cgipro_normal.obj
 0001:0002c320       ?Analvze_Detect@cgievent@@YA_NPADPAXH1H0AAH@Z 1002d320 f   cgipro_normal.obj
 0001:0002c830       ?Build_SetDetect@cgievent@@YA_NAAPADAAPBDPAXH2H@Z 1002d830 f   cgipro_normal.obj
 0001:0002cdc0       ?Analvze_ShieldAlarm@cgievent@@YA_NPADPAXH1H0AAH@Z 1002ddc0 f   cgipro_normal.obj
 0001:0002d2f0       ?Build_SetShieldAlarm@cgievent@@YA_NAAPADAAPBDPAXH2H@Z 1002e2f0 f   cgipro_normal.obj
 0001:0002d880       ?Analvze_WarningLine@cgievent@@YA_NPADPAXH@Z 1002e880 f   cgipro_normal.obj
 0001:0002de90       ?Build_SetWarningLine@cgievent@@YA_NAAPADAAPBDPAXH@Z 1002ee90 f   cgipro_normal.obj
 0001:0002e1f0       ?Analvze_AreaDetect@cgievent@@YA_NPADPAXH@Z 1002f1f0 f   cgipro_normal.obj
 0001:0002e860       ?Build_SetAreaDetect@cgievent@@YA_NAAPADAAPBDPAXHH@Z 1002f860 f   cgipro_normal.obj
 0001:0002ec10       ?Analvze_ObjectDetect@cgievent@@YA_NPADPAXH@Z 1002fc10 f   cgipro_normal.obj
 0001:0002f230       ?Build_SetObjectDetect@cgievent@@YA_NAAPADAAPBDPAXHH@Z 10030230 f   cgipro_normal.obj
 0001:0002f5d0       ?Analvze_PersonDetect@cgievent@@YA_NPADPAXH@Z 100305d0 f   cgipro_normal.obj
 0001:0002fa50       ?Build_SetPersonDetect@cgievent@@YA_NAAPADAAPBDPAXHH@Z 10030a50 f   cgipro_normal.obj
 0001:0002fdc0       ?Analvze_VirtualFocus@cgievent@@YA_NPADPAXH@Z 10030dc0 f   cgipro_normal.obj
 0001:000300c0       ?Build_SetVirtualFocus@cgievent@@YA_NAAPADAAPBDPAXH@Z 100310c0 f   cgipro_normal.obj
 0001:000304b0       ?Analvze_SightChange@cgievent@@YA_NPADPAXH@Z 100314b0 f   cgipro_normal.obj
 0001:000307c0       ?Build_SetSightChange@cgievent@@YA_NAAPADAAPBDPAXH@Z 100317c0 f   cgipro_normal.obj
 0001:00030bf0       ?Analvze_AudioExcept@cgievent@@YA_NPADPAXH@Z 10031bf0 f   cgipro_normal.obj
 0001:00030ef0       ?Build_SetAudioExcept@cgievent@@YA_NAAPADAAPBDPAXH@Z 10031ef0 f   cgipro_normal.obj
 0001:000312e0       ?Analvze_FaceDetect@cgievent@@YA_NPADPAXH@Z 100322e0 f   cgipro_normal.obj
 0001:00031420       ?Build_SetFaceDetect@cgievent@@YA_NAAPADAAPBDPAXH@Z 10032420 f   cgipro_normal.obj
 0001:00031640       ?Build_SendXml_AlarmIn@cgievent@@YA_NAAPBDPAD1@Z 10032640 f   cgipro_normal.obj
 0001:00031900       ?Analvze_AlarmIn@cgievent@@YA_NPADPAXH0AAH@Z 10032900 f   cgipro_normal.obj
 0001:00031ce0       ?Build_SetAlarmIn@cgievent@@YA_NAAPADAAPBDPAXH@Z 10032ce0 f   cgipro_normal.obj
 0001:000321e0       ?Build_SendXml_AlarmOut@cgievent@@YA_NAAPBDPAD@Z 100331e0 f   cgipro_normal.obj
 0001:000324b0       ?Analvze_AlarmOut@cgievent@@YA_NPADPAXH@Z 100334b0 f   cgipro_normal.obj
 0001:00032620       ?Build_SetAlarmOut@cgievent@@YA_NAAPADAAPBDPAXH@Z 10033620 f   cgipro_normal.obj
 0001:000328d0       ?Analvze_ExceptType@cgievent@@YA_NPADPAXH@Z 100338d0 f   cgipro_normal.obj
 0001:00032a20       ?Build_SendXml_Except@cgievent@@YA_NAAPBDPAD1@Z 10033a20 f   cgipro_normal.obj
 0001:00032ce0       ?Analvze_Except@cgievent@@YA_NPAD0PAXH0AAH@Z 10033ce0 f   cgipro_normal.obj
 0001:00032fc0       ?Build_SetExcept@cgievent@@YA_NAAPADAAPBDPAXH@Z 10033fc0 f   cgipro_normal.obj
 0001:00033400       ?Build_SetPtzMove@cgiptz@@YA_NAAPADAAPBDPAXH@Z 10034400 f   cgipro_normal.obj
 0001:000339d0       ?Build_SetPtzZoneZoom@cgiptz@@YA_NAAPADAAPBDPAXH@Z 100349d0 f   cgipro_normal.obj
 0001:00033cc0       ?Build_SetPtzGotoPoint@cgiptz@@YA_NAAPADAAPBDPAXH@Z 10034cc0 f   cgipro_normal.obj
 0001:00033f90       ?Build_SetPtzWiper@cgiptz@@YA_NAAPADAAPBDPAXH@Z 10034f90 f   cgipro_normal.obj
 0001:00034260       ?Build_SetPtzRefactory@cgiptz@@YA_NAAPADAAPBDPAXH@Z 10035260 f   cgipro_normal.obj
 0001:00034510       ?Analvze_PtzBase@cgiptz@@YA_NPADPAXH@Z 10035510 f   cgipro_normal.obj
 0001:00034690       ?Build_SetPtzBase@cgiptz@@YA_NAAPADAAPBDPAXH@Z 10035690 f   cgipro_normal.obj
 0001:00034940       ?Analvze_PtzMainTain@cgiptz@@YA_NPADPAXH@Z 10035940 f   cgipro_normal.obj
 0001:00034ac0       ?Build_SetPtzMainTain@cgiptz@@YA_NAAPADAAPBDPAXH@Z 10035ac0 f   cgipro_normal.obj
 0001:00034d70       ?Analvze_PtzWatchOn@cgiptz@@YA_NPADPAXH0AAH@Z 10035d70 f   cgipro_normal.obj
 0001:00034f70       ?Build_SetPtzWatchOn@cgiptz@@YA_NAAPADAAPBDPAXH@Z 10035f70 f   cgipro_normal.obj
 0001:00035420       ?Build_SendXml_PtzPreset@cgiptz@@YA_NAAPBDEPAD@Z 10036420 f   cgipro_normal.obj
 0001:00035480       ?Analvze_PtzPreset@cgiptz@@YA_NPADEPAXH@Z 10036480 f   cgipro_normal.obj
 0001:00035600       ?Build_SetPtzPreset@cgiptz@@YA_NAAPADAAPBDPAXH@Z 10036600 f   cgipro_normal.obj
 0001:00035910       ?Analvze_PtzLimit@cgiptz@@YA_NPADPAXH@Z 10036910 f   cgipro_normal.obj
 0001:00035a70       ?Build_SetPtzLimit@cgiptz@@YA_NAAPADAAPBDPAXH@Z 10036a70 f   cgipro_normal.obj
 0001:00035dc0       ?Build_SendXml_PtzPathCruise@cgiptz@@YA_NAAPBDEPAD@Z 10036dc0 f   cgipro_normal.obj
 0001:00035e20       ?Analvze_PtzPathCruise@cgiptz@@YA_NPADEPAXAAH@Z 10036e20 f   cgipro_normal.obj
 0001:00036010       ?Build_SetPtzPathCruise@cgiptz@@YA_NAAPADAAPBDEPAXH@Z 10037010 f   cgipro_normal.obj
 0001:00036420       ?Build_SetPtzPathCruiseEvent@cgiptz@@YA_NAAPADAAPBDPAXH@Z 10037420 f   cgipro_normal.obj
 0001:000366e0       ?Analvze_TimeTask@cgiptz@@YA_NPADPAXH1HH0AAH@Z 100376e0 f   cgipro_normal.obj
 0001:00036a20       ?Build_SetTimeTask@cgiptz@@YA_NAAPADAAPBDPAXH2HH@Z 10037a20 f   cgipro_normal.obj
 0001:00036d50       ?Analvze_PtzCoorDinate@cgiptz@@YA_NPADPAXH0AAH@Z 10037d50 f   cgipro_normal.obj
 0001:00036f90       ?Build_SetPtzCoorDinateEvt@cgiptz@@YA_NAAPADAAPBDPAXH@Z 10037f90 f   cgipro_normal.obj
 0001:00037550       ?Analvze_PtzRatio@cgiptz@@YA_NPADPAXH@Z 10038550 f   cgipro_normal.obj
 0001:000376f0       ?Build_SetPtzRatio@cgiptz@@YA_NAAPADAAPBDPAXH@Z 100386f0 f   cgipro_normal.obj
 0001:00037a00       ?Analvze_PtzPatterns@cgiptz@@YA_NPADPAXAAH@Z 10038a00 f   cgipro_normal.obj
 0001:00037bc0       ?Build_SetPtzPatternEvt@cgiptz@@YA_NAAPADAAPBDPAXH@Z 10038bc0 f   cgipro_normal.obj
 0001:000382d0       ?first_node@?$xml_node@D@rapidxml@@QBEPAV12@PBDI_N@Z 100392d0 f i cgipro_normal.obj
 0001:00038350       ?last_node@?$xml_node@D@rapidxml@@QBEPAV12@PBDI_N@Z 10039350 f i cgipro_normal.obj
 0001:000383c0       ?next_sibling@?$xml_node@D@rapidxml@@QBEPAV12@PBDI_N@Z 100393c0 f i cgipro_normal.obj
 0001:00038430       ?first_attribute@?$xml_node@D@rapidxml@@QBEPAV?$xml_attribute@D@2@PBDI_N@Z 10039430 f i cgipro_normal.obj
 0001:000384a0       ?append_node@?$xml_node@D@rapidxml@@QAEXPAV12@@Z 100394a0 f i cgipro_normal.obj
 0001:000384d0       ?append_attribute@?$xml_node@D@rapidxml@@QAEXPAV?$xml_attribute@D@2@@Z 100394d0 f i cgipro_normal.obj
 0001:00038500       ??0?$xml_document@D@rapidxml@@QAE@XZ 10039500 f i cgipro_normal.obj
 0001:00038540       ?allocate_node@?$memory_pool@D@rapidxml@@QAEPAV?$xml_node@D@2@W4node_type@2@PBD1II@Z 10039540 f i cgipro_normal.obj
 0001:00038600       ?allocate_attribute@?$memory_pool@D@rapidxml@@QAEPAV?$xml_attribute@D@2@PBD0II@Z 10039600 f i cgipro_normal.obj
 0001:000386c0       ?allocate_string@?$memory_pool@D@rapidxml@@QAEPADPBDI@Z 100396c0 f i cgipro_normal.obj
 0001:00038710       ?clear@?$memory_pool@D@rapidxml@@QAEXXZ 10039710 f i cgipro_normal.obj
 0001:00038770       ?allocate_aligned@?$memory_pool@D@rapidxml@@AAEPAXI@Z 10039770 f i cgipro_normal.obj
 0001:000387e0       ??$parse@$0A@@?$xml_document@D@rapidxml@@QAEXPAD@Z 100397e0 f i cgipro_normal.obj
 0001:000388e0       ??0parse_error@rapidxml@@QAE@ABV01@@Z 100398e0 f i cgipro_normal.obj
 0001:00038910       ??$parse_node@$0A@@?$xml_document@D@rapidxml@@AAEPAV?$xml_node@D@1@AAPAD@Z 10039910 f i cgipro_normal.obj
 0001:00038aa0       ??$print_node@V?$back_insert_iterator@V?$basic_string@DU?$char_traits@D@std@@V?$allocator@D@2@@std@@@std@@D@internal@rapidxml@@YA?AV?$back_insert_iterator@V?$basic_string@DU?$char_traits@D@std@@V?$allocator@D@2@@std@@@std@@V23@PBV?$xml_node@D@1@HH@Z 10039aa0 f i cgipro_normal.obj
 0001:00038c10       ??$parse_element@$0A@@?$xml_document@D@rapidxml@@AAEPAV?$xml_node@D@1@AAPAD@Z 10039c10 f i cgipro_normal.obj
 0001:00038de0       ??$parse_xml_declaration@$0A@@?$xml_document@D@rapidxml@@AAEPAV?$xml_node@D@1@AAPAD@Z 10039de0 f i cgipro_normal.obj
 0001:00038de0       ??$parse_pi@$0A@@?$xml_document@D@rapidxml@@AAEPAV?$xml_node@D@1@AAPAD@Z 10039de0 f i cgipro_normal.obj
 0001:00038e40       ??$parse_comment@$0A@@?$xml_document@D@rapidxml@@AAEPAV?$xml_node@D@1@AAPAD@Z 10039e40 f i cgipro_normal.obj
 0001:00038ea0       ??$parse_cdata@$0A@@?$xml_document@D@rapidxml@@AAEPAV?$xml_node@D@1@AAPAD@Z 10039ea0 f i cgipro_normal.obj
 0001:00038f30       ??$parse_doctype@$0A@@?$xml_document@D@rapidxml@@AAEPAV?$xml_node@D@1@AAPAD@Z 10039f30 f i cgipro_normal.obj
 0001:00038ff0       ??$print_children@V?$back_insert_iterator@V?$basic_string@DU?$char_traits@D@std@@V?$allocator@D@2@@std@@@std@@D@internal@rapidxml@@YA?AV?$back_insert_iterator@V?$basic_string@DU?$char_traits@D@std@@V?$allocator@D@2@@std@@@std@@V23@PBV?$xml_node@D@1@HH@Z 10039ff0 f i cgipro_normal.obj
 0001:00039040       ??$print_element_node@V?$back_insert_iterator@V?$basic_string@DU?$char_traits@D@std@@V?$allocator@D@2@@std@@@std@@D@internal@rapidxml@@YA?AV?$back_insert_iterator@V?$basic_string@DU?$char_traits@D@std@@V?$allocator@D@2@@std@@@std@@V23@PBV?$xml_node@D@1@HH@Z 1003a040 f i cgipro_normal.obj
 0001:00039250       ??$print_data_node@V?$back_insert_iterator@V?$basic_string@DU?$char_traits@D@std@@V?$allocator@D@2@@std@@@std@@D@internal@rapidxml@@YA?AV?$back_insert_iterator@V?$basic_string@DU?$char_traits@D@std@@V?$allocator@D@2@@std@@@std@@V23@PBV?$xml_node@D@1@HH@Z 1003a250 f i cgipro_normal.obj
 0001:000392c0       ??$print_cdata_node@V?$back_insert_iterator@V?$basic_string@DU?$char_traits@D@std@@V?$allocator@D@2@@std@@@std@@D@internal@rapidxml@@YA?AV?$back_insert_iterator@V?$basic_string@DU?$char_traits@D@std@@V?$allocator@D@2@@std@@@std@@V23@PBV?$xml_node@D@1@HH@Z 1003a2c0 f i cgipro_normal.obj
 0001:000393d0       ??$print_declaration_node@V?$back_insert_iterator@V?$basic_string@DU?$char_traits@D@std@@V?$allocator@D@2@@std@@@std@@D@internal@rapidxml@@YA?AV?$back_insert_iterator@V?$basic_string@DU?$char_traits@D@std@@V?$allocator@D@2@@std@@@std@@V23@PBV?$xml_node@D@1@HH@Z 1003a3d0 f i cgipro_normal.obj
 0001:00039470       ??$print_comment_node@V?$back_insert_iterator@V?$basic_string@DU?$char_traits@D@std@@V?$allocator@D@2@@std@@@std@@D@internal@rapidxml@@YA?AV?$back_insert_iterator@V?$basic_string@DU?$char_traits@D@std@@V?$allocator@D@2@@std@@@std@@V23@PBV?$xml_node@D@1@HH@Z 1003a470 f i cgipro_normal.obj
 0001:00039540       ??$print_doctype_node@V?$back_insert_iterator@V?$basic_string@DU?$char_traits@D@std@@V?$allocator@D@2@@std@@@std@@D@internal@rapidxml@@YA?AV?$back_insert_iterator@V?$basic_string@DU?$char_traits@D@std@@V?$allocator@D@2@@std@@@std@@V23@PBV?$xml_node@D@1@HH@Z 1003a540 f i cgipro_normal.obj
 0001:00039640       ??$print_pi_node@V?$back_insert_iterator@V?$basic_string@DU?$char_traits@D@std@@V?$allocator@D@2@@std@@@std@@D@internal@rapidxml@@YA?AV?$back_insert_iterator@V?$basic_string@DU?$char_traits@D@std@@V?$allocator@D@2@@std@@@std@@V23@PBV?$xml_node@D@1@HH@Z 1003a640 f i cgipro_normal.obj
 0001:00039740       ??$parse_node_attributes@$0A@@?$xml_document@D@rapidxml@@AAEXAAPADPAV?$xml_node@D@1@@Z 1003a740 f i cgipro_normal.obj
 0001:000399e0       ??$parse_node_contents@$0A@@?$xml_document@D@rapidxml@@AAEXAAPADPAV?$xml_node@D@1@@Z 1003a9e0 f i cgipro_normal.obj
 0001:00039b20       ??$fill_chars@V?$back_insert_iterator@V?$basic_string@DU?$char_traits@D@std@@V?$allocator@D@2@@std@@@std@@D@internal@rapidxml@@YA?AV?$back_insert_iterator@V?$basic_string@DU?$char_traits@D@std@@V?$allocator@D@2@@std@@@std@@V23@HD@Z 1003ab20 f i cgipro_normal.obj
 0001:00039b60       ??$print_attributes@V?$back_insert_iterator@V?$basic_string@DU?$char_traits@D@std@@V?$allocator@D@2@@std@@@std@@D@internal@rapidxml@@YA?AV?$back_insert_iterator@V?$basic_string@DU?$char_traits@D@std@@V?$allocator@D@2@@std@@@std@@V23@PBV?$xml_node@D@1@H@Z 1003ab60 f i cgipro_normal.obj
 0001:00039cf0       ??$copy_and_expand_chars@V?$back_insert_iterator@V?$basic_string@DU?$char_traits@D@std@@V?$allocator@D@2@@std@@@std@@D@internal@rapidxml@@YA?AV?$back_insert_iterator@V?$basic_string@DU?$char_traits@D@std@@V?$allocator@D@2@@std@@@std@@PBD0DV23@@Z 1003acf0 f i cgipro_normal.obj
 0001:00039da0       ??$skip_and_expand_character_refs@U?$attribute_value_pred@$0CH@@?$xml_document@D@rapidxml@@U?$attribute_value_pure_pred@$0CH@@23@$0A@@?$xml_document@D@rapidxml@@CAPADAAPAD@Z 1003ada0 f i cgipro_normal.obj
 0001:00039ff0       ??$skip_and_expand_character_refs@U?$attribute_value_pred@$0CC@@?$xml_document@D@rapidxml@@U?$attribute_value_pure_pred@$0CC@@23@$0A@@?$xml_document@D@rapidxml@@CAPADAAPAD@Z 1003aff0 f i cgipro_normal.obj
 0001:0003a240       ??$parse_and_append_data@$0A@@?$xml_document@D@rapidxml@@AAEDPAV?$xml_node@D@1@AAPADPAD@Z 1003b240 f i cgipro_normal.obj
 0001:0003a330       ??$insert_coded_character@$0A@@?$xml_document@D@rapidxml@@CAXAAPADK@Z 1003b330 f i cgipro_normal.obj
 0001:0003a400       ??$skip_and_expand_character_refs@Utext_pred@?$xml_document@D@rapidxml@@Utext_pure_no_ws_pred@23@$0A@@?$xml_document@D@rapidxml@@CAPADAAPAD@Z 1003b400 f i cgipro_normal.obj
 0001:0003a660       ??1CConnectMgr@@QAE@XZ     1003b660 f   connectmgr.obj
 0001:0003a6f0       ?dectect@@YA_NKG@Z         1003b6f0 f   connectmgr.obj
 0001:0003a930       ?ProDetect@@YGIPAX@Z       1003b930 f   connectmgr.obj
 0001:0003ab10       ?_AddConnect@CConnectMgr@@QAE_NPAX0P6GXKGKKKK0@ZKKPAK@Z 1003bb10 f   connectmgr.obj
 0001:0003ac90       ?_DeleteConnect@CConnectMgr@@QAE_NPAXPAK@Z 1003bc90 f   connectmgr.obj
 0001:0003ae00       ?SetConnectInfo@CConnectMgr@@QAEXK_N@Z 1003be00 f   connectmgr.obj
 0001:0003b050       ?_IsConnect@CConnectMgr@@QAE_NKAA_NPAK@Z 1003c050 f   connectmgr.obj
 0001:0003b170       ?InitConnectMgr@CConnectMgr@@SA_NXZ 1003c170 f   connectmgr.obj
 0001:0003b220       ?ReleaseConnectMgr@CConnectMgr@@SA_NXZ 1003c220 f   connectmgr.obj
 0001:0003b290       ??A?$map@KUtagConnectInfo@@U?$less@K@std@@V?$allocator@U?$pair@$$CBKUtagConnectInfo@@@std@@@3@@std@@QAEAAUtagConnectInfo@@ABK@Z 1003c290 f i connectmgr.obj
 0001:0003b390       ?erase@?$_Tree@V?$_Tmap_traits@KUtagConnectInfo@@U?$less@K@std@@V?$allocator@U?$pair@$$CBKUtagConnectInfo@@@std@@@3@$0A@@std@@@std@@QAE?AViterator@12@Vconst_iterator@12@@Z 1003c390 f i connectmgr.obj
 0001:0003b650       ?find@?$_Tree@V?$_Tmap_traits@KUtagConnectInfo@@U?$less@K@std@@V?$allocator@U?$pair@$$CBKUtagConnectInfo@@@std@@@3@$0A@@std@@@std@@QAE?AViterator@12@ABK@Z 1003c650 f i connectmgr.obj
 0001:0003b6e0       ??0?$_Tree@V?$_Tmap_traits@KUtagConnectInfo@@U?$less@K@std@@V?$allocator@U?$pair@$$CBKUtagConnectInfo@@@std@@@3@$0A@@std@@@std@@QAE@ABU?$less@K@1@ABV?$allocator@U?$pair@$$CBKUtagConnectInfo@@@std@@@1@@Z 1003c6e0 f i connectmgr.obj
 0001:0003b760       ?insert@?$_Tree@V?$_Tmap_traits@KUtagConnectInfo@@U?$less@K@std@@V?$allocator@U?$pair@$$CBKUtagConnectInfo@@@std@@@3@$0A@@std@@@std@@QAE?AViterator@12@Vconst_iterator@12@ABU?$pair@$$CBKUtagConnectInfo@@@2@@Z 1003c760 f i connectmgr.obj
 0001:0003b940       ?_Erase@?$_Tree@V?$_Tmap_traits@KUtagConnectInfo@@U?$less@K@std@@V?$allocator@U?$pair@$$CBKUtagConnectInfo@@@std@@@3@$0A@@std@@@std@@IAEXPAU_Node@?$_Tree_nod@V?$_Tmap_traits@KUtagConnectInfo@@U?$less@K@std@@V?$allocator@U?$pair@$$CBKUtagConnectInfo@@@std@@@3@$0A@@std@@@2@@Z 1003c940 f i connectmgr.obj
 0001:0003b980       ?_Lrotate@?$_Tree@V?$_Tmap_traits@KUtagConnectInfo@@U?$less@K@std@@V?$allocator@U?$pair@$$CBKUtagConnectInfo@@@std@@@3@$0A@@std@@@std@@IAEXPAU_Node@?$_Tree_nod@V?$_Tmap_traits@KUtagConnectInfo@@U?$less@K@std@@V?$allocator@U?$pair@$$CBKUtagConnectInfo@@@std@@@3@$0A@@std@@@2@@Z 1003c980 f i connectmgr.obj
 0001:0003b9d0       ?_Max@?$_Tree@V?$_Tmap_traits@KUtagConnectInfo@@U?$less@K@std@@V?$allocator@U?$pair@$$CBKUtagConnectInfo@@@std@@@3@$0A@@std@@@std@@KAPAU_Node@?$_Tree_nod@V?$_Tmap_traits@KUtagConnectInfo@@U?$less@K@std@@V?$allocator@U?$pair@$$CBKUtagConnectInfo@@@std@@@3@$0A@@std@@@2@PAU342@@Z 1003c9d0 f i connectmgr.obj
 0001:0003b9f0       ?_Rrotate@?$_Tree@V?$_Tmap_traits@KUtagConnectInfo@@U?$less@K@std@@V?$allocator@U?$pair@$$CBKUtagConnectInfo@@@std@@@3@$0A@@std@@@std@@IAEXPAU_Node@?$_Tree_nod@V?$_Tmap_traits@KUtagConnectInfo@@U?$less@K@std@@V?$allocator@U?$pair@$$CBKUtagConnectInfo@@@std@@@3@$0A@@std@@@2@@Z 1003c9f0 f i connectmgr.obj
 0001:0003ba40       ?_Tidy@?$_Tree@V?$_Tmap_traits@KUtagConnectInfo@@U?$less@K@std@@V?$allocator@U?$pair@$$CBKUtagConnectInfo@@@std@@@3@$0A@@std@@@std@@IAEXXZ 1003ca40 f i connectmgr.obj
 0001:0003ba80       ?insert@?$_Tree@V?$_Tmap_traits@KUtagConnectInfo@@U?$less@K@std@@V?$allocator@U?$pair@$$CBKUtagConnectInfo@@@std@@@3@$0A@@std@@@std@@QAE?AU?$pair@Viterator@?$_Tree@V?$_Tmap_traits@KUtagConnectInfo@@U?$less@K@std@@V?$allocator@U?$pair@$$CBKUtagConnectInfo@@@std@@@3@$0A@@std@@@std@@_N@2@ABU?$pair@$$CBKUtagConnectInfo@@@2@@Z 1003ca80 f i connectmgr.obj
 0001:0003bb80       ?erase@?$_Tree@V?$_Tmap_traits@KUtagConnectInfo@@U?$less@K@std@@V?$allocator@U?$pair@$$CBKUtagConnectInfo@@@std@@@3@$0A@@std@@@std@@QAE?AViterator@12@Vconst_iterator@12@0@Z 1003cb80 f i connectmgr.obj
 0001:0003bc60       ?_Insert@?$_Tree@V?$_Tmap_traits@KUtagConnectInfo@@U?$less@K@std@@V?$allocator@U?$pair@$$CBKUtagConnectInfo@@@std@@@3@$0A@@std@@@std@@IAE?AViterator@12@_NPAU_Node@?$_Tree_nod@V?$_Tmap_traits@KUtagConnectInfo@@U?$less@K@std@@V?$allocator@U?$pair@$$CBKUtagConnectInfo@@@std@@@3@$0A@@std@@@2@ABU?$pair@$$CBKUtagConnectInfo@@@2@@Z 1003cc60 f i connectmgr.obj
 0001:0003be90       ?_Inc@const_iterator@?$_Tree@V?$_Tmap_traits@KUtagConnectInfo@@U?$less@K@std@@V?$allocator@U?$pair@$$CBKUtagConnectInfo@@@std@@@3@$0A@@std@@@std@@QAEXXZ 1003ce90 f i connectmgr.obj
 0001:0003bf00       ?_Buynode@?$_Tree@V?$_Tmap_traits@KUtagConnectInfo@@U?$less@K@std@@V?$allocator@U?$pair@$$CBKUtagConnectInfo@@@std@@@3@$0A@@std@@@std@@IAEPAU_Node@?$_Tree_nod@V?$_Tmap_traits@KUtagConnectInfo@@U?$less@K@std@@V?$allocator@U?$pair@$$CBKUtagConnectInfo@@@std@@@3@$0A@@std@@@2@XZ 1003cf00 f i connectmgr.obj
 0001:0003bf40       ?_Buynode@?$_Tree@V?$_Tmap_traits@KUtagConnectInfo@@U?$less@K@std@@V?$allocator@U?$pair@$$CBKUtagConnectInfo@@@std@@@3@$0A@@std@@@std@@IAEPAU_Node@?$_Tree_nod@V?$_Tmap_traits@KUtagConnectInfo@@U?$less@K@std@@V?$allocator@U?$pair@$$CBKUtagConnectInfo@@@std@@@3@$0A@@std@@@2@PAU342@00ABU?$pair@$$CBKUtagConnectInfo@@@2@D@Z 1003cf40 f i connectmgr.obj
 0001:0003bf80       ?_Dec@const_iterator@?$_Tree@V?$_Tmap_traits@KUtagConnectInfo@@U?$less@K@std@@V?$allocator@U?$pair@$$CBKUtagConnectInfo@@@std@@@3@$0A@@std@@@std@@QAEXXZ 1003cf80 f i connectmgr.obj
 0001:0003c010       ??0?$list@V?$basic_string@DU?$char_traits@D@std@@V?$allocator@D@2@@std@@V?$allocator@V?$basic_string@DU?$char_traits@D@std@@V?$allocator@D@2@@std@@@2@@std@@QAE@XZ 1003d010 f i exceptionsdk.obj
 0001:0003c080       ??1?$list@V?$basic_string@DU?$char_traits@D@std@@V?$allocator@D@2@@std@@V?$allocator@V?$basic_string@DU?$char_traits@D@std@@V?$allocator@D@2@@std@@@2@@std@@QAE@XZ 1003d080 f i exceptionsdk.obj
 0001:0003c0f0       ??1?$_List_val@V?$basic_string@DU?$char_traits@D@std@@V?$allocator@D@2@@std@@V?$allocator@V?$basic_string@DU?$char_traits@D@std@@V?$allocator@D@2@@std@@@2@@std@@QAE@XZ 1003d0f0 f i exceptionsdk.obj
 0001:0003c100       ?_Buynode@?$list@V?$basic_string@DU?$char_traits@D@std@@V?$allocator@D@2@@std@@V?$allocator@V?$basic_string@DU?$char_traits@D@std@@V?$allocator@D@2@@std@@@2@@std@@IAEPAU_Node@?$_List_nod@V?$basic_string@DU?$char_traits@D@std@@V?$allocator@D@2@@std@@V?$allocator@V?$basic_string@DU?$char_traits@D@std@@V?$allocator@D@2@@std@@@2@@2@XZ 1003d100 f i exceptionsdk.obj
 0001:0003c120       ?clear@?$list@V?$basic_string@DU?$char_traits@D@std@@V?$allocator@D@2@@std@@V?$allocator@V?$basic_string@DU?$char_traits@D@std@@V?$allocator@D@2@@std@@@2@@std@@QAEXXZ 1003d120 f i exceptionsdk.obj
 0001:0003c170       ??$_Allocate@U_Node@?$_List_nod@V?$basic_string@DU?$char_traits@D@std@@V?$allocator@D@2@@std@@V?$allocator@V?$basic_string@DU?$char_traits@D@std@@V?$allocator@D@2@@std@@@2@@std@@@std@@YAPAU_Node@?$_List_nod@V?$basic_string@DU?$char_traits@D@std@@V?$allocator@D@2@@std@@V?$allocator@V?$basic_string@DU?$char_traits@D@std@@V?$allocator@D@2@@std@@@2@@0@IPAU120@@Z 1003d170 f i exceptionsdk.obj
 0001:0003c1c0       ??0CHttpPro@@QAE@HH@Z      1003d1c0 f   httppro.obj
 0001:0003c1f0       ??1CHttpPro@@QAE@XZ        1003d1f0 f   httppro.obj
 0001:0003c210       ?InitSocket@CHttpPro@@IAE_NXZ 1003d210 f   httppro.obj
 0001:0003c260       ?Init@CHttpPro@@SA_NXZ     1003d260 f   httppro.obj
 0001:0003c2d0       ?ConnectServer@CHttpPro@@QAE_NKGK@Z 1003d2d0 f   httppro.obj
 0001:0003c450       ?Post@CHttpPro@@QAE_NKGPBDHPADH_NK@Z 1003d450 f   httppro.obj
 0001:0003c730       ?Get@CHttpPro@@QAE_NKGPAD0H_NK@Z 1003d730 f   httppro.obj
 0001:0003c9c0       ?Form@CHttpPro@@QAE_NKGPBDHPAD_NK@Z 1003d9c0 f   httppro.obj
 0001:0003cd00       ?GetImage@CHttpPro@@QAE_NKGPAD0PBDH_NK@Z 1003dd00 f   httppro.obj
 0001:0003d0a0       ?Init@CInterfaceNormal@@SAKH@Z 1003e0a0 f   interfacenormal.obj
 0001:0003d0f0       ?Release@CInterfaceNormal@@SAKXZ 1003e0f0 f   interfacenormal.obj
 0001:0003d140       ?IPC_GetEventTime@CInterfaceNormal@@SAHPAXPAD10HH1AAHPAK@Z 1003e140 f   interfacenormal.obj
 0001:0003d1b0       ?IPC_GetGB28181@CInterfaceNormal@@SAHPAXPAD0H0AAH02QADHPAK@Z 1003e1b0 f   interfacenormal.obj
 0001:0003d220       _IPC_InitDll               1003e220 f   ipcsdk.obj
 0001:0003d350       _IPC_ReleaseDll            1003e350 f   ipcsdk.obj
 0001:0003d430       _IPC_Login                 1003e430 f   ipcsdk.obj
 0001:0003d470       _IPC_Logout                1003e470 f   ipcsdk.obj
 0001:0003d4a0       _IPC_CreateHandle          1003e4a0 f   ipcsdk.obj
 0001:0003d4d0       _IPC_GetInfoFromHandle     1003e4d0 f   ipcsdk.obj
 0001:0003d4f0       _IPC_DestroyHandle         1003e4f0 f   ipcsdk.obj
 0001:0003d510       _IPC_IsConnect             1003e510 f   ipcsdk.obj
 0001:0003d540       _IPC_GetVersion            1003e540 f   ipcsdk.obj
 0001:0003d590       _IPC_GetCap                1003e590 f   ipcsdk.obj
 0001:0003d5f0       _IPC_AddConnectDetect      1003e5f0 f   ipcsdk.obj
 0001:0003d620       _IPC_DelConnectDetect      1003e620 f   ipcsdk.obj
 0001:0003d640       _IPC_GetEventTime          1003e640 f   ipcsdk.obj
 0001:0003d680       _IPC_SetEventTime          1003e680 f   ipcsdk.obj
 0001:0003d6e0       _IPC_SendTransData         1003e6e0 f   ipcsdk.obj
 0001:0003d740       _IPC_GetNetPort            1003e740 f   ipcsdk.obj
 0001:0003d790       _IPC_SetNetPort            1003e790 f   ipcsdk.obj
 0001:0003d7e0       _IPC_GetIpInfo             1003e7e0 f   ipcsdk.obj
 0001:0003d830       _IPC_SetIpInfo             1003e830 f   ipcsdk.obj
 0001:0003d880       _IPC_GetWlanInfo           1003e880 f   ipcsdk.obj
 0001:0003d8d0       _IPC_SetWlanInfo           1003e8d0 f   ipcsdk.obj
 0001:0003d920       _IPC_GetDdns               1003e920 f   ipcsdk.obj
 0001:0003d970       _IPC_SetDdns               1003e970 f   ipcsdk.obj
 0001:0003d9c0       _IPC_GetDdnsState          1003e9c0 f   ipcsdk.obj
 0001:0003da10       _IPC_GetPPPoE              1003ea10 f   ipcsdk.obj
 0001:0003da60       _IPC_SetPPPoE              1003ea60 f   ipcsdk.obj
 0001:0003dab0       _IPC_GetQos                1003eab0 f   ipcsdk.obj
 0001:0003db00       _IPC_SetQos                1003eb00 f   ipcsdk.obj
 0001:0003db50       _IPC_GetKSnmp              1003eb50 f   ipcsdk.obj
 0001:0003dba0       _IPC_SetKSnmp              1003eba0 f   ipcsdk.obj
 0001:0003dbf0       _IPC_Get8021x              1003ebf0 f   ipcsdk.obj
 0001:0003dc40       _IPC_Set8021x              1003ec40 f   ipcsdk.obj
 0001:0003dc90       _IPC_GetUPnP               1003ec90 f   ipcsdk.obj
 0001:0003dcf0       _IPC_SetUPnP               1003ecf0 f   ipcsdk.obj
 0001:0003dd50       _IPC_GetVsip               1003ed50 f   ipcsdk.obj
 0001:0003dda0       _IPC_SetVsip               1003eda0 f   ipcsdk.obj
 0001:0003ddf0       _IPC_GetOnvif              1003edf0 f   ipcsdk.obj
 0001:0003de40       _IPC_SetOnvif              1003ee40 f   ipcsdk.obj
 0001:0003de90       _IPC_GetDpss               1003ee90 f   ipcsdk.obj
 0001:0003dee0       _IPC_SetDpss               1003eee0 f   ipcsdk.obj
 0001:0003df30       _IPC_GetAuthMode           1003ef30 f   ipcsdk.obj
 0001:0003df80       _IPC_SetAuthMode           1003ef80 f   ipcsdk.obj
 0001:0003dfd0       _IPC_GetGB28181            1003efd0 f   ipcsdk.obj
 0001:0003e010       _IPC_SetGB28181            1003f010 f   ipcsdk.obj
 0001:0003e080       _IPC_GetStorageState       1003f080 f   ipcsdk.obj
 0001:0003e0e0       _IPC_GetStorageNum         1003f0e0 f   ipcsdk.obj
 0001:0003e130       _IPC_GetStorageMgr         1003f130 f   ipcsdk.obj
 0001:0003e190       _IPC_SetStorageMgr         1003f190 f   ipcsdk.obj
 0001:0003e1e0       _IPC_DiskFomat             1003f1e0 f   ipcsdk.obj
 0001:0003e230       _IPC_GetFomatProgress      1003f230 f   ipcsdk.obj
 0001:0003e290       _IPC_GetRecSchedule        1003f290 f   ipcsdk.obj
 0001:0003e2f0       _IPC_SetRecSchedule        1003f2f0 f   ipcsdk.obj
 0001:0003e340       _IPC_GetSnapPicCfg         1003f340 f   ipcsdk.obj
 0001:0003e3a0       _IPC_SetSnapPicCfg         1003f3a0 f   ipcsdk.obj
 0001:0003e3f0       _IPC_GetSnapTime           1003f3f0 f   ipcsdk.obj
 0001:0003e440       _IPC_SetSnapTime           1003f440 f   ipcsdk.obj
 0001:0003e490       _IPC_GetSnapEvent          1003f490 f   ipcsdk.obj
 0001:0003e4e0       _IPC_SetSnapEvent          1003f4e0 f   ipcsdk.obj
 0001:0003e530       _IPC_GetDetect             1003f530 f   ipcsdk.obj
 0001:0003e5a0       _IPC_SetDetect             1003f5a0 f   ipcsdk.obj
 0001:0003e600       _IPC_GetShieldAlarm        1003f600 f   ipcsdk.obj
 0001:0003e670       _IPC_SetShieldAlarm        1003f670 f   ipcsdk.obj
 0001:0003e6d0       _IPC_GetWarningLine        1003f6d0 f   ipcsdk.obj
 0001:0003e730       _IPC_SetWarningLine        1003f730 f   ipcsdk.obj
 0001:0003e780       _IPC_GetAreaDetectEnter    1003f780 f   ipcsdk.obj
 0001:0003e7e0       _IPC_SetAreaDetectEnter    1003f7e0 f   ipcsdk.obj
 0001:0003e830       _IPC_GetAreaDetectEntry    1003f830 f   ipcsdk.obj
 0001:0003e890       _IPC_SetAreaDetectEntry    1003f890 f   ipcsdk.obj
 0001:0003e8e0       _IPC_GetAreaDetectExit     1003f8e0 f   ipcsdk.obj
 0001:0003e940       _IPC_SetAreaDetectExit     1003f940 f   ipcsdk.obj
 0001:0003e990       _IPC_GetObjectLeft         1003f990 f   ipcsdk.obj
 0001:0003e9f0       _IPC_SetObjectLeft         1003f9f0 f   ipcsdk.obj
 0001:0003ea40       _IPC_GetObjectRemoval      1003fa40 f   ipcsdk.obj
 0001:0003eaa0       _IPC_SetObjectRemoval      1003faa0 f   ipcsdk.obj
 0001:0003eaf0       _IPC_GetPersonAggregate    1003faf0 f   ipcsdk.obj
 0001:0003eb50       _IPC_SetPersonAggregate    1003fb50 f   ipcsdk.obj
 0001:0003eba0       _IPC_GetVirtualFocus       1003fba0 f   ipcsdk.obj
 0001:0003ec00       _IPC_SetVirtualFocus       1003fc00 f   ipcsdk.obj
 0001:0003ec50       _IPC_GetSightChange        1003fc50 f   ipcsdk.obj
 0001:0003ecb0       _IPC_SetSightChange        1003fcb0 f   ipcsdk.obj
 0001:0003ed00       _IPC_GetAudioExcept        1003fd00 f   ipcsdk.obj
 0001:0003ed60       _IPC_SetAudioExcept        1003fd60 f   ipcsdk.obj
 0001:0003edb0       _IPC_GetFaceDetect         1003fdb0 f   ipcsdk.obj
 0001:0003ee00       _IPC_SetFaceDetect         1003fe00 f   ipcsdk.obj
 0001:0003ee50       _IPC_GetAlarmIn            1003fe50 f   ipcsdk.obj
 0001:0003eeb0       _IPC_SetAlarmIn            1003feb0 f   ipcsdk.obj
 0001:0003ef00       _IPC_GetAlarmOut           1003ff00 f   ipcsdk.obj
 0001:0003ef60       _IPC_SetAlarmOut           1003ff60 f   ipcsdk.obj
 0001:0003efb0       _IPC_GetExceptType         1003ffb0 f   ipcsdk.obj
 0001:0003f010       _IPC_GetExcept             10040010 f   ipcsdk.obj
 0001:0003f070       _IPC_SetExcept             10040070 f   ipcsdk.obj
 0001:0003f0c0       _IPC_PtzMove               100400c0 f   ipcsdk.obj
 0001:0003f110       _IPC_PtzZoneZoom           10040110 f   ipcsdk.obj
 0001:0003f160       _IPC_PtzGotoPoint          10040160 f   ipcsdk.obj
 0001:0003f1b0       _IPC_SetPtzWiper           100401b0 f   ipcsdk.obj
 0001:0003f200       _IPC_GetPtzBase            10040200 f   ipcsdk.obj
 0001:0003f260       _IPC_SetPtzBase            10040260 f   ipcsdk.obj
 0001:0003f2b0       _IPC_GetPtzMainTain        100402b0 f   ipcsdk.obj
 0001:0003f310       _IPC_SetPtzMainTain        10040310 f   ipcsdk.obj
 0001:0003f360       _IPC_SetPtzRefactory       10040360 f   ipcsdk.obj
 0001:0003f3b0       _IPC_GetPtzWatchOn         100403b0 f   ipcsdk.obj
 0001:0003f410       _IPC_SetPtzWatchOn         10040410 f   ipcsdk.obj
 0001:0003f460       _IPC_GetPtzPreset          10040460 f   ipcsdk.obj
 0001:0003f4c0       _IPC_SetPtzPreset          100404c0 f   ipcsdk.obj
 0001:0003f510       _IPC_GetPtzLimit           10040510 f   ipcsdk.obj
 0001:0003f570       _IPC_SetPtzLimit           10040570 f   ipcsdk.obj
 0001:0003f5c0       _IPC_GetPtzPathCruise      100405c0 f   ipcsdk.obj
 0001:0003f620       _IPC_SetPtzPathCruise      10040620 f   ipcsdk.obj
 0001:0003f680       _IPC_SetPtzPathCruiseEvent 10040680 f   ipcsdk.obj
 0001:0003f6d0       _IPC_GetTimeTask           100406d0 f   ipcsdk.obj
 0001:0003f730       _IPC_SetTimeTask           10040730 f   ipcsdk.obj
 0001:0003f790       _IPC_GetPtzCoorDinate      10040790 f   ipcsdk.obj
 0001:0003f7f0       _IPC_SetPtzCoorDinateEvt   100407f0 f   ipcsdk.obj
 0001:0003f840       _IPC_GetPtzRatio           10040840 f   ipcsdk.obj
 0001:0003f8a0       _IPC_SetPtzRatio           100408a0 f   ipcsdk.obj
 0001:0003f8f0       _IPC_GetPtzPatternsInfo    100408f0 f   ipcsdk.obj
 0001:0003f940       _IPC_SetPtzPatternEvt      10040940 f   ipcsdk.obj
 0001:0003f990       _IPC_GetVideoInfo          10040990 f   ipcsdk.obj
 0001:0003f9f0       _IPC_GetRtspUrl            100409f0 f   ipcsdk.obj
 0001:0003fa50       _IPC_SendKeyFrame          10040a50 f   ipcsdk.obj
 0001:0003faa0       _IPC_StartRealPlay         10040aa0 f   ipcsdk.obj
 0001:0003fb00       _IPC_SetRtspMetaPort       10040b00 f   ipcsdk.obj
 0001:0003fb50       _IPC_RemoveRtspMetaPort    10040b50 f   ipcsdk.obj
 0001:0003fb90       _IPC_StopRealPlay          10040b90 f   ipcsdk.obj
 0001:0003fbe0       _IPC_GetVideoVolume_RTCP   10040be0 f   ipcsdk.obj
 0001:0003fc30       _IPC_SetVideoVolume_RTCP   10040c30 f   ipcsdk.obj
 0001:0003fc80       _IPC_VoiceCallState        10040c80 f   ipcsdk.obj
 0001:0003fce0       _IPC_StartVoiceCall        10040ce0 f   ipcsdk.obj
 0001:0003fd40       _IPC_StopVoiceCall         10040d40 f   ipcsdk.obj
 0001:0003fd90       _IPC_PuSnapShot            10040d90 f   ipcsdk.obj
 0001:0003fde0       _IPC_GetRecMonthInfo       10040de0 f   ipcsdk.obj
 0001:0003fe40       _IPC_GetRecordData         10040e40 f   ipcsdk.obj
 0001:0003fe90       _IPC_GetRecordNext         10040e90 f   ipcsdk.obj
 0001:0003fef0       _IPC_PreLoadRecordList     10040ef0 f   ipcsdk.obj
 0001:0003ff40       _IPC_StartRecordPlay       10040f40 f   ipcsdk.obj
 0001:0003ffa0       _IPC_StopRecordPlay        10040fa0 f   ipcsdk.obj
 0001:0003fff0       _IPC_PauseRecordPlay       10040ff0 f   ipcsdk.obj
 0001:00040040       _IPC_ResumeRecordPlay      10041040 f   ipcsdk.obj
 0001:00040090       _IPC_MoveRecordPlay        10041090 f   ipcsdk.obj
 0001:000400f0       _IPC_SetRecordPlayRate     100410f0 f   ipcsdk.obj
 0001:00040140       _IPC_Getrecplaystate       10041140 f   ipcsdk.obj
 0001:000401a0       _IPC_Setrecdownloadspeed   100411a0 f   ipcsdk.obj
 0001:000401f0       _IPC_GetMultiVideoMode     100411f0 f   ipcsdk.obj
 0001:00040250       _IPC_SetMultiVideoMode     10041250 f   ipcsdk.obj
 0001:000402a0       _IPC_GetVideoEnc           100412a0 f   ipcsdk.obj
 0001:00040310       _IPC_SetVideoEnc           10041310 f   ipcsdk.obj
 0001:00040360       _IPC_GetAudioEnc           10041360 f   ipcsdk.obj
 0001:000403c0       _IPC_SetAudioEnc           100413c0 f   ipcsdk.obj
 0001:00040410       _IPC_GetAudioDec           10041410 f   ipcsdk.obj
 0001:00040470       _IPC_SetAudioDec           10041470 f   ipcsdk.obj
 0001:000404c0       _IPC_GetVideoShield        100414c0 f   ipcsdk.obj
 0001:00040520       _IPC_SetVideoShield        10041520 f   ipcsdk.obj
 0001:00040570       _IPC_GetVideoRoi           10041570 f   ipcsdk.obj
 0001:000405d0       _IPC_SetVideoRoi           100415d0 f   ipcsdk.obj
 0001:00040620       _IPC_GetVideoEncCut        10041620 f   ipcsdk.obj
 0001:00040680       _IPC_SetVideoEncCut        10041680 f   ipcsdk.obj
 0001:000406d0       _IPC_GetOsdCap             100416d0 f   ipcsdk.obj
 0001:00040730       _IPC_GetOsd                10041730 f   ipcsdk.obj
 0001:00040790       _IPC_SetOsd                10041790 f   ipcsdk.obj
 0001:000407e0       _IPC_SetOsdList            100417e0 f   ipcsdk.obj
 0001:00040830       _IPC_GetOsdList            10041830 f   ipcsdk.obj
 0001:00040890       _IPC_GetOsdStateQuery      10041890 f   ipcsdk.obj
 0001:000408f0       _IPC_SetOsdPrepare         100418f0 f   ipcsdk.obj
 0001:00040940       _IPC_SetOsdUploadFile      10041940 f   ipcsdk.obj
 0001:00040990       _IPC_Img_Def               10041990 f   ipcsdk.obj
 0001:000409e0       _IPC_GetColor              100419e0 f   ipcsdk.obj
 0001:00040a40       _IPC_SetColor              10041a40 f   ipcsdk.obj
 0001:00040a90       _IPC_GetFocus              10041a90 f   ipcsdk.obj
 0001:00040af0       _IPC_SetFocus              10041af0 f   ipcsdk.obj
 0001:00040b40       _IPC_GetWhiteBlance        10041b40 f   ipcsdk.obj
 0001:00040ba0       _IPC_SetWhiteBlance        10041ba0 f   ipcsdk.obj
 0001:00040bf0       _IPC_GetIrcutFilter        10041bf0 f   ipcsdk.obj
 0001:00040c50       _IPC_SetIrcutFilter        10041c50 f   ipcsdk.obj
 0001:00040ca0       _IPC_GetIris               10041ca0 f   ipcsdk.obj
 0001:00040d00       _IPC_SetIris               10041d00 f   ipcsdk.obj
 0001:00040d50       _IPC_GetShutter            10041d50 f   ipcsdk.obj
 0001:00040db0       _IPC_SetShutter            10041db0 f   ipcsdk.obj
 0001:00040e00       _IPC_GetGain               10041e00 f   ipcsdk.obj
 0001:00040e60       _IPC_SetGain               10041e60 f   ipcsdk.obj
 0001:00040eb0       _IPC_GetInfrared           10041eb0 f   ipcsdk.obj
 0001:00040f10       _IPC_SetInfrared           10041f10 f   ipcsdk.obj
 0001:00040f60       _IPC_GetLaser              10041f60 f   ipcsdk.obj
 0001:00040fc0       _IPC_SetLaser              10041fc0 f   ipcsdk.obj
 0001:00041010       _IPC_GetCorridorMode       10042010 f   ipcsdk.obj
 0001:00041070       _IPC_SetCorridorMode       10042070 f   ipcsdk.obj
 0001:000410c0       _IPC_GetImageMode          100420c0 f   ipcsdk.obj
 0001:00041120       _IPC_SetImageMode          10042120 f   ipcsdk.obj
 0001:00041170       _IPC_Get2DDenoise          10042170 f   ipcsdk.obj
 0001:000411d0       _IPC_Set2DDenoise          100421d0 f   ipcsdk.obj
 0001:00041220       _IPC_Get3DDenoise          10042220 f   ipcsdk.obj
 0001:00041280       _IPC_Set3DDenoise          10042280 f   ipcsdk.obj
 0001:000412d0       _IPC_GetLocalEcho          100422d0 f   ipcsdk.obj
 0001:00041330       _IPC_SetLocalEcho          10042330 f   ipcsdk.obj
 0001:00041380       _IPC_GetPowerLineFrequency 10042380 f   ipcsdk.obj
 0001:000413e0       _IPC_SetPowerLineFrequency 100423e0 f   ipcsdk.obj
 0001:00041430       _IPC_GetWDR                10042430 f   ipcsdk.obj
 0001:00041490       _IPC_SetWDR                10042490 f   ipcsdk.obj
 0001:000414e0       _IPC_GetHLC                100424e0 f   ipcsdk.obj
 0001:00041540       _IPC_SetHLC                10042540 f   ipcsdk.obj
 0001:00041590       _IPC_GetFogThrough         10042590 f   ipcsdk.obj
 0001:000415f0       _IPC_SetFogThrough         100425f0 f   ipcsdk.obj
 0001:00041640       _IPC_GetGamma              10042640 f   ipcsdk.obj
 0001:000416a0       _IPC_SetGamma              100426a0 f   ipcsdk.obj
 0001:000416f0       _IPC_GetSmartIR            100426f0 f   ipcsdk.obj
 0001:00041750       _IPC_SetSmartIR            10042750 f   ipcsdk.obj
 0001:000417a0       _IPC_GetBLC                100427a0 f   ipcsdk.obj
 0001:00041800       _IPC_SetBLC                10042800 f   ipcsdk.obj
 0001:00041850       _IPC_GetFillLight          10042850 f   ipcsdk.obj
 0001:000418a0       _IPC_SetFillLight          100428a0 f   ipcsdk.obj
 0001:000418f0       _IPC_SetDynPluginState     100428f0 f   ipcsdk.obj
 0001:00041940       _IPC_GetDeviceInfo         10042940 f   ipcsdk.obj
 0001:00041990       _IPC_SetDeviceInfo         10042990 f   ipcsdk.obj
 0001:000419e0       _IPC_GetSystemTime         100429e0 f   ipcsdk.obj
 0001:00041a30       _IPC_SetSystemTime         10042a30 f   ipcsdk.obj
 0001:00041a80       _IPC_SetSysTimeSynChronise 10042a80 f   ipcsdk.obj
 0001:00041ad0       _IPC_SetTimeAuto           10042ad0 f   ipcsdk.obj
 0001:00041b20       _IPC_GetTimeAuto           10042b20 f   ipcsdk.obj
 0001:00041b70       _IPC_SetDST                10042b70 f   ipcsdk.obj
 0001:00041bc0       _IPC_GetDST                10042bc0 f   ipcsdk.obj
 0001:00041c10       _IPC_GetRSInfo             10042c10 f   ipcsdk.obj
 0001:00041c60       _IPC_SetRSInfo             10042c60 f   ipcsdk.obj
 0001:00041cb0       _IPC_LedFind               10042cb0 f   ipcsdk.obj
 0001:00041d00       _IPC_SystemReboot          10042d00 f   ipcsdk.obj
 0001:00041d50       _IPC_RecoverFactory        10042d50 f   ipcsdk.obj
 0001:00041da0       _IPC_UserActive            10042da0 f   ipcsdk.obj
 0001:00041df0       _IPC_ConfigUpload          10042df0 f   ipcsdk.obj
 0001:00041e40       _IPC_ConfigDownload        10042e40 f   ipcsdk.obj
 0001:00041e90       _IPC_SysUploadState        10042e90 f   ipcsdk.obj
 0001:00041ee0       _IPC_SysUpload             10042ee0 f   ipcsdk.obj
 0001:00041f30       _IPC_GetAdvanced           10042f30 f   ipcsdk.obj
 0001:00041f80       _IPC_SetAdvanced           10042f80 f   ipcsdk.obj
 0001:00041fd0       _IPC_GetUserInfo           10042fd0 f   ipcsdk.obj
 0001:00042030       _IPC_SetUserInfo           10043030 f   ipcsdk.obj
 0001:00042080       _IPC_AddUser               10043080 f   ipcsdk.obj
 0001:000420d0       _IPC_DelUser               100430d0 f   ipcsdk.obj
 0001:00042120       _IPC_UpdateUser            10043120 f   ipcsdk.obj
 0001:00042170       _IPC_GetPowerInfo          10043170 f   ipcsdk.obj
 0001:00042170       _IPC_SetPowerInfo          10043170 f   ipcsdk.obj
 0001:000421b0       _IPC_GetCompileTime        100431b0 f   ipcsdk.obj
 0001:000421e0       _IPC_AssTeleZoomInfo       100431e0 f   ipcsdk.obj
 0001:00042230       _IPC_GetAssTeleZoomInfo    10043230 f   ipcsdk.obj
 0001:00042280       _IPC_AssMalfInfo           10043280 f   ipcsdk.obj
 0001:000422d0       _IPC_GetAssMalfInfo        100432d0 f   ipcsdk.obj
 0001:00042320       _IPC_SetMTCF               10043320 f   ipcsdk.obj
 0001:00042370       _IPC_GetMTCF               10043370 f   ipcsdk.obj
 0001:000423c0       _IPC_GetBatteryStatus      100433c0 f   ipcsdk.obj
 0001:00042410       _IPC_SetSSH                10043410 f   ipcsdk.obj
 0001:00042460       _sdkver                    10043460 f   log.obj
 0001:00042490       _sdkhelp                   10043490 f   log.obj
 0001:00042570       _sdklogon                  10043570 f   log.obj
 0001:00042590       _sdklogoff                 10043590 f   log.obj
 0001:000425a0       _TraceError                100435a0 f   log.obj
 0001:000425d0       _TraceDebug                100435d0 f   log.obj
 0001:00042600       _TraceInfo                 10043600 f   log.obj
 0001:00042630       _TraceCgiInfo              10043630 f   log.obj
 0001:00042660       ?MD5Update@@YAXPAU_MD5_CTX@@PAEI@Z 10043660 f   md5.obj
 0001:00042710       ?MD5Final@@YAXQAEPAU_MD5_CTX@@@Z 10043710 f   md5.obj
 0001:00042810       ?MD5Transform@@YAXQAIQAE@Z 10043810 f   md5.obj
 0001:00042eb0       ?Decode@@YAXPAIPAEI@Z      10043eb0 f   md5.obj
 0001:00042f00       ?MD5String@CMD5@@QAEPADPAD0@Z 10043f00 f   md5.obj
 0001:00042fd0       ??0CMemeryManager@@QAE@HH@Z 10043fd0 f   memerymanager.obj
 0001:00043000       ??1CMemeryManager@@QAE@XZ  10044000 f   memerymanager.obj
 0001:000430a0       ?LockBuf@CMemeryManager@@AAEXHAAH@Z 100440a0 f   memerymanager.obj
 0001:00043140       ?GetRcvMem@CMemeryManager@@QAEPADXZ 10044140 f   memerymanager.obj
 0001:00043190       ?GetSendMem@CMemeryManager@@QAEPADXZ 10044190 f   memerymanager.obj
 0001:000431e0       ?Init@CMemeryManager@@SAEHHH@Z 100441e0 f   memerymanager.obj
 0001:000432e0       ?Release@CMemeryManager@@SAEXZ 100442e0 f   memerymanager.obj
 0001:00043370       _set_echo                  10044370 f   osnet.obj
 0001:00043370       _OsApi_SemEffectiveGive    10044370 f   ospvos.obj
 0001:00043370       _OsApi_SemEffectiveTake    10044370 f   ospvos.obj
 0001:00043380       _OsApi_GetOsVer            10044380 f   osnet.obj
 0001:00043380       _OsApi_CmdFuncEnable       10044380 f   osputil.obj
 0001:00043380       _set_speed                 10044380 f   osnet.obj
 0001:00043380       _rtsp_sock_status          10044380 f   rtsp_common.obj
 0001:00043380       ??3@YAXPAX0@Z              10044380 f   aucmanager.obj
 0001:00043380       _OsApi_TaskUnsafe          10044380 f   ospvos.obj
 0001:00043380       _OsApi_TaskSafe            10044380 f   ospvos.obj
 0001:00043380       _rtsp_media_status         10044380 f   rtsp_common.obj
 0001:00043390       _OsApi_GetEpldVer          10044390 f   osnet.obj
 0001:000433a0       _OsApi_SysReboot           100443a0 f   osnet.obj
 0001:000433b0       _OsApi_GetDeviceID         100443b0 f   osnet.obj
 0001:000433c0       _telnetInit                100443c0 f   ospteleserver.obj
 0001:00043540       _telnetEnd                 10044540 f   ospteleserver.obj
 0001:00043a30       _telSend                   10044a30 f   ospteleserver.obj
 0001:000445a0       _OsApi_TelePrint           100455a0 f   ospteleserver.obj
 0001:000446b0       _OsApi_SetPrompt           100456b0 f   ospteleserver.obj
 0001:000447d0       _ostimerstate              100457d0 f   osptimer.obj
 0001:00044820       _OsApi_TimerInit           10045820 f   osptimer.obj
 0001:00044850       _OsApi_TimerRunCount       10045850 f   osptimer.obj
 0001:000448c0       _OsApi_TimerEnd            100458c0 f   osptimer.obj
 0001:000448e0       _OsApi_TimerNew            100458e0 f   osptimer.obj
 0001:00044960       _OsApi_TimerDelete         10045960 f   osptimer.obj
 0001:00044a00       _OsApi_TimerSet            10045a00 f   osptimer.obj
 0001:00044ae0       _OsApi_TimerInfo           10045ae0 f   osptimer.obj
 0001:00044ba0       _OsApi_TimerStop           10045ba0 f   osptimer.obj
 0001:000453c0       _OsApi_PrintTimerStatus    100463c0 f   osptimer.obj
 0001:00045480       _OsApi_RegCommand          10046480 f   osputil.obj
 0001:000454f0       _FindCommand               100464f0 f   osputil.obj
 0001:000455a0       _OsApi_Init                100465a0 f   osputil.obj
 0001:00045660       _IsOsApi_Initd             10046660 f   osputil.obj
 0001:000456a0       _OsApi_Quit                100466a0 f   osputil.obj
 0001:000456e0       _OsApi_ver                 100466e0 f   osputil.obj
 0001:00045710       _OsApi_help                10046710 f   osputil.obj
 0001:00045770       _OsApi_IsLocalHost         10046770 f   osputil.obj
 0001:00045800       _OsApi_RegistModule        10046800 f   osputil.obj
 0001:00045840       _OsApi_Printf              10046840 f   osputil.obj
 0001:000458c0       _OsApi_TcpOpen             100468c0 f   osputil.obj
 0001:00045a10       _OsApi_TcpListen           10046a10 f   osputil.obj
 0001:00045a40       _OsApi_sockBytesAvailable  10046a40 f   osputil.obj
 0001:00045a60       _OsApi_SockClose           10046a60 f   osputil.obj
 0001:00045b90       _OsApi_AddThreadInfo       10046b90 f   osputil.obj
 0001:00045c70       _OsApi_DelThreadInfo       10046c70 f   osputil.obj
 0001:00045d40       _OsApi_PrintThreadInfo     10046d40 f   osputil.obj
 0001:00045dc0       _OsApi_TaskCreate          10046dc0 f   ospvos.obj
 0001:00045e50       _OsApi_TaskExit            10046e50 f   ospvos.obj
 0001:00045e60       _OsApi_TaskWaitEnd         10046e60 f   ospvos.obj
 0001:00045e80       _OsApi_TaskTerminate       10046e80 f   ospvos.obj
 0001:00045e90       _OsApi_TaskSetPriority     10046e90 f   ospvos.obj
 0001:00045f00       _OsApi_TaskGetPriority     10046f00 f   ospvos.obj
 0001:00045fb0       _OsApi_TaskSuspend         10046fb0 f   ospvos.obj
 0001:00045fd0       _OsApi_TaskResume          10046fd0 f   ospvos.obj
 0001:00045ff0       _OsApi_TaskSelfHandle      10046ff0 f   ospvos.obj
 0001:00046040       _OsApi_TaskSelfID          10047040 f   ospvos.obj
 0001:00046050       _OsApi_TaskHandleVerify    10047050 f   ospvos.obj
 0001:00046080       _OsApi_CreateMailbox       10047080 f   ospvos.obj
 0001:000460b0       _OsApi_CloseMailbox        100470b0 f   ospvos.obj
 0001:000460d0       _OsApi_SndMsg              100470d0 f   ospvos.obj
 0001:00046110       _OsApi_RcvMsg              10047110 f   ospvos.obj
 0001:00046150       _OsApi_MBAvailMsgs         10047150 f   ospvos.obj
 0001:000461a0       _OsApi_SemBCreate          100471a0 f   ospvos.obj
 0001:000461d0       _OsApi_SemCCreate          100471d0 f   ospvos.obj
 0001:00046200       _OsApi_SemTake             10047200 f   ospvos.obj
 0001:00046220       _OsApi_SemTakeByTime       10047220 f   ospvos.obj
 0001:00046240       _OsApi_SemDelete           10047240 f   ospvos.obj
 0001:00046250       _OsApi_SemGive             10047250 f   ospvos.obj
 0001:00046270       _OsApi_TaskDelay           10047270 f   ospvos.obj
 0001:00046280       _OsApi_SockInit            10047280 f   ospvos.obj
 0001:000462c0       _OsApi_SockCleanup         100472c0 f   ospvos.obj
 0001:000462d0       _OsApi_TickGet             100472d0 f   ospvos.obj
 0001:000462e0       _OsApi_ClkRateGet          100472e0 f   ospvos.obj
 0001:000462f0       _OsApi_SerialOpen          100472f0 f   ospvos.obj
 0001:00046360       _OsApi_SerialClose         10047360 f   ospvos.obj
 0001:00046380       _OsApi_SerialRead          10047380 f   ospvos.obj
 0001:000463b0       _OsApi_SerialWrite         100473b0 f   ospvos.obj
 0001:000463d0       _OsApi_GetCommTimeouts     100473d0 f   ospvos.obj
 0001:000463f0       _OsApi_SetCommTimeouts     100473f0 f   ospvos.obj
 0001:00046410       _OsApi_GetCommState        10047410 f   ospvos.obj
 0001:00046430       _OsApi_SetCommState        10047430 f   ospvos.obj
 0001:00046450       _OsApi_EscapeCommFunction  10047450 f   ospvos.obj
 0001:00046470       _OsApi_PurgeComm           10047470 f   ospvos.obj
 0001:00046490       _OsApi_ClearCommError      10047490 f   ospvos.obj
 0001:000464c0       _OsApi_AddrListGet         100474c0 f   ospvos.obj
 0001:00046560       _OsApi_GetCpuInfo          10047560 f   ospvos.obj
 0001:000466f0       _OsApi_GetMemInfo          100476f0 f   ospvos.obj
 0001:00046740       _OsApi_GetTimeInfo         10047740 f   ospvos.obj
 0001:000467a0       _OsApi_SetTimeInfo         100477a0 f   ospvos.obj
 0001:00046ef0       _ourMD5Update              10047ef0 f   our_md5.obj
 0001:00046f90       _our_MD5Final              10047f90 f   our_md5.obj
 0001:00047070       _our_MD5End                10048070 f   our_md5hl.obj
 0001:00047170       _our_MD5Data               10048170 f   our_md5hl.obj
 0001:000471e0       ?bitstobase64@@YAXPAD0H@Z  100481e0 f   publicfun.obj
 0001:000472f0       ?bace64tobits@@YAPAEPBDG@Z 100482f0 f   publicfun.obj
 0001:00047570       ?GetCap@CPuCtrl_Normal@@QAEHPAXGQAPADQAKPAK@Z 10048570 f   puctrl_normal.obj
 0001:000477b0       ?GetCGIVersion@CPuCtrl_Normal@@QAEHPAXPADPAK@Z 100487b0 f   puctrl_normal.obj
 0001:00047a20       ?GetEventTime@CPuCtrl_Normal@@QAEHPAXPAD10HH1AAHPAK@Z 10048a20 f   puctrl_normal.obj
 0001:00047c90       ?SetEventTime@CPuCtrl_Normal@@QAEHPAXPAD10HHPAK@Z 10048c90 f   puctrl_normal.obj
 0001:00047ee0       ?SendTransData@CPuCtrl_Normal@@QAEHPAXPAD1H1AAHPAK@Z 10048ee0 f   puctrl_normal.obj
 0001:00048150       ?SetRtspMetaPort@CPuCtrl_Normal@@QAEKPAXW4emPlayVideoType@@_N0H0AAHPAK@Z 10049150 f   puctrl_normal.obj
 0001:000482d0       ?StartRealPlay@CPuCtrl_Normal@@QAEKPAXW4emPlayVideoType@@0H0AAHPAK@Z 100492d0 f   puctrl_normal.obj
 0001:00048640       ?RemoveRtspMetaPort@CPuCtrl_Normal@@QAEHPAXKPAK@Z 10049640 f   puctrl_normal.obj
 0001:00048730       ?StopRealPlay@CPuCtrl_Normal@@QAEHPAXW4emPlayVideoType@@KPAK@Z 10049730 f   puctrl_normal.obj
 0001:00048960       ?GetRtspUrl@CPuCtrl_Normal@@QAEHPAXW4emPlayVideoType@@0H0AAHPAKH@Z 10049960 f   puctrl_normal.obj
 0001:00048ba0       ?GetVideoInfo@CPuCtrl_Normal@@QAEHPAXW4emPlayVideoType@@0H0AAHPAK@Z 10049ba0 f   puctrl_normal.obj
 0001:00048e70       ?SendKeyFrame@CPuCtrl_Normal@@QAEHPAXKPAK@Z 10049e70 f   puctrl_normal.obj
 0001:00049090       ?GetVideoVolume_RTCP@CPuCtrl_Normal@@QAEHPAX0AAHPAK@Z 1004a090 f   puctrl_normal.obj
 0001:000492b0       ?SetVideoVolume_RTCP@CPuCtrl_Normal@@QAEHPAX0HPAK@Z 1004a2b0 f   puctrl_normal.obj
 0001:000494d0       ?VoiceCallState@CPuCtrl_Normal@@QAEHPAX0HPAK@Z 1004a4d0 f   puctrl_normal.obj
 0001:000496f0       ?StartVoiceCall@CPuCtrl_Normal@@QAEKPAXW4emTransType@@0AAHPAK@Z 1004a6f0 f   puctrl_normal.obj
 0001:000499c0       ?StopVoiceCall@CPuCtrl_Normal@@QAEHPAXKPAK@Z 1004a9c0 f   puctrl_normal.obj
 0001:00049be0       ?PuSnapShot@CPuCtrl_Normal@@QAEHPAXEPBDPAK@Z 1004abe0 f   puctrl_normal.obj
 0001:00049ec0       ?GetRecMonthInfo@CPuCtrl_Normal@@QAEHPAXH0AAHPAK@Z 1004aec0 f   puctrl_normal.obj
 0001:0004a0f0       ?GetRecordData@CPuCtrl_Normal@@QAEKPAXK00AAHPAK@Z 1004b0f0 f   puctrl_normal.obj
 0001:0004a2c0       ?GetRecordNext@CPuCtrl_Normal@@QAEKPAXKKAA_N0HPAK@Z 1004b2c0 f   puctrl_normal.obj
 0001:0004a500       ?PreLoadRecordList@CPuCtrl_Normal@@QAEKPAX0HPAK@Z 1004b500 f   puctrl_normal.obj
 0001:0004a720       ?StartRecordPlay@CPuCtrl_Normal@@QAEKPAX0H0H_NPAK@Z 1004b720 f   puctrl_normal.obj
 0001:0004a9e0       ?StopRecordPlay@CPuCtrl_Normal@@QAEHPAXKPAK@Z 1004b9e0 f   puctrl_normal.obj
 0001:0004ac00       ?PauseRecordPlay@CPuCtrl_Normal@@QAEHPAXKPAK@Z 1004bc00 f   puctrl_normal.obj
 0001:0004ae20       ?ResumeRecordPlay@CPuCtrl_Normal@@QAEHPAXKPAK@Z 1004be20 f   puctrl_normal.obj
 0001:0004b040       ?MoveRecordPlay@CPuCtrl_Normal@@QAEHPAXK0HPAK@Z 1004c040 f   puctrl_normal.obj
 0001:0004b260       ?SetRecordPlayRate@CPuCtrl_Normal@@QAEHPAXKKPAK@Z 1004c260 f   puctrl_normal.obj
 0001:0004b480       ?Getrecplaystate@CPuCtrl_Normal@@QAEHPAXK0AAHPAK@Z 1004c480 f   puctrl_normal.obj
 0001:0004b6b0       ?Setrecdownloadspeed@CPuCtrl_Normal@@QAEHPAXPAK@Z 1004c6b0 f   puctrl_normal.obj
 0001:0004b8d0       ?GetMultiVideoMode@CPuCtrl_Normal@@QAEHPAXE0AAHPAK@Z 1004c8d0 f   puctrl_normal.obj
 0001:0004bb00       ?SetMultiVideoMode@CPuCtrl_Normal@@QAEHPAX0HPAK@Z 1004cb00 f   puctrl_normal.obj
 0001:0004bd20       ?GetAudioDec@CPuCtrl_Normal@@QAEHPAXEE0AAHPAK@Z 1004cd20 f   puctrl_normal.obj
 0001:0004bf50       ?SetAudioDec@CPuCtrl_Normal@@QAEHPAX0HPAK@Z 1004cf50 f   puctrl_normal.obj
 0001:0004c170       ?GetAudioEnc@CPuCtrl_Normal@@QAEHPAXEE0AAHPAD1PAK@Z 1004d170 f   puctrl_normal.obj
 0001:0004c3a0       ?SetAudioEnc@CPuCtrl_Normal@@QAEHPAX0HPAK@Z 1004d3a0 f   puctrl_normal.obj
 0001:0004c5c0       ?GetVideoEnc@CPuCtrl_Normal@@QAEHPAXEE0AAHPAD1PAK@Z 1004d5c0 f   puctrl_normal.obj
 0001:0004c800       ?SetVideoEnc@CPuCtrl_Normal@@QAEHPAX0HPAK@Z 1004d800 f   puctrl_normal.obj
 0001:0004ca20       ?GetVideoShield@CPuCtrl_Normal@@QAEHPAXE0AAHPAD1PAK@Z 1004da20 f   puctrl_normal.obj
 0001:0004cc60       ?SetVideoShield@CPuCtrl_Normal@@QAEHPAX0HPAK@Z 1004dc60 f   puctrl_normal.obj
 0001:0004ce90       ?GetVideoRoi@CPuCtrl_Normal@@QAEHPAXE0AAHPAK@Z 1004de90 f   puctrl_normal.obj
 0001:0004d0b0       ?SetVideoRoi@CPuCtrl_Normal@@QAEHPAX0HPAK@Z 1004e0b0 f   puctrl_normal.obj
 0001:0004d2d0       ?GetVideoEncCut@CPuCtrl_Normal@@QAEHPAXE0AAHPAK@Z 1004e2d0 f   puctrl_normal.obj
 0001:0004d500       ?SetVideoEncCut@CPuCtrl_Normal@@QAEHPAX0HPAK@Z 1004e500 f   puctrl_normal.obj
 0001:0004d710       ?GetOsdCap@CPuCtrl_Normal@@QAEHPAXE0AAHPAK@Z 1004e710 f   puctrl_normal.obj
 0001:0004d930       ?GetOsd@CPuCtrl_Normal@@QAEHPAXE0AAHPAD1PAK@Z 1004e930 f   puctrl_normal.obj
 0001:0004db70       ?SetOsd@CPuCtrl_Normal@@QAEHPAX0HPAK@Z 1004eb70 f   puctrl_normal.obj
 0001:0004dd90       ?GetOsdList@CPuCtrl_Normal@@QAEHPAXE0AAHPAK@Z 1004ed90 f   puctrl_normal.obj
 0001:0004dfc0       ?SetOsdList@CPuCtrl_Normal@@QAEHPAX0HPAK@Z 1004efc0 f   puctrl_normal.obj
 0001:0004e1e0       ?GetOsdStateQuery@CPuCtrl_Normal@@QAEHPAXE0AAHPAD1PAK@Z 1004f1e0 f   puctrl_normal.obj
 0001:0004e420       ?SetOsdPrepare@CPuCtrl_Normal@@QAEHPAX0HPAK@Z 1004f420 f   puctrl_normal.obj
 0001:0004e640       ?SetOsdUploadFile@CPuCtrl_Normal@@QAEHPAX0HPAK@Z 1004f640 f   puctrl_normal.obj
 0001:0004e860       ?Img_Def@CPuCtrl_Normal@@QAEHPAX0HPAK@Z 1004f860 f   puctrl_normal.obj
 0001:0004ea70       ?GetColor_IMAGE@CPuCtrl_Normal@@QAEHPAXE0HPAK@Z 1004fa70 f   puctrl_normal.obj
 0001:0004ec90       ?SetColor_IMAGE@CPuCtrl_Normal@@QAEHPAX0HPAK@Z 1004fc90 f   puctrl_normal.obj
 0001:0004eeb0       ?GetFocus_IMAGE@CPuCtrl_Normal@@QAEHPAXE0HPADAAHPAK@Z 1004feb0 f   puctrl_normal.obj
 0001:0004f0e0       ?SetFocus_IMAGE@CPuCtrl_Normal@@QAEHPAX0HPAK@Z 100500e0 f   puctrl_normal.obj
 0001:0004f300       ?GetWhiteBlance_IMAGE@CPuCtrl_Normal@@QAEHPAXE0HPADAAHPAK@Z 10050300 f   puctrl_normal.obj
 0001:0004f530       ?SetWhiteBlance_IMAGE@CPuCtrl_Normal@@QAEHPAX0HPAK@Z 10050530 f   puctrl_normal.obj
 0001:0004f750       ?GetIrcutFilter_IMAGE@CPuCtrl_Normal@@QAEHPAXE0HPADAAHPAK@Z 10050750 f   puctrl_normal.obj
 0001:0004f980       ?SetIrcutFilter_IMAGE@CPuCtrl_Normal@@QAEHPAX0HPAK@Z 10050980 f   puctrl_normal.obj
 0001:0004fb90       ?GetIris_IMAGE@CPuCtrl_Normal@@QAEHPAXE0HPAK@Z 10050b90 f   puctrl_normal.obj
 0001:0004fdb0       ?SetIris_IMAGE@CPuCtrl_Normal@@QAEHPAX0HPAK@Z 10050db0 f   puctrl_normal.obj
 0001:0004ffd0       ?GetShutter_IMAGE@CPuCtrl_Normal@@QAEHPAXE0HPADAAHPAK@Z 10050fd0 f   puctrl_normal.obj
 0001:00050200       ?SetShutter_IMAGE@CPuCtrl_Normal@@QAEHPAX0HPAK@Z 10051200 f   puctrl_normal.obj
 0001:00050420       ?GetGain_IMAGE@CPuCtrl_Normal@@QAEHPAXE0HPAK@Z 10051420 f   puctrl_normal.obj
 0001:00050640       ?SetGain_IMAGE@CPuCtrl_Normal@@QAEHPAX0HPAK@Z 10051640 f   puctrl_normal.obj
 0001:00050860       ?GetInfrared_IMAGE@CPuCtrl_Normal@@QAEHPAXE0HPADAAHPAK@Z 10051860 f   puctrl_normal.obj
 0001:00050a90       ?SetInfrared_IMAGE@CPuCtrl_Normal@@QAEHPAX0HPAK@Z 10051a90 f   puctrl_normal.obj
 0001:00050cb0       ?GetLaser_IMAGE@CPuCtrl_Normal@@QAEHPAXE0HPADAAHPAK@Z 10051cb0 f   puctrl_normal.obj
 0001:00050ee0       ?SetLaser_IMAGE@CPuCtrl_Normal@@QAEHPAX0HPAK@Z 10051ee0 f   puctrl_normal.obj
 0001:00051100       ?GetCorrido@CPuCtrl_Normal@@QAEHPAXE0HPADAAHPAK@Z 10052100 f   puctrl_normal.obj
 0001:00051330       ?SetCorrido@CPuCtrl_Normal@@QAEHPAX0HPAK@Z 10052330 f   puctrl_normal.obj
 0001:00051550       ?GetImageMode@CPuCtrl_Normal@@QAEHPAXE0HPADAAHPAK@Z 10052550 f   puctrl_normal.obj
 0001:00051780       ?SetImageMode@CPuCtrl_Normal@@QAEHPAX0HPAK@Z 10052780 f   puctrl_normal.obj
 0001:000519a0       ?Get2DDenoise@CPuCtrl_Normal@@QAEHPAXE0HPADAAHPAK@Z 100529a0 f   puctrl_normal.obj
 0001:00051bd0       ?Set2DDenoise@CPuCtrl_Normal@@QAEHPAX0HPAK@Z 10052bd0 f   puctrl_normal.obj
 0001:00051df0       ?Get3DDenoise@CPuCtrl_Normal@@QAEHPAXE0HPADAAHPAK@Z 10052df0 f   puctrl_normal.obj
 0001:00052020       ?Set3DDenoise@CPuCtrl_Normal@@QAEHPAX0HPAK@Z 10053020 f   puctrl_normal.obj
 0001:00052240       ?GetLocalEcho@CPuCtrl_Normal@@QAEHPAXE0HPADAAHPAK@Z 10053240 f   puctrl_normal.obj
 0001:00052470       ?SetLocalEcho@CPuCtrl_Normal@@QAEHPAX0HPAK@Z 10053470 f   puctrl_normal.obj
 0001:00052690       ?GetPowerLineFrequency@CPuCtrl_Normal@@QAEHPAXE0HPADAAHPAK@Z 10053690 f   puctrl_normal.obj
 0001:000528c0       ?SetPowerLineFrequency@CPuCtrl_Normal@@QAEHPAX0HPAK@Z 100538c0 f   puctrl_normal.obj
 0001:00052ae0       ?GetWdr@CPuCtrl_Normal@@QAEHPAXE0HPAK@Z 10053ae0 f   puctrl_normal.obj
 0001:00052d00       ?SetWdr@CPuCtrl_Normal@@QAEHPAX0HPAK@Z 10053d00 f   puctrl_normal.obj
 0001:00052f20       ?GetHlc@CPuCtrl_Normal@@QAEHPAXE0HPAK@Z 10053f20 f   puctrl_normal.obj
 0001:00053140       ?SetHlc@CPuCtrl_Normal@@QAEHPAX0HPAK@Z 10054140 f   puctrl_normal.obj
 0001:00053360       ?GetFogThrough@CPuCtrl_Normal@@QAEHPAXE0HPAK@Z 10054360 f   puctrl_normal.obj
 0001:00053580       ?SetFogThrough@CPuCtrl_Normal@@QAEHPAX0HPAK@Z 10054580 f   puctrl_normal.obj
 0001:000537a0       ?GetGamma@CPuCtrl_Normal@@QAEHPAXE0HPAK@Z 100547a0 f   puctrl_normal.obj
 0001:000539c0       ?SetGamma@CPuCtrl_Normal@@QAEHPAX0HPAK@Z 100549c0 f   puctrl_normal.obj
 0001:00053be0       ?GetSmartIR@CPuCtrl_Normal@@QAEHPAXE0HPAK@Z 10054be0 f   puctrl_normal.obj
 0001:00053e00       ?SetSmartIR@CPuCtrl_Normal@@QAEHPAX0HPAK@Z 10054e00 f   puctrl_normal.obj
 0001:00054020       ?GetBlc@CPuCtrl_Normal@@QAEHPAXE0HPADAAHPAK@Z 10055020 f   puctrl_normal.obj
 0001:00054250       ?SetBlc@CPuCtrl_Normal@@QAEHPAX0HPAK@Z 10055250 f   puctrl_normal.obj
 0001:00054460       ?GetFillLight@CPuCtrl_Normal@@QAEHPAX0HPAK@Z 10055460 f   puctrl_normal.obj
 0001:00054680       ?SetFillLight@CPuCtrl_Normal@@QAEHPAX0HPAK@Z 10055680 f   puctrl_normal.obj
 0001:000548a0       ?SetDynPluginState@CPuCtrl_Normal@@QAEHPAX0HPAK@Z 100558a0 f   puctrl_normal.obj
 0001:00054ac0       ?AssTeleZoomInfo@CPuCtrl_Normal@@QAEHPAX0HPAK@Z 10055ac0 f   puctrl_normal.obj
 0001:00054ce0       ?GetAssTeleZoomInfo@CPuCtrl_Normal@@QAEHPAX0HPAK@Z 10055ce0 f   puctrl_normal.obj
 0001:00054f00       ?AssMalfInfo@CPuCtrl_Normal@@QAEHPAX0HPAK@Z 10055f00 f   puctrl_normal.obj
 0001:00055120       ?GetAssMalfInfo@CPuCtrl_Normal@@QAEHPAX0HPAK@Z 10056120 f   puctrl_normal.obj
 0001:00055340       ?SetMTCF@CPuCtrl_Normal@@QAEHPAX0HPAK@Z 10056340 f   puctrl_normal.obj
 0001:00055560       ?GetMTCF@CPuCtrl_Normal@@QAEHPAX0HPAK@Z 10056560 f   puctrl_normal.obj
 0001:00055780       ?GetNetPort@CPuCtrl_Normal@@QAEHPAX0HPAK@Z 10056780 f   puctrl_normal.obj
 0001:000559c0       ?SetNetPort@CPuCtrl_Normal@@QAEHPAX0HPAK@Z 100569c0 f   puctrl_normal.obj
 0001:00055bf0       ?GetIpInfo@CPuCtrl_Normal@@QAEHPAX0HPAK@Z 10056bf0 f   puctrl_normal.obj
 0001:00055e30       ?SetIpInfo@CPuCtrl_Normal@@QAEHPAX0HPAK@Z 10056e30 f   puctrl_normal.obj
 0001:00056050       ?GetWlanInfo@CPuCtrl_Normal@@QAEHPAX0HPAK@Z 10057050 f   puctrl_normal.obj
 0001:00056280       ?SetWlanInfo@CPuCtrl_Normal@@QAEHPAX0HPAK@Z 10057280 f   puctrl_normal.obj
 0001:000564b0       ?GetDdns@CPuCtrl_Normal@@QAEHPAX0HQADHPAK@Z 100574b0 f   puctrl_normal.obj
 0001:000566f0       ?SetDdns@CPuCtrl_Normal@@QAEHPAX0HPAK@Z 100576f0 f   puctrl_normal.obj
 0001:00056910       ?GetDdnsState@CPuCtrl_Normal@@QAEHPAX0HPAK@Z 10057910 f   puctrl_normal.obj
 0001:00056b50       ?GetPPPoE@CPuCtrl_Normal@@QAEHPAX0HPAK@Z 10057b50 f   puctrl_normal.obj
 0001:00056d90       ?SetPPPoE@CPuCtrl_Normal@@QAEHPAX0HPAK@Z 10057d90 f   puctrl_normal.obj
 0001:00056fb0       ?GetQos@CPuCtrl_Normal@@QAEHPAX0HPAK@Z 10057fb0 f   puctrl_normal.obj
 0001:000571f0       ?SetQos@CPuCtrl_Normal@@QAEHPAX0HPAK@Z 100581f0 f   puctrl_normal.obj
 0001:00057420       ?GetKSnmp@CPuCtrl_Normal@@QAEHPAX0HPAK@Z 10058420 f   puctrl_normal.obj
 0001:00057660       ?SetKSnmp@CPuCtrl_Normal@@QAEHPAX0HPAK@Z 10058660 f   puctrl_normal.obj
 0001:000578a0       ?Get8021x@CPuCtrl_Normal@@QAEHPAX0HQADHPAK@Z 100588a0 f   puctrl_normal.obj
 0001:00057ae0       ?Set8021x@CPuCtrl_Normal@@QAEHPAX0HPAK@Z 10058ae0 f   puctrl_normal.obj
 0001:00057d00       ?GetUPnP@CPuCtrl_Normal@@QAEHPAX0H0HAAHPAK@Z 10058d00 f   puctrl_normal.obj
 0001:00057f50       ?SetUPnP@CPuCtrl_Normal@@QAEHPAX0H0HAAHPAK@Z 10058f50 f   puctrl_normal.obj
 0001:000581a0       ?GetVsip@CPuCtrl_Normal@@QAEHPAX0HPAK@Z 100591a0 f   puctrl_normal.obj
 0001:000583e0       ?SetVsip@CPuCtrl_Normal@@QAEHPAX0HPAK@Z 100593e0 f   puctrl_normal.obj
 0001:00058600       ?GetOnvif@CPuCtrl_Normal@@QAEHPAX0HPAK@Z 10059600 f   puctrl_normal.obj
 0001:00058840       ?SetOnvif@CPuCtrl_Normal@@QAEHPAX0HPAK@Z 10059840 f   puctrl_normal.obj
 0001:00058a60       ?GetDpss@CPuCtrl_Normal@@QAEHPAX0HPAK@Z 10059a60 f   puctrl_normal.obj
 0001:00058c90       ?SetDpss@CPuCtrl_Normal@@QAEHPAX0HPAK@Z 10059c90 f   puctrl_normal.obj
 0001:00058eb0       ?GetAuthMode@CPuCtrl_Normal@@QAEHPAX0HPAK@Z 10059eb0 f   puctrl_normal.obj
 0001:000590f0       ?SetAuthMode@CPuCtrl_Normal@@QAEHPAX0HPAK@Z 1005a0f0 f   puctrl_normal.obj
 0001:00059310       ?GetGB28181@CPuCtrl_Normal@@QAEHPAXPAD0H0AAH02QADHPAK@Z 1005a310 f   puctrl_normal.obj
 0001:00059590       ?SetGB28181@CPuCtrl_Normal@@QAEHPAXPAD0H0H0HPAK@Z 1005a590 f   puctrl_normal.obj
 0001:000597e0       ?GetStorageState@CPuCtrl_Normal@@QAEHPAX0HPADAAHPAK@Z 1005a7e0 f   puctrl_normal.obj
 0001:00059a30       ?GetStorageNum@CPuCtrl_Normal@@QAEHPAXAAHPAK@Z 1005aa30 f   puctrl_normal.obj
 0001:00059c70       ?GetStorageManager@CPuCtrl_Normal@@QAEHPAX0HPADAAHPAK@Z 1005ac70 f   puctrl_normal.obj
 0001:00059ec0       ?SetStorageManager@CPuCtrl_Normal@@QAEHPAX0HPAK@Z 1005aec0 f   puctrl_normal.obj
 0001:0005a0e0       ?StorageFomat@CPuCtrl_Normal@@QAEHPAX0HPAK@Z 1005b0e0 f   puctrl_normal.obj
 0001:0005a310       ?GetFomatProgress@CPuCtrl_Normal@@QAEHPAX0HPAK@Z 1005b310 f   puctrl_normal.obj
 0001:0005a550       ?GetRecSchedule@CPuCtrl_Normal@@QAEHPAX0HPADAAHPAK@Z 1005b550 f   puctrl_normal.obj
 0001:0005a7a0       ?SetRecSchedule@CPuCtrl_Normal@@QAEHPAX0HPAK@Z 1005b7a0 f   puctrl_normal.obj
 0001:0005a9c0       ?GetSnapPicConfig@CPuCtrl_Normal@@QAEHPAX0HPADAAHPAK@Z 1005b9c0 f   puctrl_normal.obj
 0001:0005ac10       ?SetSnapPicConfig@CPuCtrl_Normal@@QAEHPAX0HPAK@Z 1005bc10 f   puctrl_normal.obj
 0001:0005ae30       ?GetSnapTime@CPuCtrl_Normal@@QAEHPAX0HPAK@Z 1005be30 f   puctrl_normal.obj
 0001:0005b070       ?SetSnapTime@CPuCtrl_Normal@@QAEHPAX0HPAK@Z 1005c070 f   puctrl_normal.obj
 0001:0005b2b0       ?GetSnapEvent@CPuCtrl_Normal@@QAEHPAX0HPAK@Z 1005c2b0 f   puctrl_normal.obj
 0001:0005b4f0       ?SetSnapEvent@CPuCtrl_Normal@@QAEHPAX0HPAK@Z 1005c4f0 f   puctrl_normal.obj
 0001:0005b720       ?GetDetect@CPuCtrl_Normal@@QAEHPAX0H0HPADAAHPAK@Z 1005c720 f   puctrl_normal.obj
 0001:0005b990       ?SetDetect@CPuCtrl_Normal@@QAEHPAX0H0HPAK@Z 1005c990 f   puctrl_normal.obj
 0001:0005bbc0       ?GetShieldAlarm@CPuCtrl_Normal@@QAEHPAX0H0HPADAAHPAK@Z 1005cbc0 f   puctrl_normal.obj
 0001:0005be30       ?SetShieldAlarm@CPuCtrl_Normal@@QAEHPAX0H0HPAK@Z 1005ce30 f   puctrl_normal.obj
 0001:0005c060       ?GetWarningLine@CPuCtrl_Normal@@QAEHPAX0HPAK@Z 1005d060 f   puctrl_normal.obj
 0001:0005c2a0       ?SetWarningLine@CPuCtrl_Normal@@QAEHPAX0HPAK@Z 1005d2a0 f   puctrl_normal.obj
 0001:0005c4c0       ?GetAreaDetectEnter@CPuCtrl_Normal@@QAEHPAX0HPAK@Z 1005d4c0 f   puctrl_normal.obj
 0001:0005c700       ?SetAreaDetectEnter@CPuCtrl_Normal@@QAEHPAX0HPAK@Z 1005d700 f   puctrl_normal.obj
 0001:0005c940       ?GetAreaDetectEntry@CPuCtrl_Normal@@QAEHPAX0HPAK@Z 1005d940 f   puctrl_normal.obj
 0001:0005cb80       ?SetAreaDetectEntry@CPuCtrl_Normal@@QAEHPAX0HPAK@Z 1005db80 f   puctrl_normal.obj
 0001:0005cdc0       ?GetAreaDetectExit@CPuCtrl_Normal@@QAEHPAX0HPAK@Z 1005ddc0 f   puctrl_normal.obj
 0001:0005d000       ?SetAreaDetectExit@CPuCtrl_Normal@@QAEHPAX0HPAK@Z 1005e000 f   puctrl_normal.obj
 0001:0005d250       ?GetObjectLeft@CPuCtrl_Normal@@QAEHPAX0HPAK@Z 1005e250 f   puctrl_normal.obj
 0001:0005d490       ?SetObjectLeft@CPuCtrl_Normal@@QAEHPAX0HPAK@Z 1005e490 f   puctrl_normal.obj
 0001:0005d6d0       ?GetObjectRemoval@CPuCtrl_Normal@@QAEHPAX0HPAK@Z 1005e6d0 f   puctrl_normal.obj
 0001:0005d910       ?SetObjectRemoval@CPuCtrl_Normal@@QAEHPAX0HPAK@Z 1005e910 f   puctrl_normal.obj
 0001:0005db50       ?GetPersonAggregate@CPuCtrl_Normal@@QAEHPAX0HPAK@Z 1005eb50 f   puctrl_normal.obj
 0001:0005dd90       ?SetPersonAggregate@CPuCtrl_Normal@@QAEHPAX0HPAK@Z 1005ed90 f   puctrl_normal.obj
 0001:0005dfd0       ?GetVirtualFocus@CPuCtrl_Normal@@QAEHPAX0HPAK@Z 1005efd0 f   puctrl_normal.obj
 0001:0005e210       ?SetVirtualFocus@CPuCtrl_Normal@@QAEHPAX0HPAK@Z 1005f210 f   puctrl_normal.obj
 0001:0005e430       ?GetSightChange@CPuCtrl_Normal@@QAEHPAX0HPAK@Z 1005f430 f   puctrl_normal.obj
 0001:0005e670       ?SetSightChange@CPuCtrl_Normal@@QAEHPAX0HPAK@Z 1005f670 f   puctrl_normal.obj
 0001:0005e890       ?GetAudioExcept@CPuCtrl_Normal@@QAEHPAX0HPAK@Z 1005f890 f   puctrl_normal.obj
 0001:0005ead0       ?SetAudioExcept@CPuCtrl_Normal@@QAEHPAX0HPAK@Z 1005fad0 f   puctrl_normal.obj
 0001:0005ecf0       ?GetFaceDetect@CPuCtrl_Normal@@QAEHPAX0HPAK@Z 1005fcf0 f   puctrl_normal.obj
 0001:0005ef40       ?SetFaceDetect@CPuCtrl_Normal@@QAEHPAX0HPAK@Z 1005ff40 f   puctrl_normal.obj
 0001:0005f170       ?GetAlarmIn@CPuCtrl_Normal@@QAEHPAXPAD0H1AAHPAK@Z 10060170 f   puctrl_normal.obj
 0001:0005f3d0       ?SetAlarmIn@CPuCtrl_Normal@@QAEHPAX0HPAK@Z 100603d0 f   puctrl_normal.obj
 0001:0005f5f0       ?GetAlarmOut@CPuCtrl_Normal@@QAEHPAX0HPAK@Z 100605f0 f   puctrl_normal.obj
 0001:0005f830       ?SetAlarmOut@CPuCtrl_Normal@@QAEHPAX0HPAK@Z 10060830 f   puctrl_normal.obj
 0001:0005fa50       ?GetExceptType@CPuCtrl_Normal@@QAEHPAX0HPAK@Z 10060a50 f   puctrl_normal.obj
 0001:0005fc90       ?GetExcept@CPuCtrl_Normal@@QAEHPAXPAD0H1AAHPAK@Z 10060c90 f   puctrl_normal.obj
 0001:0005ff10       ?SetExcept@CPuCtrl_Normal@@QAEHPAX0HPAK@Z 10060f10 f   puctrl_normal.obj
 0001:00060130       ?SetPtzMove@CPuCtrl_Normal@@QAEHPAX0HPAK@Z 10061130 f   puctrl_normal.obj
 0001:00060350       ?SetPtzZoneZoom@CPuCtrl_Normal@@QAEHPAX0HPAK@Z 10061350 f   puctrl_normal.obj
 0001:00060590       ?PtzGotoPoint@CPuCtrl_Normal@@QAEHPAX0HPAK@Z 10061590 f   puctrl_normal.obj
 0001:000607d0       ?SetPtzWiper@CPuCtrl_Normal@@QAEHPAX0HPAK@Z 100617d0 f   puctrl_normal.obj
 0001:00060a00       ?GetPtzBase@CPuCtrl_Normal@@QAEHPAX0HPAK@Z 10061a00 f   puctrl_normal.obj
 0001:00060c40       ?SetPtzBase@CPuCtrl_Normal@@QAEHPAX0HPAK@Z 10061c40 f   puctrl_normal.obj
 0001:00060e70       ?GetPtzMainTain@CPuCtrl_Normal@@QAEHPAX0HPAK@Z 10061e70 f   puctrl_normal.obj
 0001:000610b0       ?SetPtzMainTain@CPuCtrl_Normal@@QAEHPAX0HPAK@Z 100620b0 f   puctrl_normal.obj
 0001:000612f0       ?SetPtzRefactory@CPuCtrl_Normal@@QAEHPAX0HPAK@Z 100622f0 f   puctrl_normal.obj
 0001:00061510       ?GetPtzWatchOn@CPuCtrl_Normal@@QAEHPAX0HPADAAHPAK@Z 10062510 f   puctrl_normal.obj
 0001:00061760       ?SetPtzWatchOn@CPuCtrl_Normal@@QAEHPAX0HPAK@Z 10062760 f   puctrl_normal.obj
 0001:00061980       ?GetPtzPreset@CPuCtrl_Normal@@QAEHPAXE0AAHPAK@Z 10062980 f   puctrl_normal.obj
 0001:00061bb0       ?SetPtzPreset@CPuCtrl_Normal@@QAEHPAX0HPAK@Z 10062bb0 f   puctrl_normal.obj
 0001:00061dd0       ?GetPtzLimit@CPuCtrl_Normal@@QAEHPAX0HPAK@Z 10062dd0 f   puctrl_normal.obj
 0001:00062010       ?SetPtzLimit@CPuCtrl_Normal@@QAEHPAX0HPAK@Z 10063010 f   puctrl_normal.obj
 0001:00062230       ?GetPtzPathCruise@CPuCtrl_Normal@@QAEHPAXE0AAHPAK@Z 10063230 f   puctrl_normal.obj
 0001:00062470       ?SetPtzPathCruise@CPuCtrl_Normal@@QAEHPAXE0HPAK@Z 10063470 f   puctrl_normal.obj
 0001:000626a0       ?SetPtzPathCruiseEvent@CPuCtrl_Normal@@QAEHPAX0HPAK@Z 100636a0 f   puctrl_normal.obj
 0001:000628c0       ?GetTimeTask@CPuCtrl_Normal@@QAEHPAX0H0HHPADAAHPAK@Z 100638c0 f   puctrl_normal.obj
 0001:00062b10       ?SetTimeTask@CPuCtrl_Normal@@QAEHPAX0H0HHPAK@Z 10063b10 f   puctrl_normal.obj
 0001:00062d40       ?GetPtzCoorDinate@CPuCtrl_Normal@@QAEHPAX0HPADAAHPAK@Z 10063d40 f   puctrl_normal.obj
 0001:00062f90       ?SetPtzCoorDinateEvt@CPuCtrl_Normal@@QAEHPAX0HPAK@Z 10063f90 f   puctrl_normal.obj
 0001:000631d0       ?GetPtzRatio@CPuCtrl_Normal@@QAEHPAX0HPAK@Z 100641d0 f   puctrl_normal.obj
 0001:00063410       ?SetPtzRatio@CPuCtrl_Normal@@QAEHPAX0HPAK@Z 10064410 f   puctrl_normal.obj
 0001:00063630       ?GetPtzPatternsInfo@CPuCtrl_Normal@@QAEHPAX0AAHPAK@Z 10064630 f   puctrl_normal.obj
 0001:00063870       ?SetPtzPatternEvt@CPuCtrl_Normal@@QAEHPAX0HPAK@Z 10064870 f   puctrl_normal.obj
 0001:00063a90       ?GetDeviceInfo@CPuCtrl_Normal@@QAEHPAX0HPAK@Z 10064a90 f   puctrl_normal.obj
 0001:00063d60       ?SetDeviceInfo@CPuCtrl_Normal@@QAEHPAX0HPAK@Z 10064d60 f   puctrl_normal.obj
 0001:00063ff0       ?GetSysTime@CPuCtrl_Normal@@QAEHPAX0AAHPAK@Z 10064ff0 f   puctrl_normal.obj
 0001:00064260       ?SetSysTime@CPuCtrl_Normal@@QAEHPAX0HPAK@Z 10065260 f   puctrl_normal.obj
 0001:000644f0       ?SetSysTimeSynChronise@CPuCtrl_Normal@@QAEHPAX0HPAK@Z 100654f0 f   puctrl_normal.obj
 0001:00064780       ?SetTimeAuto@CPuCtrl_Normal@@QAEHPAX0HPAK@Z 10065780 f   puctrl_normal.obj
 0001:00064a10       ?GetTimeAuto@CPuCtrl_Normal@@QAEHPAX0HPAK@Z 10065a10 f   puctrl_normal.obj
 0001:00064c80       ?SetDST@CPuCtrl_Normal@@QAEHPAX0HPAK@Z 10065c80 f   puctrl_normal.obj
 0001:00064f10       ?GetDST@CPuCtrl_Normal@@QAEHPAX0HPAK@Z 10065f10 f   puctrl_normal.obj
 0001:00065170       ?GetRSInfo@CPuCtrl_Normal@@QAEHPAX0HPADHPAK@Z 10066170 f   puctrl_normal.obj
 0001:000653e0       ?SetRSInfo@CPuCtrl_Normal@@QAEHPAX0HPAK@Z 100663e0 f   puctrl_normal.obj
 0001:00065670       ?LedFind@CPuCtrl_Normal@@QAEHPAX0HPADHPAK@Z 10066670 f   puctrl_normal.obj
 0001:00065900       ?SystemReboot@CPuCtrl_Normal@@QAEHPAXPAK@Z 10066900 f   puctrl_normal.obj
 0001:00065b80       ?RecoverFactory@CPuCtrl_Normal@@QAEHPAXPADPAK@Z 10066b80 f   puctrl_normal.obj
 0001:00065e10       ?UserActive@CPuCtrl_Normal@@QAEHPAXKG0PAK@Z 10066e10 f   puctrl_normal.obj
 0001:00066080       ?ConfigUpload@CPuCtrl_Normal@@QAEHPAX0HPAK@Z 10067080 f   puctrl_normal.obj
 0001:000664b0       ?ConfigDownload@CPuCtrl_Normal@@QAEHPAX0HPAK@Z 100674b0 f   puctrl_normal.obj
 0001:00066970       ?SysUploadState@CPuCtrl_Normal@@QAEHPAX0HPAK@Z 10067970 f   puctrl_normal.obj
 0001:00066c00       ?SysUpload@CPuCtrl_Normal@@QAEHPAX0HPAK@Z 10067c00 f   puctrl_normal.obj
 0001:00066cc0       ?GetAdvanced@CPuCtrl_Normal@@QAEHPAX0HPADHPAK@Z 10067cc0 f   puctrl_normal.obj
 0001:00066f30       ?SetAdvanced@CPuCtrl_Normal@@QAEHPAX0HPAK@Z 10067f30 f   puctrl_normal.obj
 0001:000671c0       ?SetSSH@CPuCtrl_Normal@@QAEHPAX_NPAK@Z 100681c0 f   puctrl_normal.obj
 0001:00067440       ?GetBatteryStatus@CPuCtrl_Normal@@QAEHPAX0HPAK@Z 10068440 f   puctrl_normal.obj
 0001:00067680       ?GetUserInfo@CPuCtrl_Normal@@QAEHPAX0AAH1PAK@Z 10068680 f   puctrl_normal.obj
 0001:00067910       ?SetUserInfo@CPuCtrl_Normal@@QAEHPAX0HPAK@Z 10068910 f   puctrl_normal.obj
 0001:00067b80       ?AddUser@CPuCtrl_Normal@@QAEHPAX0HPAK@Z 10068b80 f   puctrl_normal.obj
 0001:00067df0       ?DelUser@CPuCtrl_Normal@@QAEHPAX0HPAK@Z 10068df0 f   puctrl_normal.obj
 0001:00068060       ?UpdateUser@CPuCtrl_Normal@@QAEHPAX0HPAK@Z 10069060 f   puctrl_normal.obj
 0001:000682d0       ?SetPowerInfo@CPuCtrl_Normal@@QAEHPAX0HHPAK@Z 100692d0 f   puctrl_normal.obj
 0001:000682d0       ?GetPowerInfo@CPuCtrl_Normal@@QAEHPAX0HAAHPAK@Z 100692d0 f   puctrl_normal.obj
 0001:00068360       ?rtsp_recv_Thread@@YAPAXPAX@Z 10069360 f   rtsp_c.obj
 0001:00068390       ?rs_recv_rsp@@YAXKPAURseponse@@@Z 10069390 f   rtsp_c.obj
 0001:00068e80       ?rs_proto_msg_recv@@YAHK@Z 10069e80 f   rtsp_c.obj
 0001:00068fc0       _rtsp_init                 10069fc0 f   rtsp_c.obj
 0001:000691e0       ?rtsp_socket_rcv@@YAHXZ    1006a1e0 f   rtsp_c.obj
 0001:00069570       _rtsp_open_sessionbyPort   1006a570 f   rtsp_c.obj
 0001:000697d0       _rtsp_set_auth             1006a7d0 f   rtsp_c.obj
 0001:00069870       _rtsp_send_describe        1006a870 f   rtsp_c.obj
 0001:00069aa0       _rtsp_send_setup           1006aaa0 f   rtsp_c.obj
 0001:00069c80       _rtsp_send_play            1006ac80 f   rtsp_c.obj
 0001:00069e40       _rtsp_send_teardown        1006ae40 f   rtsp_c.obj
 0001:00069f30       _rtsp_get_parm             1006af30 f   rtsp_c.obj
 0001:0006a020       _rtsp_close_session        1006b020 f   rtsp_c.obj
 0001:0006a180       _rtsp_release              1006b180 f   rtsp_c.obj
 0001:0006a270       _rtsp_status               1006b270 f   rtsp_c.obj
 0001:0006a2c0       _rtsp_session_status       1006b2c0 f   rtsp_c.obj
 0001:0006a420       _rtsp_dev_status           1006b420 f   rtsp_c.obj
 0001:0006a590       _rtsp_debug                1006b590 f   rtsp_common.obj
 0001:0006a5a0       _rtsp_type                 1006b5a0 f   rtsp_common.obj
 0001:0006a5b0       _rtsp_ver                  1006b5b0 f   rtsp_common.obj
 0001:0006a5e0       _rtsp_help                 1006b5e0 f   rtsp_common.obj
 0001:0006a600       ?rtsp_cmd_reg@@YAXXZ       1006b600 f   rtsp_common.obj
 0001:0006a760       ?rtsp_log@@YAXKKHPADZZ     1006b760 f   rtsp_common.obj
 0001:0006a840       ?rs_h264_bs_read@@YAKPAUTBitStream@@H@Z 1006b840 f   rtsp_media.obj
 0001:0006a8c0       ?rs_h264_bs_read_ue@@YAHPAUTBitStream@@@Z 1006b8c0 f   rtsp_media.obj
 0001:0006a930       ?rs_decode_H264SPS@@YAHPAUTBitStream@@PAUtagSeqParameterSetRBSP@@PAUtagKdvH264Header@@@Z 1006b930 f   rtsp_media.obj
 0001:0006ab40       ?rs_decode_H264PPS@@YAHPAUTBitStream@@PAUtagPicParameterSetRBSP@@PAUtagKdvH264Header@@@Z 1006bb40 f   rtsp_media.obj
 0001:0006ad70       ?rs_parse_264head@@YAHPAE0PAG1G@Z 1006bd70 f   rtsp_media.obj
 0001:0006aec0       ?rs_deal_rtp_keda@@YAHPAUtagRsMediaSocket@@PAEGK@Z 1006bec0 f   rtsp_media.obj
 0001:0006b000       ?rs_deal_rtp@@YAHPAUtagRsMediaSocket@@PAEGK@Z 1006c000 f   rtsp_media.obj
 0001:0006b1f0       ?rs_deal_rtp_jpeg@@YAHPAUtagRsMediaSocket@@PAEGK@Z 1006c1f0 f   rtsp_media.obj
 0001:0006b3c0       ?rs_deal_rtp_audio@@YAHPAUtagRsMediaSocket@@PAEGK@Z 1006c3c0 f   rtsp_media.obj
 0001:0006b590       ?rs_deal_rtp_metadata@@YAHPAUtagRsMediaSocket@@PAEG@Z 1006c590 f   rtsp_media.obj
 0001:0006b6b0       ?rs_head_value_get@@YAPADPAD@Z 1006c6b0 f   rtsp_msg.obj
 0001:0006b6d0       ?rs_accept_parse@@YAHPADPAURsHead@@@Z 1006c6d0 f   rtsp_msg.obj
 0001:0006b720       ?rs_accept_to_str@@YAHPAURsMsgBuf@@PAURsHead@@@Z 1006c720 f   rtsp_msg.obj
 0001:0006b7c0       ?rs_auth_parse@@YAHPADPAURsHead@@@Z 1006c7c0 f   rtsp_msg.obj
 0001:0006b920       ?rs_auth_to_str@@YAHPAURsMsgBuf@@PAURsHead@@@Z 1006c920 f   rtsp_msg.obj
 0001:0006b9e0       ?rs_bandwidth_parse@@YAHPADPAURsHead@@@Z 1006c9e0 f   rtsp_msg.obj
 0001:0006ba30       ?rs_bandwidth_to_str@@YAHPAURsMsgBuf@@PAURsHead@@@Z 1006ca30 f   rtsp_msg.obj
 0001:0006bad0       ?rs_content_len_parse@@YAHPADPAURsHead@@@Z 1006cad0 f   rtsp_msg.obj
 0001:0006bb20       ?rs_content_len_to_str@@YAHPAURsMsgBuf@@PAURsHead@@@Z 1006cb20 f   rtsp_msg.obj
 0001:0006bbc0       ?rs_content_type_parse@@YAHPADPAURsHead@@@Z 1006cbc0 f   rtsp_msg.obj
 0001:0006bc10       ?rs_content_type_to_str@@YAHPAURsMsgBuf@@PAURsHead@@@Z 1006cc10 f   rtsp_msg.obj
 0001:0006bcb0       ?rs_content_base_parse@@YAHPADPAURsHead@@@Z 1006ccb0 f   rtsp_msg.obj
 0001:0006bd00       ?rs_content_base_to_str@@YAHPAURsMsgBuf@@PAURsHead@@@Z 1006cd00 f   rtsp_msg.obj
 0001:0006bda0       ?rs_cseq_parse@@YAHPADPAURsHead@@@Z 1006cda0 f   rtsp_msg.obj
 0001:0006bde0       ?rs_cseq_to_str@@YAHPAURsMsgBuf@@PAURsHead@@@Z 1006cde0 f   rtsp_msg.obj
 0001:0006be80       ?rs_public_parse@@YAHPADPAURsHead@@@Z 1006ce80 f   rtsp_msg.obj
 0001:0006bed0       ?rs_range_parse@@YAHPADPAURsHead@@@Z 1006ced0 f   rtsp_msg.obj
 0001:0006bfd0       ?rs_range_to_str@@YAHPAURsMsgBuf@@PAURsHead@@@Z 1006cfd0 f   rtsp_msg.obj
 0001:0006c0f0       ?rs_rtp_info_parse@@YAHPADPAURsHead@@@Z 1006d0f0 f   rtsp_msg.obj
 0001:0006c1e0       ?rs_rtp_info_to_str@@YAHPAURsMsgBuf@@PAURsHead@@@Z 1006d1e0 f   rtsp_msg.obj
 0001:0006c2f0       ?rs_scale_parse@@YAHPADPAURsHead@@@Z 1006d2f0 f   rtsp_msg.obj
 0001:0006c3e0       ?rs_scale_to_str@@YAHPAURsMsgBuf@@PAURsHead@@@Z 1006d3e0 f   rtsp_msg.obj
 0001:0006c4b0       ?rs_session_parse@@YAHPADPAURsHead@@@Z 1006d4b0 f   rtsp_msg.obj
 0001:0006c520       ?rs_session_to_str@@YAHPAURsMsgBuf@@PAURsHead@@@Z 1006d520 f   rtsp_msg.obj
 0001:0006c5c0       ?rs_transport_parse@@YAHPADPAURsHead@@@Z 1006d5c0 f   rtsp_msg.obj
 0001:0006c840       ?rs_transport_to_str@@YAHPAURsMsgBuf@@PAURsHead@@@Z 1006d840 f   rtsp_msg.obj
 0001:0006ca30       ?rs_www_auth_parse@@YAHPADPAURsHead@@@Z 1006da30 f   rtsp_msg.obj
 0001:0006cb50       ?rs_gen_auth_response@@YAHPBDPAURsHead@@PAD@Z 1006db50 f   rtsp_msg.obj
 0001:0006cce0       ?vlc_b64_encode_binary@@YAPADPBEI@Z 1006dce0 f   rtsp_msg.obj
 0001:0006cda0       ?rs_www_auth_to_str@@YAHPAURsMsgBuf@@PAURsHead@@@Z 1006dda0 f   rtsp_msg.obj
 0001:0006cf50       ?rs_osd_to_str@@YAHPAURsMsgBuf@@PAUtagRSParm@@E@Z 1006df50 f   rtsp_msg.obj
 0001:0006d0c0       ?rs_timedis_to_str@@YAHPAURsMsgBuf@@PAUtagRSParm@@E@Z 1006e0c0 f   rtsp_msg.obj
 0001:0006d260       ?rs_settime_to_str@@YAHPAURsMsgBuf@@PAUtagRSParm@@E@Z 1006e260 f   rtsp_msg.obj
 0001:0006d4a0       ?rs_preset_to_str@@YAHPAURsMsgBuf@@PAUtagRSParm@@E@Z 1006e4a0 f   rtsp_msg.obj
 0001:0006d540       ?rs_callpreset_to_str@@YAHPAURsMsgBuf@@PAUtagRSParm@@E@Z 1006e540 f   rtsp_msg.obj
 0001:0006d5e0       ?rs_ptz_to_str@@YAHPAURsMsgBuf@@PAUtagRSParm@@E@Z 1006e5e0 f   rtsp_msg.obj
 0001:0006d8a0       ?rs_advptz_to_str@@YAHPAURsMsgBuf@@PAUtagRSParm@@E@Z 1006e8a0 f   rtsp_msg.obj
 0001:0006d8a0       ?rs_assctl_to_str@@YAHPAURsMsgBuf@@PAUtagRSParm@@E@Z 1006e8a0 f   rtsp_msg.obj
 0001:0006d8b0       ?rs_colormod_to_str@@YAHPAURsMsgBuf@@PAUtagRSParm@@E@Z 1006e8b0 f   rtsp_msg.obj
 0001:0006da70       ?rs_camexp_to_str@@YAHPAURsMsgBuf@@PAUtagRSParm@@E@Z 1006ea70 f   rtsp_msg.obj
 0001:0006dc20       ?rs_camshu_to_str@@YAHPAURsMsgBuf@@PAUtagRSParm@@E@Z 1006ec20 f   rtsp_msg.obj
 0001:0006dd00       ?rs_camfoc_to_str@@YAHPAURsMsgBuf@@PAUtagRSParm@@E@Z 1006ed00 f   rtsp_msg.obj
 0001:0006dde0       ?rs_hdmi_to_str@@YAHPAURsMsgBuf@@PAUtagRSParm@@E@Z 1006ede0 f   rtsp_msg.obj
 0001:0006ded0       ?rs_audio_to_str@@YAHPAURsMsgBuf@@PAUtagRSParm@@E@Z 1006eed0 f   rtsp_msg.obj
 0001:0006e0b0       ?rs_encode_to_str@@YAHPAURsMsgBuf@@PAUtagRSParm@@E@Z 1006f0b0 f   rtsp_msg.obj
 0001:0006e250       ?rs_ver_to_str@@YAHPAURsMsgBuf@@PAUtagRSParm@@E@Z 1006f250 f   rtsp_msg.obj
 0001:0006e390       ?rs_time_parse@@YAHPADPAUtagRSParm@@@Z 1006f390 f   rtsp_msg.obj
 0001:0006e5a0       ?rs_colormod_parse@@YAHPADPAUtagRSParm@@@Z 1006f5a0 f   rtsp_msg.obj
 0001:0006e680       ?rs_camexp_parse@@YAHPADPAUtagRSParm@@@Z 1006f680 f   rtsp_msg.obj
 0001:0006e7c0       ?rs_camshu_parse@@YAHPADPAUtagRSParm@@@Z 1006f7c0 f   rtsp_msg.obj
 0001:0006e820       ?rs_camfoc_parse@@YAHPADPAUtagRSParm@@@Z 1006f820 f   rtsp_msg.obj
 0001:0006e870       ?rs_hdmi_parse@@YAHPADPAUtagRSParm@@@Z 1006f870 f   rtsp_msg.obj
 0001:0006e8c0       ?rs_audio_parse@@YAHPADPAUtagRSParm@@@Z 1006f8c0 f   rtsp_msg.obj
 0001:0006ea30       ?rs_encode_parse@@YAHPADPAUtagRSParm@@@Z 1006fa30 f   rtsp_msg.obj
 0001:0006ebc0       ?rs_ver_parse@@YAHPADPAUtagRSParm@@@Z 1006fbc0 f   rtsp_msg.obj
 0001:0006ece0       ?rs_req_line_to_str@@YAHPAURsMsgBuf@@PAURsReqLine@@@Z 1006fce0 f   rtsp_msg.obj
 0001:0006ed80       ?rs_stat_line_parse@@YAHPADPAURsStateLine@@@Z 1006fd80 f   rtsp_msg.obj
 0001:0006ee20       ?rs_strncasecmp@@YAHPAD0H@Z 1006fe20 f   rtsp_msg.obj
 0001:0006ee70       ?head_type_match@@YAHPADH@Z 1006fe70 f   rtsp_msg.obj
 0001:0006eeb0       ?head_type_get@@YAHPAD@Z   1006feb0 f   rtsp_msg.obj
 0001:0006f030       ?rs_head_parse@@YAHPADPAURseponse@@@Z 10070030 f   rtsp_msg.obj
 0001:0006f0d0       ?rs_head_to_str@@YAHPAURsMsgBuf@@PAURsHead@@@Z 100700d0 f   rtsp_msg.obj
 0001:0006f140       ?rs_req_to_str@@YAHPADHPAURsReq@@@Z 10070140 f   rtsp_msg.obj
 0001:0006f230       ?sdp_a_rtpmap_parse@@YAHPADPAUSdpA@@@Z 10070230 f   rtsp_msg.obj
 0001:0006f2f0       ?sdp_a_ctrl_parse@@YAHPADPAUSdpA@@@Z 100702f0 f   rtsp_msg.obj
 0001:0006f390       ?sdp_a_parse@@YAHPADPAUSdpA@@@Z 10070390 f   rtsp_msg.obj
 0001:0006f430       ?sdp_media_parse@@YAHPADPAUSdpM@@@Z 10070430 f   rtsp_msg.obj
 0001:0006f580       ?rtsp_memcpy@@YAXPAX0KK@Z  10070580 f   rtsp_msg.obj
 0001:0006f5c0       ?rs_sdp_parse@@YAHPADPAURsSdpMsg@@@Z 100705c0 f   rtsp_msg.obj
 0001:0006f830       ?rs_rsp_parse@@YAHPADPAURseponse@@@Z 10070830 f   rtsp_msg.obj
 0001:0006f930       ?req_line_gen@@YAXHPAUtagRtspSession@@PAURsReqLine@@PAD@Z 10070930 f   rtsp_msg.obj
 0001:0006fa40       ?rs_req_send@@YAHPAUtagRtspSession@@PAURsReq@@@Z 10070a40 f   rtsp_msg.obj
 0001:0006fab0       ?rs_head_gen@@YAHPAUtagRtspSession@@PAURsReq@@KPAD@Z 10070ab0 f   rtsp_msg.obj
 0001:0006fc90       ?rs_bind@@YAHHG@Z          10070c90 f   rtsp_sock.obj
 0001:0006fd30       ?rs_connectbyPort@@YAHHKGG@Z 10070d30 f   rtsp_sock.obj
 0001:0006fe80       ?rs_close@@YAHH@Z          10070e80 f   rtsp_sock.obj
 0001:0006feb0       ?rs_fdset_del@@YAXPAURsfdset@@H@Z 10070eb0 f   rtsp_sock.obj
 0001:0006ff10       ?rs_sock_del@@YAXPAUtagRtspSession@@@Z 10070f10 f   rtsp_sock.obj
 0001:0006ff50       ?rs_check_msg@@YAHPADH@Z   10070f50 f   rtsp_sock.obj
 0001:00070060       ?rs_msg_recv@@YAHPAUtagRtspSession@@PAE@Z 10071060 f   rtsp_sock.obj
 0001:00070270       ?rs_recv@@YAHPAUtagRtspSession@@PAE@Z 10071270 f   rtsp_sock.obj
 0001:00070c10       ?rs_send@@YAHPAUtagRtspSession@@@Z 10071c10 f   rtsp_sock.obj
 0001:00070ca0       ?rs_get_timestamp@@YAHPAUtagRsMediaSocket@@@Z 10071ca0 f   rtsp_sock.obj
 0001:00070ce0       ?rs_mediasock_create@@YAHPAUtagRtspSession@@PAUtagRsMediaSocket@@@Z 10071ce0 f   rtsp_sock.obj
 0001:00070d60       _rs_next_line              10071d60 f   rtsp_str.obj
 0001:00070db0       _rs_next_mark              10071db0 f   rtsp_str.obj
 0001:00070dd0       _rs_str_add                10071dd0 f   rtsp_str.obj
 0001:00070e10       ??0CRtspWrapper@@QAE@XZ    10071e10 f   rtspwraper.obj
 0001:00070e60       ??_ECRtspWrapper@@UAEPAXI@Z 10071e60 f i  CIL library: CIL module
 0001:00070e60       ??_GCRtspWrapper@@UAEPAXI@Z 10071e60 f i rtspwraper.obj
 0001:00070ed0       ??1CRtspWrapper@@UAE@XZ    10071ed0 f   rtspwraper.obj
 0001:00070f20       ?Init@CRtspWrapper@@SA_NXZ 10071f20 f   rtspwraper.obj
 0001:00070f50       ?StartPlay@CRtspWrapper@@QAE_NKGKGGGGGGGPBD00AAK@Z 10071f50 f   rtspwraper.obj
 0001:000711f0       ?StopPlay@CRtspWrapper@@QAEXK@Z 100721f0 f   rtspwraper.obj
 0001:00071280       ?ThreadProcRecv@CRtspWrapper@@SGKPAX@Z 10072280 f   rtspwraper.obj
 0001:000712d0       ?TimerProc@CRtspWrapper@@SGXPAUHWND__@@IIK@Z 100722d0 f   rtspwraper.obj
 0001:00071380       ?OnCBMsgRtsp@CRtspWrapper@@QAEXUtagRtspMsg@@PAEGPAX@Z 10072380 f   rtspwraper.obj
 0001:000717e0       ?CBMsgRtsp@CRtspWrapper@@SAXUtagRtspMsg@@PAEGPAX@Z 100727e0 f   rtspwraper.obj
 0001:00071890       ?erase@?$_Tree@V?$_Tmap_traits@KKU?$less@K@std@@V?$allocator@U?$pair@$$CBKK@std@@@2@$0A@@std@@@std@@QAEIABK@Z 10072890 f i rtspwraper.obj
 0001:00071900       ??1?$_Tree_val@V?$_Tmap_traits@KPAVCUploadSysThread@@U?$less@K@std@@V?$allocator@U?$pair@$$CBKPAVCUploadSysThread@@@std@@@3@$0A@@std@@@std@@QAE@XZ 10072900 f i uploadsys.obj
 0001:00071900       ??1?$_Tree_val@V?$_Tmap_traits@KPAUtagHandleParam@@U?$less@K@std@@V?$allocator@U?$pair@$$CBKPAUtagHandleParam@@@std@@@3@$0A@@std@@@std@@QAE@XZ 10072900 f i aucmanager.obj
 0001:00071900       ??1?$_Tree_val@V?$_Tmap_traits@KV?$basic_string@DU?$char_traits@D@std@@V?$allocator@D@2@@std@@U?$less@K@2@V?$allocator@U?$pair@$$CBKV?$basic_string@DU?$char_traits@D@std@@V?$allocator@D@2@@std@@@std@@@2@$0A@@std@@@std@@QAE@XZ 10072900 f i aucmanager.obj
 0001:00071900       ??1?$_Tree_val@V?$_Tmap_traits@KKU?$less@K@std@@V?$allocator@U?$pair@$$CBKK@std@@@2@$0A@@std@@@std@@QAE@XZ 10072900 f i rtspwraper.obj
 0001:00071900       ??1?$_Tree_val@V?$_Tmap_traits@KUtagConnectInfo@@U?$less@K@std@@V?$allocator@U?$pair@$$CBKUtagConnectInfo@@@std@@@3@$0A@@std@@@std@@QAE@XZ 10072900 f i connectmgr.obj
 0001:00071910       ?_Tidy@?$_Tree@V?$_Tmap_traits@KKU?$less@K@std@@V?$allocator@U?$pair@$$CBKK@std@@@2@$0A@@std@@@std@@IAEXXZ 10072910 f i rtspwraper.obj
 0001:00071910       ?_Tidy@?$_Tree@V?$_Tmap_traits@KPAUtagHandleParam@@U?$less@K@std@@V?$allocator@U?$pair@$$CBKPAUtagHandleParam@@@std@@@3@$0A@@std@@@std@@IAEXXZ 10072910 f i aucmanager.obj
 0001:00071950       ?_Rrotate@?$_Tree@V?$_Tmap_traits@KKU?$less@K@std@@V?$allocator@U?$pair@$$CBKK@std@@@2@$0A@@std@@@std@@IAEXPAU_Node@?$_Tree_nod@V?$_Tmap_traits@KKU?$less@K@std@@V?$allocator@U?$pair@$$CBKK@std@@@2@$0A@@std@@@2@@Z 10072950 f i rtspwraper.obj
 0001:00071950       ?_Rrotate@?$_Tree@V?$_Tmap_traits@KPAVCUploadSysThread@@U?$less@K@std@@V?$allocator@U?$pair@$$CBKPAVCUploadSysThread@@@std@@@3@$0A@@std@@@std@@IAEXPAU_Node@?$_Tree_nod@V?$_Tmap_traits@KPAVCUploadSysThread@@U?$less@K@std@@V?$allocator@U?$pair@$$CBKPAVCUploadSysThread@@@std@@@3@$0A@@std@@@2@@Z 10072950 f i uploadsys.obj
 0001:00071950       ?_Rrotate@?$_Tree@V?$_Tmap_traits@KPAUtagHandleParam@@U?$less@K@std@@V?$allocator@U?$pair@$$CBKPAUtagHandleParam@@@std@@@3@$0A@@std@@@std@@IAEXPAU_Node@?$_Tree_nod@V?$_Tmap_traits@KPAUtagHandleParam@@U?$less@K@std@@V?$allocator@U?$pair@$$CBKPAUtagHandleParam@@@std@@@3@$0A@@std@@@2@@Z 10072950 f i aucmanager.obj
 0001:000719a0       ??_ECRtspWrapperMeta@@UAEPAXI@Z 100729a0 f i  CIL library: CIL module
 0001:000719a0       ??_GCRtspWrapperMeta@@UAEPAXI@Z 100729a0 f i rtspwrapermeta.obj
 0001:00071a10       ??1CRtspWrapperMeta@@UAE@XZ 10072a10 f   rtspwrapermeta.obj
 0001:00071a60       ?StartPlay@CRtspWrapperMeta@@QAE_NKGKGGGGGGGPBD00AAK_N@Z 10072a60 f   rtspwrapermeta.obj
 0001:00071d10       ?StopPlay@CRtspWrapperMeta@@QAEXK@Z 10072d10 f   rtspwrapermeta.obj
 0001:00071da0       ?KillRecvProc@CRtspWrapperMeta@@IAEXXZ 10072da0 f   rtspwrapermeta.obj
 0001:00071da0       ?KillRecvProc@CRtspWrapper@@IAEXXZ 10072da0 f   rtspwraper.obj
 0001:00071e30       ?TimerProc@CRtspWrapperMeta@@SGXPAUHWND__@@IIK@Z 10072e30 f   rtspwrapermeta.obj
 0001:00071ee0       ?OnCBMsgRtsp@CRtspWrapperMeta@@QAEXUtagRtspMsg@@PAEGPAX@Z 10072ee0 f   rtspwrapermeta.obj
 0001:00072320       ?CBMsgRtsp@CRtspWrapperMeta@@SAXUtagRtspMsg@@PAEGPAX@Z 10073320 f   rtspwrapermeta.obj
 0001:000723d0       ?Start@CBaseThread@@QAE_NPAX0P6GI0@Z@Z 100733d0 f   threadbase.obj
 0001:00072460       ?Exit@CBaseThread@@QAE_NXZ 10073460 f   threadbase.obj
 0001:00072500       ?AddNewThread@CUploadSysThread@@SAXKPAV1@@Z 10073500 f   uploadsys.obj
 0001:000725a0       ?DelNewThread@CUploadSysThread@@SAXK@Z 100735a0 f   uploadsys.obj
 0001:00072610       ??_GCUploadSysThread@@QAEPAXI@Z 10073610 f i uploadsys.obj
 0001:00072650       ?SysUpGradeThreadProc@@YGIPAX@Z 10073650 f   uploadsys.obj
 0001:00072e80       ?StartUpload@CUploadSysThread@@SAHKGPAX@Z 10073e80 f   uploadsys.obj
 0001:00072ee0       ??A?$map@KPAVCUploadSysThread@@U?$less@K@std@@V?$allocator@U?$pair@$$CBKPAVCUploadSysThread@@@std@@@3@@std@@QAEAAPAVCUploadSysThread@@ABK@Z 10073ee0 f i uploadsys.obj
 0001:00072fa0       ?erase@?$_Tree@V?$_Tmap_traits@KPAVCUploadSysThread@@U?$less@K@std@@V?$allocator@U?$pair@$$CBKPAVCUploadSysThread@@@std@@@3@$0A@@std@@@std@@QAEIABK@Z 10073fa0 f i uploadsys.obj
 0001:00073010       ??0?$_Tree@V?$_Tmap_traits@KKU?$less@K@std@@V?$allocator@U?$pair@$$CBKK@std@@@2@$0A@@std@@@std@@QAE@ABU?$less@K@1@ABV?$allocator@U?$pair@$$CBKK@std@@@1@@Z 10074010 f i rtspwraper.obj
 0001:00073010       ??0?$_Tree@V?$_Tmap_traits@KPAVCUploadSysThread@@U?$less@K@std@@V?$allocator@U?$pair@$$CBKPAVCUploadSysThread@@@std@@@3@$0A@@std@@@std@@QAE@ABU?$less@K@1@ABV?$allocator@U?$pair@$$CBKPAVCUploadSysThread@@@std@@@1@@Z 10074010 f i uploadsys.obj
 0001:00073010       ??0?$_Tree@V?$_Tmap_traits@KPAUtagHandleParam@@U?$less@K@std@@V?$allocator@U?$pair@$$CBKPAUtagHandleParam@@@std@@@3@$0A@@std@@@std@@QAE@ABU?$less@K@1@ABV?$allocator@U?$pair@$$CBKPAUtagHandleParam@@@std@@@1@@Z 10074010 f i aucmanager.obj
 0001:00073090       ?erase@?$_Tree@V?$_Tmap_traits@KPAUtagHandleParam@@U?$less@K@std@@V?$allocator@U?$pair@$$CBKPAUtagHandleParam@@@std@@@3@$0A@@std@@@std@@QAE?AViterator@12@Vconst_iterator@12@0@Z 10074090 f i aucmanager.obj
 0001:00073090       ?erase@?$_Tree@V?$_Tmap_traits@KPAVCUploadSysThread@@U?$less@K@std@@V?$allocator@U?$pair@$$CBKPAVCUploadSysThread@@@std@@@3@$0A@@std@@@std@@QAE?AViterator@12@Vconst_iterator@12@0@Z 10074090 f i uploadsys.obj
 0001:00073090       ?erase@?$_Tree@V?$_Tmap_traits@KKU?$less@K@std@@V?$allocator@U?$pair@$$CBKK@std@@@2@$0A@@std@@@std@@QAE?AViterator@12@Vconst_iterator@12@0@Z 10074090 f i rtspwraper.obj
 0001:00073170       ?_Erase@?$_Tree@V?$_Tmap_traits@KPAVCVersionMgr@@U?$less@K@std@@V?$allocator@U?$pair@$$CBKPAVCVersionMgr@@@std@@@3@$0A@@std@@@std@@IAEXPAU_Node@?$_Tree_nod@V?$_Tmap_traits@KPAVCVersionMgr@@U?$less@K@std@@V?$allocator@U?$pair@$$CBKPAVCVersionMgr@@@std@@@3@$0A@@std@@@2@@Z 10074170 f i vermanager.obj
 0001:00073170       ?_Erase@?$_Tree@V?$_Tmap_traits@KPAVCUploadSysThread@@U?$less@K@std@@V?$allocator@U?$pair@$$CBKPAVCUploadSysThread@@@std@@@3@$0A@@std@@@std@@IAEXPAU_Node@?$_Tree_nod@V?$_Tmap_traits@KPAVCUploadSysThread@@U?$less@K@std@@V?$allocator@U?$pair@$$CBKPAVCUploadSysThread@@@std@@@3@$0A@@std@@@2@@Z 10074170 f i uploadsys.obj
 0001:00073170       ?_Erase@?$_Tree@V?$_Tmap_traits@KKU?$less@K@std@@V?$allocator@U?$pair@$$CBKK@std@@@2@$0A@@std@@@std@@IAEXPAU_Node@?$_Tree_nod@V?$_Tmap_traits@KKU?$less@K@std@@V?$allocator@U?$pair@$$CBKK@std@@@2@$0A@@std@@@2@@Z 10074170 f i rtspwraper.obj
 0001:00073170       ?_Erase@?$_Tree@V?$_Tmap_traits@KPAUtagHandleParam@@U?$less@K@std@@V?$allocator@U?$pair@$$CBKPAUtagHandleParam@@@std@@@3@$0A@@std@@@std@@IAEXPAU_Node@?$_Tree_nod@V?$_Tmap_traits@KPAUtagHandleParam@@U?$less@K@std@@V?$allocator@U?$pair@$$CBKPAUtagHandleParam@@@std@@@3@$0A@@std@@@2@@Z 10074170 f i aucmanager.obj
 0001:000731b0       ?insert@?$_Tree@V?$_Tmap_traits@KKU?$less@K@std@@V?$allocator@U?$pair@$$CBKK@std@@@2@$0A@@std@@@std@@QAE?AU?$pair@Viterator@?$_Tree@V?$_Tmap_traits@KKU?$less@K@std@@V?$allocator@U?$pair@$$CBKK@std@@@2@$0A@@std@@@std@@_N@2@ABU?$pair@$$CBKK@2@@Z 100741b0 f i rtspwraper.obj
 0001:000731b0       ?insert@?$_Tree@V?$_Tmap_traits@KPAUtagHandleParam@@U?$less@K@std@@V?$allocator@U?$pair@$$CBKPAUtagHandleParam@@@std@@@3@$0A@@std@@@std@@QAE?AU?$pair@Viterator@?$_Tree@V?$_Tmap_traits@KPAUtagHandleParam@@U?$less@K@std@@V?$allocator@U?$pair@$$CBKPAUtagHandleParam@@@std@@@3@$0A@@std@@@std@@_N@2@ABU?$pair@$$CBKPAUtagHandleParam@@@2@@Z 100741b0 f i aucmanager.obj
 0001:000731b0       ?insert@?$_Tree@V?$_Tmap_traits@KPAVCUploadSysThread@@U?$less@K@std@@V?$allocator@U?$pair@$$CBKPAVCUploadSysThread@@@std@@@3@$0A@@std@@@std@@QAE?AU?$pair@Viterator@?$_Tree@V?$_Tmap_traits@KPAVCUploadSysThread@@U?$less@K@std@@V?$allocator@U?$pair@$$CBKPAVCUploadSysThread@@@std@@@3@$0A@@std@@@std@@_N@2@ABU?$pair@$$CBKPAVCUploadSysThread@@@2@@Z 100741b0 f i uploadsys.obj
 0001:000732a0       ?erase@?$_Tree@V?$_Tmap_traits@KPAUtagHandleParam@@U?$less@K@std@@V?$allocator@U?$pair@$$CBKPAUtagHandleParam@@@std@@@3@$0A@@std@@@std@@QAE?AViterator@12@Vconst_iterator@12@@Z 100742a0 f i aucmanager.obj
 0001:000732a0       ?erase@?$_Tree@V?$_Tmap_traits@KPAVCUploadSysThread@@U?$less@K@std@@V?$allocator@U?$pair@$$CBKPAVCUploadSysThread@@@std@@@3@$0A@@std@@@std@@QAE?AViterator@12@Vconst_iterator@12@@Z 100742a0 f i uploadsys.obj
 0001:000732a0       ?erase@?$_Tree@V?$_Tmap_traits@KKU?$less@K@std@@V?$allocator@U?$pair@$$CBKK@std@@@2@$0A@@std@@@std@@QAE?AViterator@12@Vconst_iterator@12@@Z 100742a0 f i rtspwraper.obj
 0001:00073560       ?_Eqrange@?$_Tree@V?$_Tmap_traits@KPAVCUploadSysThread@@U?$less@K@std@@V?$allocator@U?$pair@$$CBKPAVCUploadSysThread@@@std@@@3@$0A@@std@@@std@@IAE?AU?$pair@Viterator@?$_Tree@V?$_Tmap_traits@KPAVCUploadSysThread@@U?$less@K@std@@V?$allocator@U?$pair@$$CBKPAVCUploadSysThread@@@std@@@3@$0A@@std@@@std@@V123@@2@ABK@Z 10074560 f i uploadsys.obj
 0001:00073560       ?_Eqrange@?$_Tree@V?$_Tmap_traits@KKU?$less@K@std@@V?$allocator@U?$pair@$$CBKK@std@@@2@$0A@@std@@@std@@IAE?AU?$pair@Viterator@?$_Tree@V?$_Tmap_traits@KKU?$less@K@std@@V?$allocator@U?$pair@$$CBKK@std@@@2@$0A@@std@@@std@@V123@@2@ABK@Z 10074560 f i rtspwraper.obj
 0001:000735f0       ?_Insert@?$_Tree@V?$_Tmap_traits@KPAVCUploadSysThread@@U?$less@K@std@@V?$allocator@U?$pair@$$CBKPAVCUploadSysThread@@@std@@@3@$0A@@std@@@std@@IAE?AViterator@12@_NPAU_Node@?$_Tree_nod@V?$_Tmap_traits@KPAVCUploadSysThread@@U?$less@K@std@@V?$allocator@U?$pair@$$CBKPAVCUploadSysThread@@@std@@@3@$0A@@std@@@2@ABU?$pair@$$CBKPAVCUploadSysThread@@@2@@Z 100745f0 f i uploadsys.obj
 0001:000735f0       ?_Insert@?$_Tree@V?$_Tmap_traits@KKU?$less@K@std@@V?$allocator@U?$pair@$$CBKK@std@@@2@$0A@@std@@@std@@IAE?AViterator@12@_NPAU_Node@?$_Tree_nod@V?$_Tmap_traits@KKU?$less@K@std@@V?$allocator@U?$pair@$$CBKK@std@@@2@$0A@@std@@@2@ABU?$pair@$$CBKK@2@@Z 100745f0 f i rtspwraper.obj
 0001:000735f0       ?_Insert@?$_Tree@V?$_Tmap_traits@KPAUtagHandleParam@@U?$less@K@std@@V?$allocator@U?$pair@$$CBKPAUtagHandleParam@@@std@@@3@$0A@@std@@@std@@IAE?AViterator@12@_NPAU_Node@?$_Tree_nod@V?$_Tmap_traits@KPAUtagHandleParam@@U?$less@K@std@@V?$allocator@U?$pair@$$CBKPAUtagHandleParam@@@std@@@3@$0A@@std@@@2@ABU?$pair@$$CBKPAUtagHandleParam@@@2@@Z 100745f0 f i aucmanager.obj
 0001:00073830       ?_Dec@const_iterator@?$_Tree@V?$_Tmap_traits@KPAUtagHandleParam@@U?$less@K@std@@V?$allocator@U?$pair@$$CBKPAUtagHandleParam@@@std@@@3@$0A@@std@@@std@@QAEXXZ 10074830 f i aucmanager.obj
 0001:00073830       ?_Dec@const_iterator@?$_Tree@V?$_Tmap_traits@KKU?$less@K@std@@V?$allocator@U?$pair@$$CBKK@std@@@2@$0A@@std@@@std@@QAEXXZ 10074830 f i rtspwraper.obj
 0001:00073830       ?_Dec@const_iterator@?$_Tree@V?$_Tmap_traits@KPAVCVersionMgr@@U?$less@K@std@@V?$allocator@U?$pair@$$CBKPAVCVersionMgr@@@std@@@3@$0A@@std@@@std@@QAEXXZ 10074830 f i vermanager.obj
 0001:00073830       ?_Dec@const_iterator@?$_Tree@V?$_Tmap_traits@KPAVCUploadSysThread@@U?$less@K@std@@V?$allocator@U?$pair@$$CBKPAVCUploadSysThread@@@std@@@3@$0A@@std@@@std@@QAEXXZ 10074830 f i uploadsys.obj
 0001:000738c0       ??$_Distance@Viterator@?$_Tree@V?$_Tmap_traits@KPAVCUploadSysThread@@U?$less@K@std@@V?$allocator@U?$pair@$$CBKPAVCUploadSysThread@@@std@@@3@$0A@@std@@@std@@I@std@@YAXViterator@?$_Tree@V?$_Tmap_traits@KPAVCUploadSysThread@@U?$less@K@std@@V?$allocator@U?$pair@$$CBKPAVCUploadSysThread@@@std@@@3@$0A@@std@@@0@0AAI@Z 100748c0 f i uploadsys.obj
 0001:000738c0       ??$_Distance@Viterator@?$_Tree@V?$_Tmap_traits@KKU?$less@K@std@@V?$allocator@U?$pair@$$CBKK@std@@@2@$0A@@std@@@std@@I@std@@YAXViterator@?$_Tree@V?$_Tmap_traits@KKU?$less@K@std@@V?$allocator@U?$pair@$$CBKK@std@@@2@$0A@@std@@@0@0AAI@Z 100748c0 f i rtspwraper.obj
 0001:00073910       ?IsMulAuto@CVersionMgr@@SA_NPAX@Z 10074910 f   vermanager.obj
 0001:00073970       ?Init@CVersionMgr@@SAXPAX@Z 10074970 f   vermanager.obj
 0001:00073a20       ?Release@CVersionMgr@@SAXPAX@Z 10074a20 f   vermanager.obj
 0001:00073b10       ?GetVersionMgr@CVersionMgr@@SAPAV1@PAX@Z 10074b10 f   vermanager.obj
 0001:00073b70       ??A?$map@KPAVCVersionMgr@@U?$less@K@std@@V?$allocator@U?$pair@$$CBKPAVCVersionMgr@@@std@@@3@@std@@QAEAAPAVCVersionMgr@@ABK@Z 10074b70 f i vermanager.obj
 0001:00073c10       ?find@?$_Tree@V?$_Tmap_traits@KPAVCVersionMgr@@U?$less@K@std@@V?$allocator@U?$pair@$$CBKPAVCVersionMgr@@@std@@@3@$0A@@std@@@std@@QAE?AViterator@12@ABK@Z 10074c10 f i vermanager.obj
 0001:00073ca0       ??1?$_Tree_val@V?$_Tmap_traits@KPAVCVersionMgr@@U?$less@K@std@@V?$allocator@U?$pair@$$CBKPAVCVersionMgr@@@std@@@3@$0A@@std@@@std@@QAE@XZ 10074ca0 f i vermanager.obj
 0001:00073cb0       ??0?$_Tree@V?$_Tmap_traits@KPAVCVersionMgr@@U?$less@K@std@@V?$allocator@U?$pair@$$CBKPAVCVersionMgr@@@std@@@3@$0A@@std@@@std@@QAE@ABU?$less@K@1@ABV?$allocator@U?$pair@$$CBKPAVCVersionMgr@@@std@@@1@@Z 10074cb0 f i vermanager.obj
 0001:00073d40       ?insert@?$_Tree@V?$_Tmap_traits@KPAVCVersionMgr@@U?$less@K@std@@V?$allocator@U?$pair@$$CBKPAVCVersionMgr@@@std@@@3@$0A@@std@@@std@@QAE?AViterator@12@Vconst_iterator@12@ABU?$pair@$$CBKPAVCVersionMgr@@@2@@Z 10074d40 f i vermanager.obj
 0001:00073ee0       ?erase@?$_Tree@V?$_Tmap_traits@KPAVCVersionMgr@@U?$less@K@std@@V?$allocator@U?$pair@$$CBKPAVCVersionMgr@@@std@@@3@$0A@@std@@@std@@QAE?AViterator@12@Vconst_iterator@12@0@Z 10074ee0 f i vermanager.obj
 0001:00073fe0       ?_Tidy@?$_Tree@V?$_Tmap_traits@KPAVCVersionMgr@@U?$less@K@std@@V?$allocator@U?$pair@$$CBKPAVCVersionMgr@@@std@@@3@$0A@@std@@@std@@IAEXXZ 10074fe0 f i vermanager.obj
 0001:00074030       ??8const_iterator@?$_Tree@V?$_Tmap_traits@KV?$basic_string@DU?$char_traits@D@std@@V?$allocator@D@2@@std@@U?$less@K@2@V?$allocator@U?$pair@$$CBKV?$basic_string@DU?$char_traits@D@std@@V?$allocator@D@2@@std@@@std@@@2@$0A@@std@@@std@@QBE_NABV012@@Z 10075030 f i aucmanager.obj
 0001:00074030       ??8const_iterator@?$_Tree@V?$_Tmap_traits@KPAVCVersionMgr@@U?$less@K@std@@V?$allocator@U?$pair@$$CBKPAVCVersionMgr@@@std@@@3@$0A@@std@@@std@@QBE_NABV012@@Z 10075030 f i vermanager.obj
 0001:00074030       ??8const_iterator@?$_Tree@V?$_Tmap_traits@KUtagConnectInfo@@U?$less@K@std@@V?$allocator@U?$pair@$$CBKUtagConnectInfo@@@std@@@3@$0A@@std@@@std@@QBE_NABV012@@Z 10075030 f i connectmgr.obj
 0001:00074030       ??8const_iterator@?$_Tree@V?$_Tmap_traits@KPAVCUploadSysThread@@U?$less@K@std@@V?$allocator@U?$pair@$$CBKPAVCUploadSysThread@@@std@@@3@$0A@@std@@@std@@QBE_NABV012@@Z 10075030 f i uploadsys.obj
 0001:00074030       ??8const_iterator@?$_Tree@V?$_Tmap_traits@KPAUtagHandleParam@@U?$less@K@std@@V?$allocator@U?$pair@$$CBKPAUtagHandleParam@@@std@@@3@$0A@@std@@@std@@QBE_NABV012@@Z 10075030 f i aucmanager.obj
 0001:00074050       ?insert@?$_Tree@V?$_Tmap_traits@KPAVCVersionMgr@@U?$less@K@std@@V?$allocator@U?$pair@$$CBKPAVCVersionMgr@@@std@@@3@$0A@@std@@@std@@QAE?AU?$pair@Viterator@?$_Tree@V?$_Tmap_traits@KPAVCVersionMgr@@U?$less@K@std@@V?$allocator@U?$pair@$$CBKPAVCVersionMgr@@@std@@@3@$0A@@std@@@std@@_N@2@ABU?$pair@$$CBKPAVCVersionMgr@@@2@@Z 10075050 f i vermanager.obj
 0001:00074140       ?erase@?$_Tree@V?$_Tmap_traits@KPAVCVersionMgr@@U?$less@K@std@@V?$allocator@U?$pair@$$CBKPAVCVersionMgr@@@std@@@3@$0A@@std@@@std@@QAE?AViterator@12@Vconst_iterator@12@@Z 10075140 f i vermanager.obj
 0001:00074420       ?_Insert@?$_Tree@V?$_Tmap_traits@KPAVCVersionMgr@@U?$less@K@std@@V?$allocator@U?$pair@$$CBKPAVCVersionMgr@@@std@@@3@$0A@@std@@@std@@IAE?AViterator@12@_NPAU_Node@?$_Tree_nod@V?$_Tmap_traits@KPAVCVersionMgr@@U?$less@K@std@@V?$allocator@U?$pair@$$CBKPAVCVersionMgr@@@std@@@3@$0A@@std@@@2@ABU?$pair@$$CBKPAVCVersionMgr@@@2@@Z 10075420 f i vermanager.obj
 0001:000746c0       ?_Lrotate@?$_Tree@V?$_Tmap_traits@KPAVCVersionMgr@@U?$less@K@std@@V?$allocator@U?$pair@$$CBKPAVCVersionMgr@@@std@@@3@$0A@@std@@@std@@IAEXPAU_Node@?$_Tree_nod@V?$_Tmap_traits@KPAVCVersionMgr@@U?$less@K@std@@V?$allocator@U?$pair@$$CBKPAVCVersionMgr@@@std@@@3@$0A@@std@@@2@@Z 100756c0 f i vermanager.obj
 0001:00074710       ?_Max@?$_Tree@V?$_Tmap_traits@KKU?$less@K@std@@V?$allocator@U?$pair@$$CBKK@std@@@2@$0A@@std@@@std@@KAPAU_Node@?$_Tree_nod@V?$_Tmap_traits@KKU?$less@K@std@@V?$allocator@U?$pair@$$CBKK@std@@@2@$0A@@std@@@2@PAU342@@Z 10075710 f i rtspwraper.obj
 0001:00074710       ?_Max@?$_Tree@V?$_Tmap_traits@KPAUtagHandleParam@@U?$less@K@std@@V?$allocator@U?$pair@$$CBKPAUtagHandleParam@@@std@@@3@$0A@@std@@@std@@KAPAU_Node@?$_Tree_nod@V?$_Tmap_traits@KPAUtagHandleParam@@U?$less@K@std@@V?$allocator@U?$pair@$$CBKPAUtagHandleParam@@@std@@@3@$0A@@std@@@2@PAU342@@Z 10075710 f i aucmanager.obj
 0001:00074710       ?_Max@?$_Tree@V?$_Tmap_traits@KPAVCVersionMgr@@U?$less@K@std@@V?$allocator@U?$pair@$$CBKPAVCVersionMgr@@@std@@@3@$0A@@std@@@std@@KAPAU_Node@?$_Tree_nod@V?$_Tmap_traits@KPAVCVersionMgr@@U?$less@K@std@@V?$allocator@U?$pair@$$CBKPAVCVersionMgr@@@std@@@3@$0A@@std@@@2@PAU342@@Z 10075710 f i vermanager.obj
 0001:00074710       ?_Max@?$_Tree@V?$_Tmap_traits@KPAVCUploadSysThread@@U?$less@K@std@@V?$allocator@U?$pair@$$CBKPAVCUploadSysThread@@@std@@@3@$0A@@std@@@std@@KAPAU_Node@?$_Tree_nod@V?$_Tmap_traits@KPAVCUploadSysThread@@U?$less@K@std@@V?$allocator@U?$pair@$$CBKPAVCUploadSysThread@@@std@@@3@$0A@@std@@@2@PAU342@@Z 10075710 f i uploadsys.obj
 0001:00074730       ?_Rrotate@?$_Tree@V?$_Tmap_traits@KPAVCVersionMgr@@U?$less@K@std@@V?$allocator@U?$pair@$$CBKPAVCVersionMgr@@@std@@@3@$0A@@std@@@std@@IAEXPAU_Node@?$_Tree_nod@V?$_Tmap_traits@KPAVCVersionMgr@@U?$less@K@std@@V?$allocator@U?$pair@$$CBKPAVCVersionMgr@@@std@@@3@$0A@@std@@@2@@Z 10075730 f i vermanager.obj
 0001:00074780       ?_Buynode@?$_Tree@V?$_Tmap_traits@KPAVCVersionMgr@@U?$less@K@std@@V?$allocator@U?$pair@$$CBKPAVCVersionMgr@@@std@@@3@$0A@@std@@@std@@IAEPAU_Node@?$_Tree_nod@V?$_Tmap_traits@KPAVCVersionMgr@@U?$less@K@std@@V?$allocator@U?$pair@$$CBKPAVCVersionMgr@@@std@@@3@$0A@@std@@@2@PAU342@00ABU?$pair@$$CBKPAVCVersionMgr@@@2@D@Z 10075780 f i vermanager.obj
 0001:00074780       ?_Buynode@?$_Tree@V?$_Tmap_traits@KPAVCUploadSysThread@@U?$less@K@std@@V?$allocator@U?$pair@$$CBKPAVCUploadSysThread@@@std@@@3@$0A@@std@@@std@@IAEPAU_Node@?$_Tree_nod@V?$_Tmap_traits@KPAVCUploadSysThread@@U?$less@K@std@@V?$allocator@U?$pair@$$CBKPAVCUploadSysThread@@@std@@@3@$0A@@std@@@2@PAU342@00ABU?$pair@$$CBKPAVCUploadSysThread@@@2@D@Z 10075780 f i uploadsys.obj
 0001:00074780       ?_Buynode@?$_Tree@V?$_Tmap_traits@KPAUtagHandleParam@@U?$less@K@std@@V?$allocator@U?$pair@$$CBKPAUtagHandleParam@@@std@@@3@$0A@@std@@@std@@IAEPAU_Node@?$_Tree_nod@V?$_Tmap_traits@KPAUtagHandleParam@@U?$less@K@std@@V?$allocator@U?$pair@$$CBKPAUtagHandleParam@@@std@@@3@$0A@@std@@@2@PAU342@00ABU?$pair@$$CBKPAUtagHandleParam@@@2@D@Z 10075780 f i aucmanager.obj
 0001:00074780       ?_Buynode@?$_Tree@V?$_Tmap_traits@KKU?$less@K@std@@V?$allocator@U?$pair@$$CBKK@std@@@2@$0A@@std@@@std@@IAEPAU_Node@?$_Tree_nod@V?$_Tmap_traits@KKU?$less@K@std@@V?$allocator@U?$pair@$$CBKK@std@@@2@$0A@@std@@@2@PAU342@00ABU?$pair@$$CBKK@2@D@Z 10075780 f i rtspwraper.obj
 0001:000747c0       ?_Inc@const_iterator@?$_Tree@V?$_Tmap_traits@KPAVCVersionMgr@@U?$less@K@std@@V?$allocator@U?$pair@$$CBKPAVCVersionMgr@@@std@@@3@$0A@@std@@@std@@QAEXXZ 100757c0 f i vermanager.obj
 0001:000747c0       ?_Inc@const_iterator@?$_Tree@V?$_Tmap_traits@KPAUtagHandleParam@@U?$less@K@std@@V?$allocator@U?$pair@$$CBKPAUtagHandleParam@@@std@@@3@$0A@@std@@@std@@QAEXXZ 100757c0 f i aucmanager.obj
 0001:000747c0       ?_Inc@const_iterator@?$_Tree@V?$_Tmap_traits@KPAVCUploadSysThread@@U?$less@K@std@@V?$allocator@U?$pair@$$CBKPAVCUploadSysThread@@@std@@@3@$0A@@std@@@std@@QAEXXZ 100757c0 f i uploadsys.obj
 0001:000747c0       ?_Inc@const_iterator@?$_Tree@V?$_Tmap_traits@KKU?$less@K@std@@V?$allocator@U?$pair@$$CBKK@std@@@2@$0A@@std@@@std@@QAEXXZ 100757c0 f i rtspwraper.obj
 0001:00074824       ___WSAFDIsSet@8            10075824 f   Ws2_32:WS2_32.dll
 0001:0007482a       ??_U@YAPAXI@Z              1007582a f   msvcprt:newaop_s.obj
 0001:00074835       @__security_check_cookie@4 10075835 f   MSVCRT:secchk.obj
 0001:00074844       ?what@exception@std@@UBEPBDXZ 10075844 f   MSVCRT:MSVCR90.dll
 0001:0007484a       ??0exception@std@@QAE@ABV01@@Z 1007584a f   MSVCRT:MSVCR90.dll
 0001:00074850       ??3@YAXPAX@Z               10075850 f   MSVCRT:MSVCR90.dll
 0001:00074856       ??_Etype_info@@UAEPAXI@Z   10075856 f i MSVCRT:ti_inst.obj
 0001:000748a2       ??2@YAPAXI@Z               100758a2 f   MSVCRT:MSVCR90.dll
 0001:000748a8       __onexit                   100758a8 f   MSVCRT:atonexit.obj
 0001:0007494d       _atexit                    1007594d f   MSVCRT:atonexit.obj
 0001:00074964       ??_V@YAXPAX@Z              10075964 f   MSVCRT:MSVCR90.dll
 0001:000749b9       __CRT_INIT@12              100759b9 f   MSVCRT:crtdll.obj
 0001:00074cf5       __DllMainCRTStartup@12     10075cf5 f   MSVCRT:crtdll.obj
 0001:00074d18       ___report_gsfailure        10075d18 f   MSVCRT:gs_report.obj
 0001:00074e1e       ?__ArrayUnwind@@YGXPAXIHP6EX0@Z@Z 10075e1e f   MSVCRT:ehvecdtr.obj
 0001:00074e7c       ??_M@YGXPAXIHP6EX0@Z@Z     10075e7c f   MSVCRT:ehvecdtr.obj
 0001:00074ee0       __unlock                   10075ee0 f   MSVCRT:MSVCR90.dll
 0001:00074ee6       ___dllonexit               10075ee6 f   MSVCRT:MSVCR90.dll
 0001:00074eec       __lock                     10075eec f   MSVCRT:MSVCR90.dll
 0001:00074ef4       __SEH_prolog4              10075ef4 f   MSVCRT:sehprolg4.obj
 0001:00074f39       __SEH_epilog4              10075f39 f   MSVCRT:sehprolg4.obj
 0001:00074f4d       __except_handler4          10075f4d f   MSVCRT:chandler4gs.obj
 0001:00074f72       ___clean_type_info_names   10075f72 f   MSVCRT:tncleanup.obj
 0001:00074f7e       __RTC_Initialize           10075f7e f   MSVCRT:_initsect_.obj
 0001:00074fa4       __RTC_Terminate            10075fa4 f   MSVCRT:_initsect_.obj
 0001:00074fd0       __ValidateImageBase        10075fd0 f   MSVCRT:pesect.obj
 0001:00075010       __FindPESection            10076010 f   MSVCRT:pesect.obj
 0001:00075060       __IsNonwritableInCurrentImage 10076060 f   MSVCRT:pesect.obj
 0001:0007511e       __initterm                 1007611e f   MSVCRT:MSVCR90.dll
 0001:00075124       __initterm_e               10076124 f   MSVCRT:MSVCR90.dll
 0001:0007512a       __amsg_exit                1007612a f   MSVCRT:MSVCR90.dll
 0001:00075130       ___CppXcptFilter           10076130 f   MSVCRT:MSVCR90.dll
 0001:00075136       _DllMain@12                10076136 f   MSVCRT:dllmain.obj
 0001:0007515a       ___security_init_cookie    1007615a f   MSVCRT:gs_support.obj
 0001:000751f0       __crt_debugger_hook        100761f0 f   MSVCRT:MSVCR90.dll
 0001:000751f6       ?terminate@@YAXXZ          100761f6 f   MSVCRT:MSVCR90.dll
 0001:000751fc       ??1type_info@@UAE@XZ       100761fc f   MSVCRT:MSVCR90.dll
 0001:000751fc       ?_type_info_dtor_internal_method@type_info@@QAEXXZ 100761fc f   MSVCRT:MSVCR90.dll
 0001:00075202       __except_handler4_common   10076202 f   MSVCRT:MSVCR90.dll
 0001:00075208       ___clean_type_info_names_internal 10076208 f   MSVCRT:MSVCR90.dll
 0001:0007520e       _memset                    1007620e f   MSVCRT:MSVCR90.dll
 0001:00075220       _memcpy                    10076220 f   MSVCRT:MSVCR90.dll
 0001:00075226       ___CxxFrameHandler3        10076226 f   MSVCRT:MSVCR90.dll
 0001:0007522c       __CxxThrowException@8      1007622c f   MSVCRT:MSVCR90.dll
 0001:00075240       __chkstk                   10076240 f   MSVCRT:chkstk.obj
 0001:00075240       __alloca_probe             10076240     MSVCRT:chkstk.obj
 0002:00000000       __imp__ClearCommError@12   10079000     kernel32:KERNEL32.dll
 0002:00000004       __imp__GetSystemTimeAsFileTime@4 10079004     kernel32:KERNEL32.dll
 0002:00000008       __imp__GetCurrentProcessId@0 10079008     kernel32:KERNEL32.dll
 0002:0000000c       __imp__QueryPerformanceCounter@4 1007900c     kernel32:KERNEL32.dll
 0002:00000010       __imp__DisableThreadLibraryCalls@4 10079010     kernel32:KERNEL32.dll
 0002:00000014       __imp__IsDebuggerPresent@0 10079014     kernel32:KERNEL32.dll
 0002:00000018       __imp__SetUnhandledExceptionFilter@4 10079018     kernel32:KERNEL32.dll
 0002:0000001c       __imp__UnhandledExceptionFilter@4 1007901c     kernel32:KERNEL32.dll
 0002:00000020       __imp__TerminateProcess@8  10079020     kernel32:KERNEL32.dll
 0002:00000024       __imp__InterlockedCompareExchange@12 10079024     kernel32:KERNEL32.dll
 0002:00000028       __imp__InterlockedExchange@8 10079028     kernel32:KERNEL32.dll
 0002:0000002c       __imp__CreateThread@24     1007902c     kernel32:KERNEL32.dll
 0002:00000030       __imp__ResumeThread@4      10079030     kernel32:KERNEL32.dll
 0002:00000034       __imp__SuspendThread@4     10079034     kernel32:KERNEL32.dll
 0002:00000038       __imp__DuplicateHandle@28  10079038     kernel32:KERNEL32.dll
 0002:0000003c       __imp__SetThreadAffinityMask@8 1007903c     kernel32:KERNEL32.dll
 0002:00000040       __imp__PurgeComm@8         10079040     kernel32:KERNEL32.dll
 0002:00000044       __imp__GetCommTimeouts@8   10079044     kernel32:KERNEL32.dll
 0002:00000048       __imp__GetThreadPriority@4 10079048     kernel32:KERNEL32.dll
 0002:0000004c       __imp__CreatePipe@16       1007904c     kernel32:KERNEL32.dll
 0002:00000050       __imp__GetExitCodeThread@8 10079050     kernel32:KERNEL32.dll
 0002:00000054       __imp__ResetEvent@4        10079054     kernel32:KERNEL32.dll
 0002:00000058       __imp__InitializeCriticalSection@4 10079058     kernel32:KERNEL32.dll
 0002:0000005c       __imp__LeaveCriticalSection@4 1007905c     kernel32:KERNEL32.dll
 0002:00000060       __imp__EnterCriticalSection@4 10079060     kernel32:KERNEL32.dll
 0002:00000064       __imp__DeleteCriticalSection@4 10079064     kernel32:KERNEL32.dll
 0002:00000068       __imp__WaitForSingleObject@8 10079068     kernel32:KERNEL32.dll
 0002:0000006c       __imp__SetEvent@4          1007906c     kernel32:KERNEL32.dll
 0002:00000070       __imp__GetTickCount@0      10079070     kernel32:KERNEL32.dll
 0002:00000074       __imp__Sleep@4             10079074     kernel32:KERNEL32.dll
 0002:00000078       __imp__CreateFileA@28      10079078     kernel32:KERNEL32.dll
 0002:0000007c       __imp__SetFilePointer@16   1007907c     kernel32:KERNEL32.dll
 0002:00000080       __imp__WriteFile@20        10079080     kernel32:KERNEL32.dll
 0002:00000084       __imp__GetLocalTime@4      10079084     kernel32:KERNEL32.dll
 0002:00000088       __imp__CloseHandle@4       10079088     kernel32:KERNEL32.dll
 0002:0000008c       __imp__CreateProcessA@40   1007908c     kernel32:KERNEL32.dll
 0002:00000090       __imp__GetLastError@0      10079090     kernel32:KERNEL32.dll
 0002:00000094       __imp__GetProcAddress@8    10079094     kernel32:KERNEL32.dll
 0002:00000098       __imp__GetModuleFileNameA@12 10079098     kernel32:KERNEL32.dll
 0002:0000009c       __imp__GetModuleHandleA@4  1007909c     kernel32:KERNEL32.dll
 0002:000000a0       __imp__GetCurrentThreadId@0 100790a0     kernel32:KERNEL32.dll
 0002:000000a4       __imp__GlobalMemoryStatus@4 100790a4     kernel32:KERNEL32.dll
 0002:000000a8       __imp__PeekNamedPipe@24    100790a8     kernel32:KERNEL32.dll
 0002:000000ac       __imp__SetLocalTime@4      100790ac     kernel32:KERNEL32.dll
 0002:000000b0       __imp__ReleaseSemaphore@12 100790b0     kernel32:KERNEL32.dll
 0002:000000b4       __imp__GetCommState@8      100790b4     kernel32:KERNEL32.dll
 0002:000000b8       __imp__GetCurrentProcess@0 100790b8     kernel32:KERNEL32.dll
 0002:000000bc       __imp__GetCurrentThread@0  100790bc     kernel32:KERNEL32.dll
 0002:000000c0       __imp__EscapeCommFunction@8 100790c0     kernel32:KERNEL32.dll
 0002:000000c4       __imp__SetCommState@8      100790c4     kernel32:KERNEL32.dll
 0002:000000c8       __imp__SetCommTimeouts@8   100790c8     kernel32:KERNEL32.dll
 0002:000000cc       __imp__TerminateThread@8   100790cc     kernel32:KERNEL32.dll
 0002:000000d0       __imp__CreateSemaphoreA@16 100790d0     kernel32:KERNEL32.dll
 0002:000000d4       __imp__ReadFile@20         100790d4     kernel32:KERNEL32.dll
 0002:000000d8       __imp__ExitThread@4        100790d8     kernel32:KERNEL32.dll
 0002:000000dc       __imp__SetThreadPriority@8 100790dc     kernel32:KERNEL32.dll
 0002:000000e0       __imp__CreateEventA@16     100790e0     kernel32:KERNEL32.dll
 0002:000000e4       \177KERNEL32_NULL_THUNK_DATA 100790e4     kernel32:KERNEL32.dll
 0002:000000e8       __imp_?c_str@?$basic_string@DU?$char_traits@D@std@@V?$allocator@D@2@@std@@QBEPBDXZ 100790e8     msvcprt:MSVCP90.dll
 0002:000000ec       __imp_??4?$basic_string@DU?$char_traits@D@std@@V?$allocator@D@2@@std@@QAEAAV01@PBD@Z 100790ec     msvcprt:MSVCP90.dll
 0002:000000f0       __imp_??4?$basic_string@DU?$char_traits@D@std@@V?$allocator@D@2@@std@@QAEAAV01@ABV01@@Z 100790f0     msvcprt:MSVCP90.dll
 0002:000000f4       __imp_??1?$basic_string@DU?$char_traits@D@std@@V?$allocator@D@2@@std@@QAE@XZ 100790f4     msvcprt:MSVCP90.dll
 0002:000000f8       __imp_??0?$basic_string@DU?$char_traits@D@std@@V?$allocator@D@2@@std@@QAE@ABV01@@Z 100790f8     msvcprt:MSVCP90.dll
 0002:000000fc       __imp_??0?$basic_string@DU?$char_traits@D@std@@V?$allocator@D@2@@std@@QAE@XZ 100790fc     msvcprt:MSVCP90.dll
 0002:00000100       __imp_?push_back@?$basic_string@DU?$char_traits@D@std@@V?$allocator@D@2@@std@@QAEXD@Z 10079100     msvcprt:MSVCP90.dll
 0002:00000104       __imp_?substr@?$basic_string@DU?$char_traits@D@std@@V?$allocator@D@2@@std@@QBE?AV12@II@Z 10079104     msvcprt:MSVCP90.dll
 0002:00000108       __imp_?find@?$basic_string@DU?$char_traits@D@std@@V?$allocator@D@2@@std@@QBEIPBDI@Z 10079108     msvcprt:MSVCP90.dll
 0002:0000010c       __imp_?length@?$basic_string@DU?$char_traits@D@std@@V?$allocator@D@2@@std@@QBEIXZ 1007910c     msvcprt:MSVCP90.dll
 0002:00000110       __imp_??0?$basic_string@DU?$char_traits@D@std@@V?$allocator@D@2@@std@@QAE@PBD@Z 10079110     msvcprt:MSVCP90.dll
 0002:00000114       \177MSVCP90_NULL_THUNK_DATA 10079114     msvcprt:MSVCP90.dll
 0002:00000118       __imp___encoded_null       10079118     MSVCRT:MSVCR90.dll
 0002:0000011c       __imp___decode_pointer     1007911c     MSVCRT:MSVCR90.dll
 0002:00000120       __imp___onexit             10079120     MSVCRT:MSVCR90.dll
 0002:00000124       __imp___lock               10079124     MSVCRT:MSVCR90.dll
 0002:00000128       __imp___initterm           10079128     MSVCRT:MSVCR90.dll
 0002:0000012c       __imp___initterm_e         1007912c     MSVCRT:MSVCR90.dll
 0002:00000130       __imp___amsg_exit          10079130     MSVCRT:MSVCR90.dll
 0002:00000134       __imp___adjust_fdiv        10079134     MSVCRT:MSVCR90.dll
 0002:00000138       __imp____CppXcptFilter     10079138     MSVCRT:MSVCR90.dll
 0002:0000013c       __imp___crt_debugger_hook  1007913c     MSVCRT:MSVCR90.dll
 0002:00000140       __imp___CxxThrowException@8 10079140     MSVCRT:MSVCR90.dll
 0002:00000144       __imp_?terminate@@YAXXZ    10079144     MSVCRT:MSVCR90.dll
 0002:00000148       __imp_?_type_info_dtor_internal_method@type_info@@QAEXXZ 10079148     MSVCRT:MSVCR90.dll
 0002:0000014c       __imp___except_handler4_common 1007914c     MSVCRT:MSVCR90.dll
 0002:00000150       __imp____clean_type_info_names_internal 10079150     MSVCRT:MSVCR90.dll
 0002:00000154       __imp__memset              10079154     MSVCRT:MSVCR90.dll
 0002:00000158       __imp__memcpy              10079158     MSVCRT:MSVCR90.dll
 0002:0000015c       __imp____CxxFrameHandler3  1007915c     MSVCRT:MSVCR90.dll
 0002:00000160       __imp___malloc_crt         10079160     MSVCRT:MSVCR90.dll
 0002:00000164       __imp__sprintf             10079164     MSVCRT:MSVCR90.dll
 0002:00000168       __imp_?what@exception@std@@UBEPBDXZ 10079168     MSVCRT:MSVCR90.dll
 0002:0000016c       __imp_??1exception@std@@UAE@XZ 1007916c     MSVCRT:MSVCR90.dll
 0002:00000170       __imp_??0exception@std@@QAE@XZ 10079170     MSVCRT:MSVCR90.dll
 0002:00000174       __imp_??0exception@std@@QAE@ABQBD@Z 10079174     MSVCRT:MSVCR90.dll
 0002:00000178       __imp_??0exception@std@@QAE@ABV01@@Z 10079178     MSVCRT:MSVCR90.dll
 0002:0000017c       __imp___invalid_parameter_noinfo 1007917c     MSVCRT:MSVCR90.dll
 0002:00000180       __imp_??3@YAXPAX@Z         10079180     MSVCRT:MSVCR90.dll
 0002:00000184       __imp_??2@YAPAXI@Z         10079184     MSVCRT:MSVCR90.dll
 0002:00000188       __imp___mktime64           10079188     MSVCRT:MSVCR90.dll
 0002:0000018c       __imp__sscanf              1007918c     MSVCRT:MSVCR90.dll
 0002:00000190       __imp___strlwr             10079190     MSVCRT:MSVCR90.dll
 0002:00000194       __imp__free                10079194     MSVCRT:MSVCR90.dll
 0002:00000198       __imp__malloc              10079198     MSVCRT:MSVCR90.dll
 0002:0000019c       __imp___localtime64_s      1007919c     MSVCRT:MSVCR90.dll
 0002:000001a0       __imp__strstr              100791a0     MSVCRT:MSVCR90.dll
 0002:000001a4       __imp__atoi                100791a4     MSVCRT:MSVCR90.dll
 0002:000001a8       __imp__strncpy             100791a8     MSVCRT:MSVCR90.dll
 0002:000001ac       __imp_??_V@YAXPAX@Z        100791ac     MSVCRT:MSVCR90.dll
 0002:000001b0       __imp__atol                100791b0     MSVCRT:MSVCR90.dll
 0002:000001b4       __imp__strtoul             100791b4     MSVCRT:MSVCR90.dll
 0002:000001b8       __imp___localtime64        100791b8     MSVCRT:MSVCR90.dll
 0002:000001bc       __imp___time64             100791bc     MSVCRT:MSVCR90.dll
 0002:000001c0       __imp__printf              100791c0     MSVCRT:MSVCR90.dll
 0002:000001c4       __imp__fopen               100791c4     MSVCRT:MSVCR90.dll
 0002:000001c8       __imp__fread               100791c8     MSVCRT:MSVCR90.dll
 0002:000001cc       __imp__ftell               100791cc     MSVCRT:MSVCR90.dll
 0002:000001d0       __imp__fseek               100791d0     MSVCRT:MSVCR90.dll
 0002:000001d4       __imp__fclose              100791d4     MSVCRT:MSVCR90.dll
 0002:000001d8       __imp__memmove             100791d8     MSVCRT:MSVCR90.dll
 0002:000001dc       __imp___errno              100791dc     MSVCRT:MSVCR90.dll
 0002:000001e0       __imp__strtok              100791e0     MSVCRT:MSVCR90.dll
 0002:000001e4       __imp__isdigit             100791e4     MSVCRT:MSVCR90.dll
 0002:000001e8       __imp__isupper             100791e8     MSVCRT:MSVCR90.dll
 0002:000001ec       __imp__islower             100791ec     MSVCRT:MSVCR90.dll
 0002:000001f0       __imp__perror              100791f0     MSVCRT:MSVCR90.dll
 0002:000001f4       __imp__vsprintf            100791f4     MSVCRT:MSVCR90.dll
 0002:000001f8       __imp__feof                100791f8     MSVCRT:MSVCR90.dll
 0002:000001fc       __imp__fwrite              100791fc     MSVCRT:MSVCR90.dll
 0002:00000200       __imp__strncmp             10079200     MSVCRT:MSVCR90.dll
 0002:00000204       __imp__strerror            10079204     MSVCRT:MSVCR90.dll
 0002:00000208       __imp__strncat             10079208     MSVCRT:MSVCR90.dll
 0002:0000020c       __imp__strchr              1007920c     MSVCRT:MSVCR90.dll
 0002:00000210       __imp__tolower             10079210     MSVCRT:MSVCR90.dll
 0002:00000214       __imp___beginthreadex      10079214     MSVCRT:MSVCR90.dll
 0002:00000218       __imp___unlock             10079218     MSVCRT:MSVCR90.dll
 0002:0000021c       __imp____dllonexit         1007921c     MSVCRT:MSVCR90.dll
 0002:00000220       __imp___encode_pointer     10079220     MSVCRT:MSVCR90.dll
 0002:00000224       \177MSVCR90_NULL_THUNK_DATA 10079224     MSVCRT:MSVCR90.dll
 0002:00000228       __imp__SetTimer@16         10079228     user32:USER32.dll
 0002:0000022c       __imp__KillTimer@8         1007922c     user32:USER32.dll
 0002:00000230       \177USER32_NULL_THUNK_DATA 10079230     user32:USER32.dll
 0002:00000234       __imp__getpeername@12      10079234     Ws2_32:WS2_32.dll
 0002:00000238       __imp__ntohl@4             10079238     Ws2_32:WS2_32.dll
 0002:0000023c       __imp__ntohs@4             1007923c     Ws2_32:WS2_32.dll
 0002:00000240       __imp__getsockname@12      10079240     Ws2_32:WS2_32.dll
 0002:00000244       __imp__sendto@24           10079244     Ws2_32:WS2_32.dll
 0002:00000248       __imp__gethostname@8       10079248     Ws2_32:WS2_32.dll
 0002:0000024c       __imp__bind@12             1007924c     Ws2_32:WS2_32.dll
 0002:00000250       __imp__gethostbyname@4     10079250     Ws2_32:WS2_32.dll
 0002:00000254       __imp__listen@8            10079254     Ws2_32:WS2_32.dll
 0002:00000258       __imp____WSAFDIsSet@8      10079258     Ws2_32:WS2_32.dll
 0002:0000025c       __imp__accept@12           1007925c     Ws2_32:WS2_32.dll
 0002:00000260       __imp__ioctlsocket@12      10079260     Ws2_32:WS2_32.dll
 0002:00000264       __imp__connect@12          10079264     Ws2_32:WS2_32.dll
 0002:00000268       __imp__WSAStartup@8        10079268     Ws2_32:WS2_32.dll
 0002:0000026c       __imp__select@20           1007926c     Ws2_32:WS2_32.dll
 0002:00000270       __imp__WSAGetLastError@0   10079270     Ws2_32:WS2_32.dll
 0002:00000274       __imp__htons@4             10079274     Ws2_32:WS2_32.dll
 0002:00000278       __imp__setsockopt@20       10079278     Ws2_32:WS2_32.dll
 0002:0000027c       __imp__WSACleanup@0        1007927c     Ws2_32:WS2_32.dll
 0002:00000280       __imp__recv@16             10079280     Ws2_32:WS2_32.dll
 0002:00000284       __imp__socket@12           10079284     Ws2_32:WS2_32.dll
 0002:00000288       __imp__closesocket@4       10079288     Ws2_32:WS2_32.dll
 0002:0000028c       __imp__send@16             1007928c     Ws2_32:WS2_32.dll
 0002:00000290       __imp__inet_ntoa@4         10079290     Ws2_32:WS2_32.dll
 0002:00000294       __imp__inet_addr@4         10079294     Ws2_32:WS2_32.dll
 0002:00000298       __imp__htonl@4             10079298     Ws2_32:WS2_32.dll
 0002:0000029c       \177WS2_32_NULL_THUNK_DATA 1007929c     Ws2_32:WS2_32.dll
 0002:000002a0       ___xc_a                    100792a0     MSVCRT:cinitexe.obj
 0002:000002b8       ___xc_z                    100792b8     MSVCRT:cinitexe.obj
 0002:000002bc       ___xi_a                    100792bc     MSVCRT:cinitexe.obj
 0002:000002c4       ___xi_z                    100792c4     MSVCRT:cinitexe.obj
 0002:000002f0       ??_7type_info@@6B@         100792f0     MSVCRT:ti_inst.obj
 0002:000002f4       __pRawDllMain              100792f4     MSVCRT:crtdll.obj
 0002:000002f4       __pDefaultRawDllMain       100792f4     MSVCRT:crtdll.obj
 0002:00000300       ??_C@_0P@GHFPNOJB@bad?5allocation?$AA@ 10079300     aucmanager.obj
 0002:00000310       ??_C@_0BJ@IKKJFLDI@CAucManager?3?3CAucManage?$CB?$AA@ 10079310     aucmanager.obj
 0002:0000032c       ??_C@_0BK@LFECKPK@CAucManager?3?3?$HOCAucManage?$CB?$AA@ 1007932c     aucmanager.obj
 0002:00000348       ??_C@_0BC@CHHILPA@CAucManager?5Init?$CB?$AA@ 10079348     aucmanager.obj
 0002:0000035c       ??_C@_0BF@KJGFKDLN@CAucManager?5Release?$CB?$AA@ 1007935c     aucmanager.obj
 0002:00000374       ??_C@_0BP@MDGDDNPK@Login?5?5?5user?$DN?$CFs?0?5?5?5password?$DN?$CFs?$AA@ 10079374     aucmanager.obj
 0002:00000394       ??_C@_0CE@NHEJHKLH@CMemeryManager?3?3GetRcvMem?$CI?$CJ?5?$DN?$DN?5N@ 10079394     aucmanager.obj
 0002:000003b8       ??_C@_0CC@HKBCJKFL@CAucManager?3?3Analvze_AucId?5faile@ 100793b8     aucmanager.obj
 0002:000003dc       ??_C@_0CC@JHKDILOF@CAucManager?3?3analyze?5AucId?5faile@ 100793dc     aucmanager.obj
 0002:00000400       ??_C@_0CC@CDGIPBIA@CAucManager?3?3CreateAucInfo?5faile@ 10079400     aucmanager.obj
 0002:00000424       ??_C@_0CI@IIKAAFMK@CAucManager?3?3Send?5Set?5FogThrough@ 10079424     aucmanager.obj
 0002:0000044c       ??_C@_0CF@EKINFDFD@CAucManager?3?3Analyze?5Auc?5Info?5fa@ 1007944c     aucmanager.obj
 0002:00000474       ??_C@_01CLKCMJKC@?5?$AA@   10079474     aucmanager.obj
 0002:00000478       ??_C@_0BA@BKJMFBCI@Logout?5?5?5auc?$DN?$CFs?$AA@ 10079478     aucmanager.obj
 0002:00000488       ??_C@_0BI@DAANBAJA@CAucManager?3?3Removeall?$CB?$AA@ 10079488     aucmanager.obj
 0002:000004a0       ??_C@_0BM@PAPJHAGI@invalid?5map?1set?$DMT?$DO?5iterator?$AA@ 100794a0     aucmanager.obj
 0002:000004bc       ??_C@_0BE@JONHPENG@map?1set?$DMT?$DO?5too?5long?$AA@ 100794bc     aucmanager.obj
 0002:000004d4       ??_7bad_alloc@std@@6B@     100794d4     aucmanager.obj
 0002:000004e0       ??_7logic_error@std@@6B@   100794e0     aucmanager.obj
 0002:000004ec       ??_7length_error@std@@6B@  100794ec     aucmanager.obj
 0002:000004f8       ??_7out_of_range@std@@6B@  100794f8     aucmanager.obj
 0002:00000504       ??_7CCriticalLock@@6B@     10079504     aucmanager.obj
 0002:00000508       ??_C@_05LAPONLG@false?$AA@ 10079508     cgipro_normal.obj
 0002:00000510       ??_C@_04LOAJBDKD@true?$AA@ 10079510     cgipro_normal.obj
 0002:00000515       ??_C@_00CNPNBAHC@?$AA@     10079515     cgipro_normal.obj
 0002:00000518       ??_C@_02DPKJAMEF@?$CFd?$AA@ 10079518     cgipro_normal.obj
 0002:0000051c       ??_C@_0CK@HJGNDLOI@Node?5not?5find?5?9?9?9?5Analvze_XmlStr@ 1007951c     cgipro_normal.obj
 0002:00000548       ??_C@_0CJ@MNCGIBPO@Node?5not?5find?5Analvze_XmlU8?5?9?9?9?5@ 10079548     cgipro_normal.obj
 0002:00000574       ??_C@_0CK@OAMMJOBF@Node?5not?5find?5Analvze_XmlU16?5?9?9?9@ 10079574     cgipro_normal.obj
 0002:000005a0       ??_C@_0CK@ONBANOBF@Node?5not?5find?5Analvze_XmlU32?5?9?9?9@ 100795a0     cgipro_normal.obj
 0002:000005cc       ??_C@_0BA@DNNGICBF@HTTP?11?41?5200?5OK?$AA@ 100795cc     cgipro_normal.obj
 0002:000005dc       ??_C@_04FMMHFHOO@?$AN?6?$AN?6?$AA@ 100795dc     cgipro_normal.obj
 0002:000005e4       ??_C@_0P@KLMPIMPE@responsestatus?$AA@ 100795e4     cgipro_normal.obj
 0002:000005f4       ??_C@_0L@LGHNMDLL@statuscode?$AA@ 100795f4     cgipro_normal.obj
 0002:00000600       ??_C@_0CP@MFMJIFML@Node?5not?5find?5?9?9?9?5Analvze_XmlStr@ 10079600     cgipro_normal.obj
 0002:00000630       ??_C@_04JNDPAMC@?$DM?$CFs?5?$AA@ 10079630     cgipro_normal.obj
 0002:00000638       ??_C@_08KOHJMDEL@?$CFs?$DN?$CC?$CFs?$CC?5?$AA@ 10079638     cgipro_normal.obj
 0002:00000644       ??_C@_01PPODPGHN@?$DO?$AA@ 10079644     cgipro_normal.obj
 0002:00000648       ??_C@_02DKCKIIND@?$CFs?$AA@ 10079648     cgipro_normal.obj
 0002:0000064c       ??_C@_03NFKEKGGK@all?$AA@  1007964c     cgipro_normal.obj
 0002:00000650       ??_C@_09EJLICMCM@starttime?$AA@ 10079650     cgipro_normal.obj
 0002:0000065c       ??_C@_07FIMDMNKK@endtime?$AA@ 1007965c     cgipro_normal.obj
 0002:00000664       ??_C@_06OFNJOBDK@enable?$AA@ 10079664     cgipro_normal.obj
 0002:0000066c       ??_C@_03HLLJOCDO@1?40?$AA@ 1007966c     cgipro_normal.obj
 0002:00000670       ??_C@_08COPFNGMP@?5version?$AA@ 10079670     cgipro_normal.obj
 0002:0000067c       ??_C@_0CI@IFHOLIBA@http?3?1?1www?4kdvision?4com?1ver10?1XM@ 1007967c     cgipro_normal.obj
 0002:000006a4       ??_C@_05PPEFOGKI@xmlns?$AA@ 100796a4     cgipro_normal.obj
 0002:000006ac       ??_C@_0M@EBBFPBCJ@contentroot?$AA@ 100796ac     cgipro_normal.obj
 0002:000006b8       ??_C@_0CB@OKDAIBH@AddNode_First?5faild?5?9?9?9?5node?5?3?$CFs@ 100796b8     cgipro_normal.obj
 0002:000006dc       ??_C@_03FKNCMABI@?$CFlu?$AA@ 100796dc     cgipro_normal.obj
 0002:000006e0       ??_C@_05FKHKFDID@index?$AA@ 100796e0     cgipro_normal.obj
 0002:000006e8       ??_C@_0M@FJGFLLPA@information?$AA@ 100796e8     cgipro_normal.obj
 0002:000006f4       ??_C@_07MHHIKOPA@enabled?$AA@ 100796f4     cgipro_normal.obj
 0002:000006fc       ??_C@_0N@JMOLBJFF@protocolname?$AA@ 100796fc     cgipro_normal.obj
 0002:0000070c       ??_C@_04GMGOKAFF@mode?$AA@ 1007970c     cgipro_normal.obj
 0002:00000714       ??_C@_02GIIHKPLE@ip?$AA@   10079714     cgipro_normal.obj
 0002:00000718       ??_C@_04LPGMAPLE@port?$AA@ 10079718     cgipro_normal.obj
 0002:00000720       ??_C@_02EGCJHIOB@id?$AA@   10079720     cgipro_normal.obj
 0002:00000724       ??_C@_04MEMAJGDJ@name?$AA@ 10079724     cgipro_normal.obj
 0002:0000072c       ??_C@_0L@IFPBBPPB@streamtype?$AA@ 1007972c     cgipro_normal.obj
 0002:00000738       ??_C@_02KNHHLGMN@sn?$AA@   10079738     cgipro_normal.obj
 0002:0000073c       ??_C@_0N@KGCLDCOO@diskcapacity?$AA@ 1007973c     cgipro_normal.obj
 0002:0000074c       ??_C@_08EKHCCLCJ@risidual?$AA@ 1007974c     cgipro_normal.obj
 0002:00000758       ??_C@_05HDBKIDE@state?$AA@ 10079758     cgipro_normal.obj
 0002:00000760       ??_C@_04GPMDFGEJ@type?$AA@ 10079760     cgipro_normal.obj
 0002:00000768       ??_C@_09HGIEBAJ@attribute?$AA@ 10079768     cgipro_normal.obj
 0002:00000774       ??_C@_01FJMABOPO@x?$AA@    10079774     cgipro_normal.obj
 0002:00000778       ??_C@_01EANLCPLP@y?$AA@    10079778     cgipro_normal.obj
 0002:0000077c       ??_C@_04GOEDGNCF@area?$AA@ 1007977c     cgipro_normal.obj
 0002:00000784       ??_C@_01FAMBOPH@4?$AA@     10079784     cgipro_normal.obj
 0002:00000788       ??_C@_04IAGNFIBA@size?$AA@ 10079788     cgipro_normal.obj
 0002:00000790       ??_C@_04LHPFHFPH@rect?$AA@ 10079790     cgipro_normal.obj
 0002:00000798       ??_C@_05KJNJLLGA@level?$AA@ 10079798     cgipro_normal.obj
 0002:000007a0       ??_C@_0L@BLMIMHFE@mediamode?5?$AA@ 100797a0     cgipro_normal.obj
 0002:000007ac       ??_C@_05ONLLBMGH@ratio?$AA@ 100797ac     cgipro_normal.obj
 0002:000007b4       ??_C@_09DNNJBJNP@ratioarea?$AA@ 100797b4     cgipro_normal.obj
 0002:000007c0       ??_C@_06KNCHBPBH@point1?$AA@ 100797c0     cgipro_normal.obj
 0002:000007c8       ??_C@_06IGAKEMNE@point2?$AA@ 100797c8     cgipro_normal.obj
 0002:000007d0       ??_C@_0L@BFJOOINB@direction?5?$AA@ 100797d0     cgipro_normal.obj
 0002:000007dc       ??_C@_03CACBEHEB@pt1?$AA@  100797dc     cgipro_normal.obj
 0002:000007e0       ??_C@_03LAMBEIC@pt2?$AA@   100797e0     cgipro_normal.obj
 0002:000007e4       ??_C@_03JKJKBKBF@pta?$AA@  100797e4     cgipro_normal.obj
 0002:000007e8       ??_C@_03LBLHEJNG@ptb?$AA@  100797e8     cgipro_normal.obj
 0002:000007ec       ??_C@_09DKPMFBKM@linkmodes?$AA@ 100797ec     cgipro_normal.obj
 0002:000007f8       ??_C@_0N@GFKMLDHD@uploadcenter?$AA@ 100797f8     cgipro_normal.obj
 0002:00000808       ??_C@_07IGGIKKMI@showosd?$AA@ 10079808     cgipro_normal.obj
 0002:00000810       ??_C@_08IHBCMGKG@audioout?$AA@ 10079810     cgipro_normal.obj
 0002:0000081c       ??_C@_03BPEBHJFL@rec?$AA@  1007981c     cgipro_normal.obj
 0002:00000820       ??_C@_04DKHMMKCM@snap?$AA@ 10079820     cgipro_normal.obj
 0002:00000828       ??_C@_04DCCEAEFJ@smtp?$AA@ 10079828     cgipro_normal.obj
 0002:00000830       ??_C@_0O@OKNLHHGK@otherlinkmode?$AA@ 10079830     cgipro_normal.obj
 0002:00000840       ??_C@_06IHHMPLOG@a1list?$AA@ 10079840     cgipro_normal.obj
 0002:00000848       ??_C@_02IPPGIAEI@a1?$AA@   10079848     cgipro_normal.obj
 0002:0000084c       ??_C@_09DEHKFMCJ@threshold?$AA@ 1007984c     cgipro_normal.obj
 0002:00000858       ??_C@_09OKHANHKF@pointlist?$AA@ 10079858     cgipro_normal.obj
 0002:00000864       ??_C@_05BBEJFBFA@point?$AA@ 10079864     cgipro_normal.obj
 0002:0000086c       ??_C@_08OLNHKJGE@staytime?$AA@ 1007986c     cgipro_normal.obj
 0002:00000878       ??_C@_06OFAGBOBG@preset?$AA@ 10079878     cgipro_normal.obj
 0002:00000880       ??_C@_0L@DPKLDOBG@pathcruise?$AA@ 10079880     cgipro_normal.obj
 0002:0000088c       ??_C@_05IPBAPGKH@hscan?$AA@ 1007988c     cgipro_normal.obj
 0002:00000894       ??_C@_08BDKEPBHK@syncscan?$AA@ 10079894     cgipro_normal.obj
 0002:000008a0       ??_C@_08MLKKLCGJ@visiable?$AA@ 100798a0     cgipro_normal.obj
 0002:000008ac       ??_C@_05IGKADHGO@width?$AA@ 100798ac     cgipro_normal.obj
 0002:000008b4       ??_C@_06LNLHEAAG@height?$AA@ 100798b4     cgipro_normal.obj
 0002:000008bc       ??_C@_08GEKIILCF@dynindex?$AA@ 100798bc     cgipro_normal.obj
 0002:000008c8       ??_C@_09BLLNCBLF@?$DM?$CB?$FLCDATA?$FL?$AA@ 100798c8     cgipro_normal.obj
 0002:000008d4       ??_C@_03MCHNFBAC@?$FN?$FN?$DO?$AA@ 100798d4     cgipro_normal.obj
 0002:000008d8       ??_C@_07JKKCBBMM@context?$AA@ 100798d8     cgipro_normal.obj
 0002:000008e0       ??_C@_0BB@FANAOBGH@?$CFs?5?$CFs?5HTTP?11?41?$AN?6?$AA@ 100798e0     cgipro_normal.obj
 0002:000008f4       ??_C@_0BH@OCJHLJD@Host?3www?4kedacom?4com?$AN?6?$AA@ 100798f4     cgipro_normal.obj
 0002:0000090c       ??_C@_0BJ@EFOIBMGC@User?9agent?3Mozilla?14?40?$AN?6?$AA@ 1007990c     cgipro_normal.obj
 0002:00000928       ??_C@_0DC@DMFLICKC@Content?9Type?3?5application?1x?9www?9@ 10079928     cgipro_normal.obj
 0002:0000095c       ??_C@_0BF@HLGLDBCH@Content?9Length?3?5?$CFd?$AN?6?$AA@ 1007995c     cgipro_normal.obj
 0002:00000974       ??_C@_0BL@IMPCHIM@Accept?9language?3zh?9cn?0cn?$AN?6?$AA@ 10079974     cgipro_normal.obj
 0002:00000990       ??_C@_0BC@NJNCJHGI@Referer?3?5ipcsdk?$AN?6?$AA@ 10079990     cgipro_normal.obj
 0002:000009a4       ??_C@_0BJ@MJPAGPCI@Connecton?3Keep?9Alive?$AN?6?$AN?6?$AA@ 100799a4     cgipro_normal.obj
 0002:000009c0       ??_C@_0FB@DKGFPGCG@Content?9Type?3multipart?1form?9data@ 100799c0     cgipro_normal.obj
 0002:00000a14       ??_C@_0CI@PPDBGMHK@?9?9ZnGpDtePMx0KrHh_G0X99Yef9r8JZs@ 10079a14     cgipro_normal.obj
 0002:00000a40       ??_C@_0EA@CBPEEHDB@Content?9Disposition?3form?9data?$DLna@ 10079a40     cgipro_normal.obj
 0002:00000a80       ??_C@_0CI@BHMDBNJI@Content?9Type?3application?1octet?9s@ 10079a80     cgipro_normal.obj
 0002:00000aa8       ??_C@_0CG@LAKPHCFH@Content?9Transfer?9Encoding?3?5binar@ 10079aa8     cgipro_normal.obj
 0002:00000ad0       ??_C@_0BH@HJCMLCON@Content?9Length?3?5?$CFd?$AN?6?$AN?6?$AA@ 10079ad0     cgipro_normal.obj
 0002:00000ae8       ??_C@_0BJ@PLBIBNFF@?1?1kdsapi?1?1event?1?1time?1?11?$AA@ 10079ae8     cgipro_normal.obj
 0002:00000b04       ??_C@_0P@LNHOEDEK@eventtimeparam?$AA@ 10079b04     cgipro_normal.obj
 0002:00000b14       ??_C@_09CNCNGKPJ@eventtype?$AA@ 10079b14     cgipro_normal.obj
 0002:00000b20       ??_C@_07PPAEFACK@alarmin?$AA@ 10079b20     cgipro_normal.obj
 0002:00000b28       ??_C@_08IGLDKMEE@alarmnum?$AA@ 10079b28     cgipro_normal.obj
 0002:00000b34       ??_C@_0M@GCEMPPEH@warningline?$AA@ 10079b34     cgipro_normal.obj
 0002:00000b40       ??_C@_0BA@JNBNIMML@areadetectenter?$AA@ 10079b40     cgipro_normal.obj
 0002:00000b50       ??_C@_0L@NLIDEICK@areadetect?$AA@ 10079b50     cgipro_normal.obj
 0002:00000b5c       ??_C@_0O@DOHCFGG@areadetectout?$AA@ 10079b5c     cgipro_normal.obj
 0002:00000b6c       ??_C@_0BA@GIPMCDAJ@thingsleaveover?$AA@ 10079b6c     cgipro_normal.obj
 0002:00000b7c       ??_C@_0L@DNHFMONO@thingstake?$AA@ 10079b7c     cgipro_normal.obj
 0002:00000b88       ??_C@_09EIIGLG@aggregate?$AA@ 10079b88     cgipro_normal.obj
 0002:00000b94       ??_C@_04HCJEIHPL@POST?$AA@ 10079b94     cgipro_normal.obj
 0002:00000b9c       ??_C@_0O@EAINIIJC@eventtimeinfo?$AA@ 10079b9c     cgipro_normal.obj
 0002:00000bac       ??_C@_08MOENDJOK@timelist?$AA@ 10079bac     cgipro_normal.obj
 0002:00000bb8       ??_C@_04LGMCIIKL@week?$AA@ 10079bb8     cgipro_normal.obj
 0002:00000bc0       ??_C@_04CLCEDBPF@time?$AA@ 10079bc0     cgipro_normal.obj
 0002:00000bc8       ??_C@_0BC@BLLGFIPM@?1?1kdsapi?1?1getcap?$DP?$AA@ 10079bc8     cgipro_normal.obj
 0002:00000bdc       ??_C@_01HNPIGOCE@?$CG?$AA@ 10079bdc     cgipro_normal.obj
 0002:00000be0       ??_C@_05HBANFBGO@?$DNtrue?$AA@ 10079be0     cgipro_normal.obj
 0002:00000be8       ??_C@_03HAPOJHBM@GET?$AA@  10079be8     cgipro_normal.obj
 0002:00000bec       ??_C@_07DLOJIKI@capinfo?$AA@ 10079bec     cgipro_normal.obj
 0002:00000bf4       ??_C@_0BG@LCICEELO@?1kdsapi?1getcgiversion?$AA@ 10079bf4     cgipro_normal.obj
 0002:00000c0c       ??_C@_0P@KLDPCOEG@cgiversioninfo?$AA@ 10079c0c     cgipro_normal.obj
 0002:00000c1c       ??_C@_07CPCPJPKL@version?$AA@ 10079c1c     cgipro_normal.obj
 0002:00000c24       ??_C@_0BH@ELOLDGID@?1?1kdsapi?1?1transparent?5?$AA@ 10079c24     cgipro_normal.obj
 0002:00000c3c       ??_C@_0BA@CMFNJOBE@transparentinfo?$AA@ 10079c3c     cgipro_normal.obj
 0002:00000c4c       ??_C@_04IEJGKNJ@body?$AA@  10079c4c     cgipro_normal.obj
 0002:00000c54       ??_C@_0BB@IPHCKNEB@transparentinfo?5?$AA@ 10079c54     cgipro_normal.obj
 0002:00000c68       ??_C@_0BD@NKKPOBN@audiosourelistinfo?$AA@ 10079c68     cgipro_normal.obj
 0002:00000c7c       ??_C@_06LGNCCACI@select?$AA@ 10079c7c     cgipro_normal.obj
 0002:00000c84       ??_C@_07NDNENIJM@LINE?9IN?$AA@ 10079c84     cgipro_normal.obj
 0002:00000c8c       ??_C@_06DDKCOOCC@MIC?9IN?$AA@ 10079c8c     cgipro_normal.obj
 0002:00000c94       ??_C@_04DONFEANM@list?$AA@ 10079c94     cgipro_normal.obj
 0002:00000c9c       ??_C@_0P@ENDJAGCC@videoplayparam?$AA@ 10079c9c     cgipro_normal.obj
 0002:00000cac       ??_C@_0L@NDEJJOKE@videosouce?$AA@ 10079cac     cgipro_normal.obj
 0002:00000cb8       ??_C@_0P@CCHPPJLD@videostreamchn?$AA@ 10079cb8     cgipro_normal.obj
 0002:00000cc8       ??_C@_07FDJMELIF@localip?$AA@ 10079cc8     cgipro_normal.obj
 0002:00000cd0       ??_C@_0N@KOGCNDA@rtpvideoport?$AA@ 10079cd0     cgipro_normal.obj
 0002:00000ce0       ??_C@_0O@HENLODD@rtcpvideoport?$AA@ 10079ce0     cgipro_normal.obj
 0002:00000cf0       ??_C@_08KMKFIJPA@trastype?$AA@ 10079cf0     cgipro_normal.obj
 0002:00000cfc       ??_C@_04HAPDLBFF@auto?$AA@ 10079cfc     cgipro_normal.obj
 0002:00000d04       ??_C@_0BA@OGOOLOIE@audiostreamtype?$AA@ 10079d04     cgipro_normal.obj
 0002:00000d14       ??_C@_0O@KNEIDAOO@audioportlist?$AA@ 10079d14     cgipro_normal.obj
 0002:00000d24       ??_C@_03EKJCKELP@chn?$AA@  10079d24     cgipro_normal.obj
 0002:00000d28       ??_C@_0N@ECMAGMLA@rtpaudioport?$AA@ 10079d28     cgipro_normal.obj
 0002:00000d38       ??_C@_0O@EPGLPPLD@rtcpaudioport?$AA@ 10079d38     cgipro_normal.obj
 0002:00000d48       ??_C@_05BPFJLLEL@video?$AA@ 10079d48     cgipro_normal.obj
 0002:00000d50       ??_C@_0BL@DFMBEBFI@?1?1kdsapi?1?1video?1?1startplay?$AA@ 10079d50     cgipro_normal.obj
 0002:00000d6c       ??_C@_0BA@HBKJBEGA@videoplayresult?$AA@ 10079d6c     cgipro_normal.obj
 0002:00000d7c       ??_C@_06FDPNAGM@playid?$AA@ 10079d7c     cgipro_normal.obj
 0002:00000d84       ??_C@_0P@DBAEAKKJ@videostopparam?$AA@ 10079d84     cgipro_normal.obj
 0002:00000d94       ??_C@_0BK@CFELPEAL@?1?1kdsapi?1?1video?1?1stopplay?$AA@ 10079d94     cgipro_normal.obj
 0002:00000db0       ??_C@_0P@PFNCEFPD@videortspparam?$AA@ 10079db0     cgipro_normal.obj
 0002:00000dc0       ??_C@_0N@FCGAMEHI@cgi_metadata?$AA@ 10079dc0     cgipro_normal.obj
 0002:00000dd0       ??_C@_0CC@NBPADNPE@?1?1kdsapi?1?1video?1?1?$CFd?1?1rtspinfo?1?1?$CF@ 10079dd0     cgipro_normal.obj
 0002:00000df4       ??_C@_0BK@EMGAIINI@?1?1kdsapi?1?1video?1?1rtspinfo?$AA@ 10079df4     cgipro_normal.obj
 0002:00000e10       ??_C@_05PEHBMBBI@chnid?$AA@ 10079e10     cgipro_normal.obj
 0002:00000e18       ??_C@_0CB@MOPBADDG@?1?1kdsapi?1?1audio?1?1enc?1?1sourcelist@ 10079e18     cgipro_normal.obj
 0002:00000e3c       ??_C@_0O@FOLNHKDF@videortspinfo?$AA@ 10079e3c     cgipro_normal.obj
 0002:00000e4c       ??_C@_05MNIJLHBL@?$DMurl?$DO?$AA@ 10079e4c     cgipro_normal.obj
 0002:00000e54       ??_C@_06LKGHGNF@?$DM?1url?$DO?$AA@ 10079e54     cgipro_normal.obj
 0002:00000e5c       ??_C@_0BB@PNBIOPIO@keyframequrparam?$AA@ 10079e5c     cgipro_normal.obj
 0002:00000e70       ??_C@_0BN@GABNLDEL@?1?1kdsapi?1?1video?1?1keyframequr?$AA@ 10079e70     cgipro_normal.obj
 0002:00000e90       ??_C@_0BP@IGJIOFKK@?1?1kdsapi?1?1video?1?1call?1?1prepare?$AA@ 10079e90     cgipro_normal.obj
 0002:00000eb0       ??_C@_0N@JCJIGFGK@callportinfo?$AA@ 10079eb0     cgipro_normal.obj
 0002:00000ec0       ??_C@_03GDEKPBIO@rtp?$AA@  10079ec0     cgipro_normal.obj
 0002:00000ec4       ??_C@_04CHBKCDHJ@rtsp?$AA@ 10079ec4     cgipro_normal.obj
 0002:00000ecc       ??_C@_0O@NMNLNNCD@callstartinfo?$AA@ 10079ecc     cgipro_normal.obj
 0002:00000edc       ??_C@_07OBOOFNDM@rtp_udp?$AA@ 10079edc     cgipro_normal.obj
 0002:00000ee4       ??_C@_07FMBNCMNM@rtp_tcp?$AA@ 10079ee4     cgipro_normal.obj
 0002:00000eec       ??_C@_08CKLDLEB@rtsp_tcp?$AA@ 10079eec     cgipro_normal.obj
 0002:00000ef8       ??_C@_08LPFIEKKB@rtsp_udp?$AA@ 10079ef8     cgipro_normal.obj
 0002:00000f04       ??_C@_0BN@DPCGKFHD@?1?1kdsapi?1?1video?1?1call?1?1start?$AA@ 10079f04     cgipro_normal.obj
 0002:00000f24       ??_C@_0N@BHFMMLMK@callstopinfo?$AA@ 10079f24     cgipro_normal.obj
 0002:00000f34       ??_C@_0BM@PMGDFEAL@?1?1kdsapi?1?1video?1?1call?1?1stop?$AA@ 10079f34     cgipro_normal.obj
 0002:00000f50       ??_C@_0BN@GIHCPKNB@?1?1kdsapi?1?1video?1?1call?1?1state?$AA@ 10079f50     cgipro_normal.obj
 0002:00000f70       ??_C@_0O@HHIBDJCH@callstateinfo?$AA@ 10079f70     cgipro_normal.obj
 0002:00000f80       ??_C@_0CC@GECGGHGP@?1?1kdsapi?1?1storage?1?11?1?1snappic?1?1?$CF@ 10079f80     cgipro_normal.obj
 0002:00000fa4       ??_C@_08NCLOLJKO@snapinfo?$AA@ 10079fa4     cgipro_normal.obj
 0002:00000fb0       ??_C@_06LNEOGLJO@picurl?$AA@ 10079fb0     cgipro_normal.obj
 0002:00000fb8       ??_C@_01LKDEMHDF@s?$AA@    10079fb8     cgipro_normal.obj
 0002:00000fbc       ??_C@_0BI@CGNGJJDD@?1?1kdsapi?1?1video?1?1volume?$AA@ 10079fbc     cgipro_normal.obj
 0002:00000fd4       ??_C@_0L@KPFIICCA@volumeinfo?$AA@ 10079fd4     cgipro_normal.obj
 0002:00000fe0       ??_C@_0M@MHLONLLP@enableaudio?$AA@ 10079fe0     cgipro_normal.obj
 0002:00000fec       ??_C@_06EMCPHFGM@volume?$AA@ 10079fec     cgipro_normal.obj
 0002:00000ff4       ??_C@_0CA@HIKDIFK@?1?1kdsapi?1?1video?1?1?$CFd?1?1multivideo?$AA@ 10079ff4     cgipro_normal.obj
 0002:00001014       ??_C@_0P@POLCIABG@multivideoinfo?$AA@ 1007a014     cgipro_normal.obj
 0002:00001024       ??_C@_0L@MCFPNKAL@multivideo?$AA@ 1007a024     cgipro_normal.obj
 0002:00001030       ??_C@_0BN@EPNKNDHM@?1?1kdsapi?1?1audio?1?1?$CFd?1?1dec?1?1?$CFd?$AA@ 1007a030     cgipro_normal.obj
 0002:00001050       ??_C@_0N@DDIJCNDG@audiodecinfo?$AA@ 1007a050     cgipro_normal.obj
 0002:00001060       ??_C@_08LOCINMIA@mixerrec?$AA@ 1007a060     cgipro_normal.obj
 0002:0000106c       ??_C@_0BN@IBHHIHBI@?1?1kdsapi?1?1audio?1?1?$CFd?1?1enc?1?1?$CFd?$AA@ 1007a06c     cgipro_normal.obj
 0002:0000108c       ??_C@_0N@PNCEHJFC@audioencinfo?$AA@ 1007a08c     cgipro_normal.obj
 0002:0000109c       ??_C@_03FNONIBCK@aec?$AA@  1007a09c     cgipro_normal.obj
 0002:000010a0       ??_C@_09HCCGGLHJ@inputmode?$AA@ 1007a0a0     cgipro_normal.obj
 0002:000010ac       ??_C@_08GGCAOICH@samprate?$AA@ 1007a0ac     cgipro_normal.obj
 0002:000010b8       ??_C@_0BN@ENHDMBID@?1?1kdsapi?1?1video?1?1?$CFd?1?1enc?1?1?$CFd?$AA@ 1007a0b8     cgipro_normal.obj
 0002:000010d8       ??_C@_0N@CHHOJJCD@videoencinfo?$AA@ 1007a0d8     cgipro_normal.obj
 0002:000010e8       ??_C@_0L@CAGNKJED@resolution?$AA@ 1007a0e8     cgipro_normal.obj
 0002:000010f4       ??_C@_0N@CJPMBIOB@dataratetype?$AA@ 1007a0f4     cgipro_normal.obj
 0002:00001104       ??_C@_0M@MLKIPMAP@maxdatarate?$AA@ 1007a104     cgipro_normal.obj
 0002:00001110       ??_C@_07DADGLCBN@quality?$AA@ 1007a110     cgipro_normal.obj
 0002:00001118       ??_C@_09PLDKGHKD@framerate?$AA@ 1007a118     cgipro_normal.obj
 0002:00001124       ??_C@_0O@ICEPDLEP@videocodetype?$AA@ 1007a124     cgipro_normal.obj
 0002:00001134       ??_C@_0BD@CHMFPBLK@encordercomplexity?$AA@ 1007a134     cgipro_normal.obj
 0002:00001148       ??_C@_0M@JFGFBKOB@iframespeed?$AA@ 1007a148     cgipro_normal.obj
 0002:00001154       ??_C@_07OFFCIFGA@caplist?$AA@ 1007a154     cgipro_normal.obj
 0002:0000115c       ??_C@_03JBACKAOP@cap?$AA@  1007a15c     cgipro_normal.obj
 0002:00001160       ??_C@_09PLPKJAGK@steamtype?$AA@ 1007a160     cgipro_normal.obj
 0002:0000116c       ??_C@_08PAIFPLOP@streamid?$AA@ 1007a16c     cgipro_normal.obj
 0002:00001178       ??_C@_0O@HBKDKJPA@resolutioncap?$AA@ 1007a178     cgipro_normal.obj
 0002:00001188       ??_C@_0BG@GBNJBNCO@encordercomplexitycap?$AA@ 1007a188     cgipro_normal.obj
 0002:000011a0       ??_C@_0O@BKIINGJN@frameratelist?$AA@ 1007a1a0     cgipro_normal.obj
 0002:000011b0       ??_C@_0N@HIDHEHBM@frameratecap?$AA@ 1007a1b0     cgipro_normal.obj
 0002:000011c0       ??_C@_03KLIPLJLL@min?$AA@  1007a1c0     cgipro_normal.obj
 0002:000011c4       ??_C@_03LJAEFNNE@max?$AA@  1007a1c4     cgipro_normal.obj
 0002:000011c8       ??_C@_03BHEEIFFN@def?$AA@  1007a1c8     cgipro_normal.obj
 0002:000011cc       ??_C@_0BM@HMIPNJON@?1?1kdsapi?1?1video?1?1?$CFd?1?1shield?$AA@ 1007a1cc     cgipro_normal.obj
 0002:000011e8       ??_C@_0L@GHNEJJGO@shieldinfo?$AA@ 1007a1e8     cgipro_normal.obj
 0002:000011f4       ??_C@_08CDMMKPGJ@allcolor?$AA@ 1007a1f4     cgipro_normal.obj
 0002:00001200       ??_C@_08KFDNNGMP@vgawidth?$AA@ 1007a200     cgipro_normal.obj
 0002:0000120c       ??_C@_09BMEFEOJJ@vgaheight?$AA@ 1007a20c     cgipro_normal.obj
 0002:00001218       ??_C@_08HBKMHMCI@widthmin?$AA@ 1007a218     cgipro_normal.obj
 0002:00001224       ??_C@_09NEMFIMHN@heightmin?$AA@ 1007a224     cgipro_normal.obj
 0002:00001230       ??_C@_08KBLFBPNI@arealist?$AA@ 1007a230     cgipro_normal.obj
 0002:0000123c       ??_C@_06GPGIDCJA@points?$AA@ 1007a23c     cgipro_normal.obj
 0002:00001244       ??_C@_05PEENBMOG@color?$AA@ 1007a244     cgipro_normal.obj
 0002:0000124c       ??_C@_0BJ@CMOFKKAJ@?1?1kdsapi?1?1video?1?1?$CFd?1?1roi?$AA@ 1007a24c     cgipro_normal.obj
 0002:00001268       ??_C@_07MHEJIBBD@roiinfo?$AA@ 1007a268     cgipro_normal.obj
 0002:00001270       ??_C@_09MPLEEOLA@codelevel?$AA@ 1007a270     cgipro_normal.obj
 0002:0000127c       ??_C@_01HIHLOKLC@1?$AA@    1007a27c     cgipro_normal.obj
 0002:00001280       ??_C@_01GBGANLPD@0?$AA@    1007a280     cgipro_normal.obj
 0002:00001284       ??_C@_0BM@JIDGFONH@?1?1kdsapi?1?1video?1?1?$CFd?1?1enccut?$AA@ 1007a284     cgipro_normal.obj
 0002:000012a0       ??_C@_0L@IOFILPDO@enccutinfo?$AA@ 1007a2a0     cgipro_normal.obj
 0002:000012ac       ??_C@_0BG@NNFPNJJF@regioncoordinateslist?$AA@ 1007a2ac     cgipro_normal.obj
 0002:000012c4       ??_C@_0CN@BMMMFDKF@?1?1kdsapi?1?1video?1?1?$CFd?1?1osd?1?1upload@ 1007a2c4     cgipro_normal.obj
 0002:000012f4       ??_C@_0BA@GBPMOHPL@uploadstateinfo?$AA@ 1007a2f4     cgipro_normal.obj
 0002:00001304       ??_C@_08LCGAPFCF@progress?$AA@ 1007a304     cgipro_normal.obj
 0002:00001310       ??_C@_0BC@EKCLCIJO@prepareuploadinfo?$AA@ 1007a310     cgipro_normal.obj
 0002:00001324       ??_C@_05LODJEAEA@picid?$AA@ 1007a324     cgipro_normal.obj
 0002:0000132c       ??_C@_09JNHADHJP@isalarmin?$AA@ 1007a32c     cgipro_normal.obj
 0002:00001338       ??_C@_0L@EJLHHOHA@filelength?$AA@ 1007a338     cgipro_normal.obj
 0002:00001344       ??_C@_0L@FBOEENMB@sendlenmax?$AA@ 1007a344     cgipro_normal.obj
 0002:00001350       ??_C@_0CK@IEJLCFFH@?1?1kdsapi?1?1video?1?1?$CFd?1?1osd?1?1upload@ 1007a350     cgipro_normal.obj
 0002:0000137c       ??_C@_0L@BJIKKHG@uploadinfo?$AA@ 1007a37c     cgipro_normal.obj
 0002:00001388       ??_C@_08LDBNCAAL@startpos?$AA@ 1007a388     cgipro_normal.obj
 0002:00001394       ??_C@_07BDMONPPF@datalen?$AA@ 1007a394     cgipro_normal.obj
 0002:0000139c       ??_C@_04PJOLNDGD@data?$AA@ 1007a39c     cgipro_normal.obj
 0002:000013a4       ??_C@_0CN@BHABMFEA@?1?1kdsapi?1?1video?1?1?$CFd?1?1osd?1?1upload@ 1007a3a4     cgipro_normal.obj
 0002:000013d4       ??_C@_0BP@MBPGFDIK@?1?1kdsapi?1?1video?1?1?$CFd?1?1osd?1?1data?$AA@ 1007a3d4     cgipro_normal.obj
 0002:000013f4       ??_C@_07DMBHEAIN@osdinfo?$AA@ 1007a3f4     cgipro_normal.obj
 0002:000013fc       ??_C@_09PDPAHBBG@commparam?$AA@ 1007a3fc     cgipro_normal.obj
 0002:00001408       ??_C@_06DLEPGFEF@format?$AA@ 1007a408     cgipro_normal.obj
 0002:00001410       ??_C@_04EFPADHIC@font?$AA@ 1007a410     cgipro_normal.obj
 0002:00001418       ??_C@_07DLNCNNPF@bkcolor?$AA@ 1007a418     cgipro_normal.obj
 0002:00001420       ??_C@_07NABIMKOF@osdcaps?$AA@ 1007a420     cgipro_normal.obj
 0002:00001428       ??_C@_09LGJMGCCI@singlerow?$AA@ 1007a428     cgipro_normal.obj
 0002:00001434       ??_C@_0M@CEEDCJLA@transparent?$AA@ 1007a434     cgipro_normal.obj
 0002:00001440       ??_C@_04IJFJNCMM@edge?$AA@ 1007a440     cgipro_normal.obj
 0002:00001448       ??_C@_05PGGNCNKK@gauge?$AA@ 1007a448     cgipro_normal.obj
 0002:00001450       ??_C@_03FGFCOCMD@top?$AA@  1007a450     cgipro_normal.obj
 0002:00001454       ??_C@_04GOOOJOPP@left?$AA@ 1007a454     cgipro_normal.obj
 0002:0000145c       ??_C@_05DHJDAOHK@right?$AA@ 1007a45c     cgipro_normal.obj
 0002:00001464       ??_C@_06PMMPCIPB@bottom?$AA@ 1007a464     cgipro_normal.obj
 0002:0000146c       ??_C@_0P@JCHHOMHE@isuploadosdpic?$AA@ 1007a46c     cgipro_normal.obj
 0002:0000147c       ??_C@_0BA@DCCGGBPF@resolutionwidth?$AA@ 1007a47c     cgipro_normal.obj
 0002:0000148c       ??_C@_0BB@NKNOIMJM@resolutionheight?$AA@ 1007a48c     cgipro_normal.obj
 0002:000014a0       ??_C@_07NKPLFNEF@osdlist?$AA@ 1007a4a0     cgipro_normal.obj
 0002:000014a8       ??_C@_03OKNILPBM@osd?$AA@  1007a4a8     cgipro_normal.obj
 0002:000014ac       ??_C@_0P@DIEIOGLM@monthviewparam?$AA@ 1007a4ac     cgipro_normal.obj
 0002:000014bc       ??_C@_04JFPLDHAO@year?$AA@ 1007a4bc     cgipro_normal.obj
 0002:000014c4       ??_C@_05MEBAADFH@month?$AA@ 1007a4c4     cgipro_normal.obj
 0002:000014cc       ??_C@_0CA@INAJNNDN@?1?1kdsapi?1?1rec?1?1?$CFd?1?1getmonthview?$AA@ 1007a4cc     cgipro_normal.obj
 0002:000014ec       ??_C@_0O@BDBIKGMA@monthviewinfo?$AA@ 1007a4ec     cgipro_normal.obj
 0002:000014fc       ??_C@_06LECKHGMJ@hadrec?$AA@ 1007a4fc     cgipro_normal.obj
 0002:00001504       ??_C@_0BE@KHDKCNMI@preparerecdataparam?$AA@ 1007a504     cgipro_normal.obj
 0002:00001518       ??_C@_09DLJEHAIG@begintime?$AA@ 1007a518     cgipro_normal.obj
 0002:00001524       ??_C@_05NFOLCBFN@alarm?$AA@ 1007a524     cgipro_normal.obj
 0002:0000152c       ??_C@_06LBOEMNGF@manual?$AA@ 1007a52c     cgipro_normal.obj
 0002:00001534       ??_C@_07HFFIPGGG@rectype?$AA@ 1007a534     cgipro_normal.obj
 0002:0000153c       ??_C@_0M@IINFFBHN@recstartnum?$AA@ 1007a53c     cgipro_normal.obj
 0002:00001548       ??_C@_09MNFFJLKK@reqlenmax?$AA@ 1007a548     cgipro_normal.obj
 0002:00001554       ??_C@_0CD@PPHGKDIG@?1?1kdsapi?1?1rec?11?1?1preparegetrecda@ 1007a554     cgipro_normal.obj
 0002:00001578       ??_C@_0BD@NODHHHIG@preparerecdatainfo?$AA@ 1007a578     cgipro_normal.obj
 0002:0000158c       ??_C@_0N@DCCLPNJD@recdataparam?$AA@ 1007a58c     cgipro_normal.obj
 0002:0000159c       ??_C@_05FAGFPHJG@start?$AA@ 1007a59c     cgipro_normal.obj
 0002:000015a4       ??_C@_0BN@BPLNMLJJ@?1?1kdsapi?1?1rec?1?11?1?1getrecdata?$AA@ 1007a5a4     cgipro_normal.obj
 0002:000015c4       ??_C@_0M@HAKNKOEO@recdatainfo?$AA@ 1007a5c4     cgipro_normal.obj
 0002:000015d0       ??_C@_0M@JGEBLDIG@recdatalist?$AA@ 1007a5d0     cgipro_normal.obj
 0002:000015dc       ??_C@_0L@LJFNBADK@isfinished?$AA@ 1007a5dc     cgipro_normal.obj
 0002:000015e8       ??_C@_07ODHAHDEM@recdata?$AA@ 1007a5e8     cgipro_normal.obj
 0002:000015f0       ??_C@_08GGKONLKN@pinalarm?$AA@ 1007a5f0     cgipro_normal.obj
 0002:000015fc       ??_C@_0M@NGPOKAMB@motivealarm?$AA@ 1007a5fc     cgipro_normal.obj
 0002:00001608       ??_C@_0M@DHEGKOGD@externalarm?$AA@ 1007a608     cgipro_normal.obj
 0002:00001614       ??_C@_0L@IFDGALBK@coverimage?$AA@ 1007a614     cgipro_normal.obj
 0002:00001620       ??_C@_09KAFHOKEC@linealarm?$AA@ 1007a620     cgipro_normal.obj
 0002:0000162c       ??_C@_0N@NBLFIGAJ@defocusalarm?$AA@ 1007a62c     cgipro_normal.obj
 0002:0000163c       ??_C@_0M@FBOMOGLF@scenechange?$AA@ 1007a63c     cgipro_normal.obj
 0002:00001648       ??_C@_0P@HNOJPOPJ@regioninvasion?$AA@ 1007a648     cgipro_normal.obj
 0002:00001658       ??_C@_0O@DAKMAMIJ@regionleaving?$AA@ 1007a658     cgipro_normal.obj
 0002:00001668       ??_C@_0L@CKCNCJKA@objecttake?$AA@ 1007a668     cgipro_normal.obj
 0002:00001674       ??_C@_0L@KONONCPH@objectleft?$AA@ 1007a674     cgipro_normal.obj
 0002:00001680       ??_C@_0N@MBNLMACA@peoplegather?$AA@ 1007a680     cgipro_normal.obj
 0002:00001690       ??_C@_0O@IJJCCGBM@audioabnormal?$AA@ 1007a690     cgipro_normal.obj
 0002:000016a0       ??_C@_05NAPFDJNG@timer?$AA@ 1007a6a0     cgipro_normal.obj
 0002:000016a8       ??_C@_06BBKACIAJ@weekly?$AA@ 1007a6a8     cgipro_normal.obj
 0002:000016b0       ??_C@_0N@INELNGLA@recplayparam?$AA@ 1007a6b0     cgipro_normal.obj
 0002:000016c0       ??_C@_05JNDJGNAG@desip?$AA@ 1007a6c0     cgipro_normal.obj
 0002:000016c8       ??_C@_08HNAELPDP@playtime?$AA@ 1007a6c8     cgipro_normal.obj
 0002:000016d4       ??_C@_0O@IFCLAKBL@isstartstream?$AA@ 1007a6d4     cgipro_normal.obj
 0002:000016e4       ??_C@_0BP@HDJLOMEP@?1?1kdsapi?1?1rec?1?11?1?1recstartplay?$AA@ 1007a6e4     cgipro_normal.obj
 0002:00001704       ??_C@_0M@MAOHJLHN@recplayinfo?$AA@ 1007a704     cgipro_normal.obj
 0002:00001710       ??_C@_0BB@HIKHHKDH@startstreamparam?$AA@ 1007a710     cgipro_normal.obj
 0002:00001724       ??_C@_0BL@NNAMJMHC@?1?1kdsapi?1?1rec?1?1startstream?$AA@ 1007a724     cgipro_normal.obj
 0002:00001740       ??_C@_0BB@BMIBKBAM@recplayctrlparam?$AA@ 1007a740     cgipro_normal.obj
 0002:00001754       ??_C@_05PDJBBECF@pause?$AA@ 1007a754     cgipro_normal.obj
 0002:0000175c       ??_C@_08GNNJJNC@ctrltype?$AA@ 1007a75c     cgipro_normal.obj
 0002:00001768       ??_C@_06HLNLBCHN@rate_1?$AA@ 1007a768     cgipro_normal.obj
 0002:00001770       ??_C@_04HCCHHEEF@rate?$AA@ 1007a770     cgipro_normal.obj
 0002:00001778       ??_C@_0BE@IMDMJPHP@2014?908?908T09?351?312?$AA@ 1007a778     cgipro_normal.obj
 0002:0000178c       ??_C@_0BO@GMIDMPHF@?1?1kdsapi?1?1rec?1?11?1?1recplayctrl?$AA@ 1007a78c     cgipro_normal.obj
 0002:000017ac       ??_C@_08DLICDMBN@continue?$AA@ 1007a7ac     cgipro_normal.obj
 0002:000017b8       ??_C@_04PEGFANN@stop?$AA@  1007a7b8     cgipro_normal.obj
 0002:000017c0       ??_C@_05MAJJJFNJ@rate1?$AA@ 1007a7c0     cgipro_normal.obj
 0002:000017c8       ??_C@_03PCBNCGFH@pos?$AA@  1007a7c8     cgipro_normal.obj
 0002:000017cc       ??_C@_05OLLEMGBK@rate2?$AA@ 1007a7cc     cgipro_normal.obj
 0002:000017d4       ??_C@_05LNOOGBJM@rate4?$AA@ 1007a7d4     cgipro_normal.obj
 0002:000017dc       ??_C@_05BBFLCOJA@rate8?$AA@ 1007a7dc     cgipro_normal.obj
 0002:000017e4       ??_C@_06HGNDGCJA@rate16?$AA@ 1007a7e4     cgipro_normal.obj
 0002:000017ec       ??_C@_07FKAPOEPI@rate1_2?$AA@ 1007a7ec     cgipro_normal.obj
 0002:000017f4       ??_C@_07MFFEDHO@rate1_4?$AA@ 1007a7f4     cgipro_normal.obj
 0002:000017fc       ??_C@_07KAOAAMHC@rate1_8?$AA@ 1007a7fc     cgipro_normal.obj
 0002:00001804       ??_C@_0BC@NMIGMGJB@recplaystateparam?$AA@ 1007a804     cgipro_normal.obj
 0002:00001818       ??_C@_0BP@GLMGJBLM@?1?1kdsapi?1?1rec?1?11?1?1recplaystate?$AA@ 1007a818     cgipro_normal.obj
 0002:00001838       ??_C@_0CA@PJFJFCBL@?1?1kdsapi?1?1rec?1?11?1?1downloadspeed?$AA@ 1007a838     cgipro_normal.obj
 0002:00001858       ??_C@_0BB@NDPHIAEM@recplaystateinfo?$AA@ 1007a858     cgipro_normal.obj
 0002:0000186c       ??_C@_09OMDJNLDP@timestamp?$AA@ 1007a86c     cgipro_normal.obj
 0002:00001878       ??_C@_0BN@JJOEEOPJ@?1?1kdsapi?1?1image?1?1?$CFd?1?1def?1?1?$CFs?$AA@ 1007a878     cgipro_normal.obj
 0002:00001898       ??_C@_0BL@KLEDJBBA@?1?1kdsapi?1?1image?1?1?$CFd?1?1color?$AA@ 1007a898     cgipro_normal.obj
 0002:000018b4       ??_C@_09PIMLBGEL@colorinfo?$AA@ 1007a8b4     cgipro_normal.obj
 0002:000018c0       ??_C@_0BA@PDLAKJEK@brightnesslevel?$AA@ 1007a8c0     cgipro_normal.obj
 0002:000018d0       ??_C@_0O@BMFLPKPD@contrastlevel?$AA@ 1007a8d0     cgipro_normal.obj
 0002:000018e0       ??_C@_0BA@CJNIPKJO@saturationlevel?$AA@ 1007a8e0     cgipro_normal.obj
 0002:000018f0       ??_C@_08CEJHNBGH@huelevel?$AA@ 1007a8f0     cgipro_normal.obj
 0002:000018fc       ??_C@_0BL@KLEHAHBC@?1?1kdsapi?1?1image?1?1?$CFd?1?1focus?$AA@ 1007a8fc     cgipro_normal.obj
 0002:00001918       ??_C@_05PEEJIKOE@focus?$AA@ 1007a918     cgipro_normal.obj
 0002:00001920       ??_C@_0L@JOLPNOGG@focusstyle?$AA@ 1007a920     cgipro_normal.obj
 0002:0000192c       ??_C@_08BFLDGICF@focusmin?$AA@ 1007a92c     cgipro_normal.obj
 0002:00001938       ??_C@_08HDIIMEK@focusmax?$AA@ 1007a938     cgipro_normal.obj
 0002:00001944       ??_C@_0CB@GFHEADAI@?1?1kdsapi?1?1image?1?1?$CFd?1?1whiteblance@ 1007a944     cgipro_normal.obj
 0002:00001968       ??_C@_0M@GIPGJDJB@whiteblance?$AA@ 1007a968     cgipro_normal.obj
 0002:00001974       ??_C@_0BB@JBGKNFPH@whiteblancestyle?$AA@ 1007a974     cgipro_normal.obj
 0002:00001988       ??_C@_0P@HMNIJDCA@whiteblancered?$AA@ 1007a988     cgipro_normal.obj
 0002:00001998       ??_C@_0BA@CDJEHGPG@whiteblanceblue?$AA@ 1007a998     cgipro_normal.obj
 0002:000019a8       ??_C@_0CB@BOPECKFE@?1?1kdsapi?1?1image?1?1?$CFd?1?1ircutfilter@ 1007a9a8     cgipro_normal.obj
 0002:000019cc       ??_C@_0M@BDHGLKMN@ircutfilter?$AA@ 1007a9cc     cgipro_normal.obj
 0002:000019d8       ??_C@_0BA@OHCLIMBI@ircutfiltertype?$AA@ 1007a9d8     cgipro_normal.obj
 0002:000019e8       ??_C@_07DIDNFGDE@trigger?$AA@ 1007a9e8     cgipro_normal.obj
 0002:000019f0       ??_C@_0BA@IKNMJGCM@daytonightlevel?$AA@ 1007a9f0     cgipro_normal.obj
 0002:00001a00       ??_C@_0P@PHGOMCAC@daytonighttime?$AA@ 1007aa00     cgipro_normal.obj
 0002:00001a10       ??_C@_0L@JJLAFAEL@photolevel?$AA@ 1007aa10     cgipro_normal.obj
 0002:00001a1c       ??_C@_09BHOLEJHN@fixedtime?$AA@ 1007aa1c     cgipro_normal.obj
 0002:00001a28       ??_C@_07FALBAABE@weekday?$AA@ 1007aa28     cgipro_normal.obj
 0002:00001a30       ??_C@_03NNBHCDBP@day?$AA@  1007aa30     cgipro_normal.obj
 0002:00001a34       ??_C@_05EDIHMMJK@night?$AA@ 1007aa34     cgipro_normal.obj
 0002:00001a3c       ??_C@_01FDFGLJHB@2?$AA@    1007aa3c     cgipro_normal.obj
 0002:00001a40       ??_C@_01EKENIIDA@3?$AA@    1007aa40     cgipro_normal.obj
 0002:00001a44       ??_C@_01BMBHCPLG@5?$AA@    1007aa44     cgipro_normal.obj
 0002:00001a48       ??_C@_01DHDKHMHF@6?$AA@    1007aa48     cgipro_normal.obj
 0002:00001a4c       ??_C@_01COCBENDE@7?$AA@    1007aa4c     cgipro_normal.obj
 0002:00001a50       ??_C@_0BK@CENIFBGK@?1?1kdsapi?1?1image?1?1?$CFd?1?1iris?$AA@ 1007aa50     cgipro_normal.obj
 0002:00001a6c       ??_C@_08HFDPGJOM@irisinfo?$AA@ 1007aa6c     cgipro_normal.obj
 0002:00001a78       ??_C@_08MBGIJEKN@irismode?$AA@ 1007aa78     cgipro_normal.obj
 0002:00001a84       ??_C@_08CNGLGMOI@irissize?$AA@ 1007aa84     cgipro_normal.obj
 0002:00001a90       ??_C@_09BKBCMHHK@irislevel?$AA@ 1007aa90     cgipro_normal.obj
 0002:00001a9c       ??_C@_0BN@DBEBKNMG@?1?1kdsapi?1?1image?1?1?$CFd?1?1shutter?$AA@ 1007aa9c     cgipro_normal.obj
 0002:00001abc       ??_C@_0M@NGFMMEPI@shutterinfo?$AA@ 1007aabc     cgipro_normal.obj
 0002:00001ac8       ??_C@_0L@GJHBEAKK@shutermode?$AA@ 1007aac8     cgipro_normal.obj
 0002:00001ad4       ??_C@_09LEDIFFHM@shutermin?$AA@ 1007aad4     cgipro_normal.obj
 0002:00001ae0       ??_C@_0N@GLHAKK@shutterlevel?$AA@ 1007aae0     cgipro_normal.obj
 0002:00001af0       ??_C@_0BK@CGCIHLGG@?1?1kdsapi?1?1image?1?1?$CFd?1?1gain?$AA@ 1007aaf0     cgipro_normal.obj
 0002:00001b0c       ??_C@_08PAIBJFPD@gaininfo?$AA@ 1007ab0c     cgipro_normal.obj
 0002:00001b18       ??_C@_08EENGGILC@gainmode?$AA@ 1007ab18     cgipro_normal.obj
 0002:00001b24       ??_C@_07DHECEOM@gainmax?$AA@ 1007ab24     cgipro_normal.obj
 0002:00001b2c       ??_C@_09JHJPHEHD@gainlevel?$AA@ 1007ab2c     cgipro_normal.obj
 0002:00001b38       ??_C@_0BO@HAOOOOIM@?1?1kdsapi?1?1image?1?1?$CFd?1?1infrared?$AA@ 1007ab38     cgipro_normal.obj
 0002:00001b58       ??_C@_0N@PMDBKHPB@infraredinfo?$AA@ 1007ab58     cgipro_normal.obj
 0002:00001b68       ??_C@_0M@MDKFIOPL@controlmode?$AA@ 1007ab68     cgipro_normal.obj
 0002:00001b74       ??_C@_0P@FHJMGKLB@ininfraredinfo?$AA@ 1007ab74     cgipro_normal.obj
 0002:00001b84       ??_C@_0BL@OAMIFPLL@?1?1kdsapi?1?1image?1?1?$CFd?1?1laser?$AA@ 1007ab84     cgipro_normal.obj
 0002:00001ba0       ??_C@_09MAOJOKJN@laserinfo?$AA@ 1007aba0     cgipro_normal.obj
 0002:00001bac       ??_C@_08MEHGFOLN@spotmode?$AA@ 1007abac     cgipro_normal.obj
 0002:00001bb8       ??_C@_0CC@OJOEKLM@?1?1kdsapi?1?1image?1?1?$CFd?1?1corridormod@ 1007abb8     cgipro_normal.obj
 0002:00001bdc       ??_C@_0BB@PFHODDDH@corridormodeinfo?$AA@ 1007abdc     cgipro_normal.obj
 0002:00001bf0       ??_C@_0N@IHEAODMM@corridormode?$AA@ 1007abf0     cgipro_normal.obj
 0002:00001c00       ??_C@_0BP@OMMGJKJD@?1?1kdsapi?1?1image?1?1?$CFd?1?1imagemode?$AA@ 1007ac00     cgipro_normal.obj
 0002:00001c20       ??_C@_0O@NKAFFHJE@imagemodeinfo?$AA@ 1007ac20     cgipro_normal.obj
 0002:00001c30       ??_C@_0CD@GDKEHFMJ@?1?1kdsapi?1?1image?1?1?$CFd?1?1noisereduce@ 1007ac30     cgipro_normal.obj
 0002:00001c54       ??_C@_0BC@CKMJKLG@noisereduce2dinfo?$AA@ 1007ac54     cgipro_normal.obj
 0002:00001c68       ??_C@_0CD@GCGGBPPO@?1?1kdsapi?1?1image?1?1?$CFd?1?1noisereduce@ 1007ac68     cgipro_normal.obj
 0002:00001c8c       ??_C@_0BC@KENLJBAC@noisereduce3dinfo?$AA@ 1007ac8c     cgipro_normal.obj
 0002:00001ca0       ??_C@_0BP@KLLAPPEJ@?1?1kdsapi?1?1image?1?1?$CFd?1?1localecho?$AA@ 1007aca0     cgipro_normal.obj
 0002:00001cc0       ??_C@_0O@EMCNANOB@localechoinfo?$AA@ 1007acc0     cgipro_normal.obj
 0002:00001cd0       ??_C@_0CI@MBKNJOMK@?1?1kdsapi?1?1image?1?1?$CFd?1?1powerlinefr@ 1007acd0     cgipro_normal.obj
 0002:00001cf8       ??_C@_0BH@EIAEIEMM@powerlinefrequencyinfo?$AA@ 1007acf8     cgipro_normal.obj
 0002:00001d10       ??_C@_0CH@GKJBBP@?1?1kdsapi?1?1image?1?1?$CFd?1?1imageenhanc@ 1007ad10     cgipro_normal.obj
 0002:00001d38       ??_C@_0BA@BOIPEDDK@dynamicmodeInfo?$AA@ 1007ad38     cgipro_normal.obj
 0002:00001d48       ??_C@_03HKIEMAEO@wdr?$AA@  1007ad48     cgipro_normal.obj
 0002:00001d4c       ??_C@_08EFIGMPDC@wdrlevel?$AA@ 1007ad4c     cgipro_normal.obj
 0002:00001d58       ??_C@_0CG@OHCMCPCH@?1?1kdsapi?1?1image?1?1?$CFd?1?1dynamicmode@ 1007ad58     cgipro_normal.obj
 0002:00001d80       ??_C@_03CPDEPFCP@hlc?$AA@  1007ad80     cgipro_normal.obj
 0002:00001d84       ??_C@_08CELDMOFN@hlclevel?$AA@ 1007ad84     cgipro_normal.obj
 0002:00001d90       ??_C@_0CB@CNLGFKDD@?1?1kdsapi?1?1image?1?1?$CFd?1?1dynamicmode@ 1007ad90     cgipro_normal.obj
 0002:00001db4       ??_C@_0CO@JEHHBMPF@?1?1kdsapi?1?1image?1?1?$CFd?1?1imageenhanc@ 1007adb4     cgipro_normal.obj
 0002:00001de4       ??_C@_0L@EFGBBMOC@fogthrough?$AA@ 1007ade4     cgipro_normal.obj
 0002:00001df0       ??_C@_0BA@GLCEIDPD@fogthroughlevel?$AA@ 1007adf0     cgipro_normal.obj
 0002:00001e00       ??_C@_0CJ@LFPHGFJB@?1?1kdsapi?1?1image?1?1?$CFd?1?1imageenhanc@ 1007ae00     cgipro_normal.obj
 0002:00001e2c       ??_C@_05KDLBCAI@gamma?$AA@ 1007ae2c     cgipro_normal.obj
 0002:00001e34       ??_C@_0L@PPFFNDBC@gammalevel?$AA@ 1007ae34     cgipro_normal.obj
 0002:00001e40       ??_C@_0CL@MCGJECIA@?1?1kdsapi?1?1image?1?1?$CFd?1?1imageenhanc@ 1007ae40     cgipro_normal.obj
 0002:00001e6c       ??_C@_07KMILCIIA@smartir?$AA@ 1007ae6c     cgipro_normal.obj
 0002:00001e74       ??_C@_0N@NMFGNFPL@smartirlevel?$AA@ 1007ae74     cgipro_normal.obj
 0002:00001e84       ??_C@_08LBJNEEMD@blclevel?$AA@ 1007ae84     cgipro_normal.obj
 0002:00001e90       ??_C@_07MDLKFDK@hlcarea?$AA@ 1007ae90     cgipro_normal.obj
 0002:00001e98       ??_C@_03CAGFACPB@sel?$AA@  1007ae98     cgipro_normal.obj
 0002:00001e9c       ??_C@_06EKNFNOKI@custom?$AA@ 1007ae9c     cgipro_normal.obj
 0002:00001ea4       ??_C@_09NLFDBACH@blcregion?$AA@ 1007aea4     cgipro_normal.obj
 0002:00001eb0       ??_C@_09HNKPOHFI@regionblc?$AA@ 1007aeb0     cgipro_normal.obj
 0002:00001ebc       ??_C@_0BA@OGMIMGBE@asstelezoominfo?$AA@ 1007aebc     cgipro_normal.obj
 0002:00001ecc       ??_C@_04PMOCAHAA@open?$AA@ 1007aecc     cgipro_normal.obj
 0002:00001ed4       ??_C@_05LBOHBHFK@close?$AA@ 1007aed4     cgipro_normal.obj
 0002:00001edc       ??_C@_04DGANLAON@high?$AA@ 1007aedc     cgipro_normal.obj
 0002:00001ee4       ??_C@_06CGLIEPEJ@middle?$AA@ 1007aee4     cgipro_normal.obj
 0002:00001eec       ??_C@_03IMLOALHE@low?$AA@  1007aeec     cgipro_normal.obj
 0002:00001ef0       ??_C@_07FPNKHMHG@adjhigh?$AA@ 1007aef0     cgipro_normal.obj
 0002:00001ef8       ??_C@_0BA@OLGEDLGD@telezoominratio?$AA@ 1007aef8     cgipro_normal.obj
 0002:00001f08       ??_C@_0N@EKHKHJBH@telecurlevel?$AA@ 1007af08     cgipro_normal.obj
 0002:00001f18       ??_C@_0M@BHBJCAEA@telemultval?$AA@ 1007af18     cgipro_normal.obj
 0002:00001f24       ??_C@_09NGIJLBKP@wideratio?$AA@ 1007af24     cgipro_normal.obj
 0002:00001f30       ??_C@_08MMBKDHPG@midwidth?$AA@ 1007af30     cgipro_normal.obj
 0002:00001f3c       ??_C@_09EDCJOBHA@midheight?$AA@ 1007af3c     cgipro_normal.obj
 0002:00001f48       ??_C@_09PMPGLMKG@widescale?$AA@ 1007af48     cgipro_normal.obj
 0002:00001f54       ??_C@_07FJIKDNKB@mutiple?$AA@ 1007af54     cgipro_normal.obj
 0002:00001f5c       ??_C@_0BO@OAOMLKCB@?1?1kdsapi?1?1assist?1?1telezoom?1?11?$AA@ 1007af5c     cgipro_normal.obj
 0002:00001f7c       ??_C@_0M@IPFBEKGI@assmalfinfo?$AA@ 1007af7c     cgipro_normal.obj
 0002:00001f88       ??_C@_06MLIJFAFN@param1?$AA@ 1007af88     cgipro_normal.obj
 0002:00001f90       ??_C@_06OAKEADJO@param2?$AA@ 1007af90     cgipro_normal.obj
 0002:00001f98       ??_C@_0BK@CBKMNEBK@?1?1kdsapi?1?1assist?1?1malf?1?11?$AA@ 1007af98     cgipro_normal.obj
 0002:00001fb4       ??_C@_08BJNHPNAB@mtcfinfo?$AA@ 1007afb4     cgipro_normal.obj
 0002:00001fc0       ??_C@_07JJPIIKEO@stream2?$AA@ 1007afc0     cgipro_normal.obj
 0002:00001fc8       ??_C@_03KOEFDDMA@ldc?$AA@  1007afc8     cgipro_normal.obj
 0002:00001fcc       ??_C@_0BJ@BLMCAFAF@?1?1kdsapi?1?1video?1?11?1?1mtcf?$AA@ 1007afcc     cgipro_normal.obj
 0002:00001fe8       ??_C@_0CB@IBNLNOOA@?1?1kdsapi?1?1ext?1?1plugin?1?1filllight@ 1007afe8     cgipro_normal.obj
 0002:0000200c       ??_C@_0O@IMJANFGH@filllightinfo?$AA@ 1007b00c     cgipro_normal.obj
 0002:0000201c       ??_C@_0L@BECHNFGG@brightness?$AA@ 1007b01c     cgipro_normal.obj
 0002:00002028       ??_C@_0CC@DFAPBNAE@?1?1kdsapi?1?1ext?1?1plugin?1?1filllight@ 1007b028     cgipro_normal.obj
 0002:0000204c       ??_C@_0M@KBHNLDJL@advanceinfo?$AA@ 1007b04c     cgipro_normal.obj
 0002:00002058       ??_C@_0BC@LAMPPOPE@dynamicosdsupport?$AA@ 1007b058     cgipro_normal.obj
 0002:0000206c       ??_C@_0BL@DAIMLEJO@?1?1kdsapi?1?1system?1?1advanced?$AA@ 1007b06c     cgipro_normal.obj
 0002:00002088       ??_C@_0CB@LIPCGMLB@?1?1kdsapi?1?1link?1?1authenticationid@ 1007b088     cgipro_normal.obj
 0002:000020ac       ??_C@_04PNIFHPHN@html?$AA@ 1007b0ac     cgipro_normal.obj
 0002:000020b4       ??_C@_06GNMKGFO@Tomcat?$AA@ 1007b0b4     cgipro_normal.obj
 0002:000020bc       ??_C@_0BG@MOBIFEIB@it?8s?5no?5v7?5IPC?5device?$AA@ 1007b0bc     cgipro_normal.obj
 0002:000020d4       ??_C@_0BF@LOIMOKCI@authenticationidinfo?$AA@ 1007b0d4     cgipro_normal.obj
 0002:000020ec       ??_C@_0BB@CNABIDAO@authenticationid?$AA@ 1007b0ec     cgipro_normal.obj
 0002:00002100       ??_C@_08MCDBFJAE@?$CFs?0?$CFs?0?$CFs?$AA@ 1007b100     cgipro_normal.obj
 0002:0000210c       ??_C@_0BD@CLLAPCIL@authenticationinfo?$AA@ 1007b10c     cgipro_normal.obj
 0002:00002120       ??_C@_03FONCLNOC@7?40?$AA@ 1007b120     cgipro_normal.obj
 0002:00002124       ??_C@_08ODGEKKOL@username?$AA@ 1007b124     cgipro_normal.obj
 0002:00002130       ??_C@_08NLHBPEGP@password?$AA@ 1007b130     cgipro_normal.obj
 0002:0000213c       ??_C@_0L@DFHFPKIC@loginparam?$AA@ 1007b13c     cgipro_normal.obj
 0002:00002148       ??_C@_0CH@BCEKABLD@http?3?1?1www?4kedacom?4com?1ver10?1XML@ 1007b148     cgipro_normal.obj
 0002:00002170       ??_C@_0BL@OMONFDEI@?1?1kdsapi?1?1security?1?1login?5?$AA@ 1007b170     cgipro_normal.obj
 0002:0000218c       ??_C@_0L@MCFPIDF@deviceinfo?$AA@ 1007b18c     cgipro_normal.obj
 0002:00002198       ??_C@_0L@BANMDDBI@devicename?$AA@ 1007b198     cgipro_normal.obj
 0002:000021a4       ??_C@_0BN@NNECHDAG@?1?1kdsapi?1?1system?1?1deviceinfo?$AA@ 1007b1a4     cgipro_normal.obj
 0002:000021c4       ??_C@_0M@DCCHFINK@timesyninfo?$AA@ 1007b1c4     cgipro_normal.obj
 0002:000021d0       ??_C@_08EDKBBHCH@timezone?$AA@ 1007b1d0     cgipro_normal.obj
 0002:000021dc       ??_C@_06DEHLDKIC@?$CL?$CFd?3?$CFd?$AA@ 1007b1dc     cgipro_normal.obj
 0002:000021e4       ??_C@_0BO@NNIJIGBE@?$CF04d?9?$CF02d?9?$CF02dT?$CF02d?3?$CF02d?3?$CF02d?$AA@ 1007b1e4     cgipro_normal.obj
 0002:00002204       ??_C@_0CA@KKCOGDJB@?1kdsapi?1system?1time?1synchronise?$AA@ 1007b204     cgipro_normal.obj
 0002:00002224       ??_C@_0BD@HFBCLBAL@systemtimeautoinfo?$AA@ 1007b224     cgipro_normal.obj
 0002:00002238       ??_C@_0O@OHOOEMDM@inputprotocol?$AA@ 1007b238     cgipro_normal.obj
 0002:00002248       ??_C@_03HJIFBJKJ@ntp?$AA@  1007b248     cgipro_normal.obj
 0002:0000224c       ??_C@_08JMPGNJGD@timemode?$AA@ 1007b24c     cgipro_normal.obj
 0002:00002258       ??_C@_03BMGHOINI@url?$AA@  1007b258     cgipro_normal.obj
 0002:0000225c       ??_C@_09LGGGGMEF@timespeed?$AA@ 1007b25c     cgipro_normal.obj
 0002:00002268       ??_C@_0BJ@KNPEBJIC@?1kdsapi?1system?1time?1auto?$AA@ 1007b268     cgipro_normal.obj
 0002:00002284       ??_C@_0P@EMILOGIP@summertimeinfo?$AA@ 1007b284     cgipro_normal.obj
 0002:00002294       ??_C@_0BD@OIPEDABN@enabledaylighttime?$AA@ 1007b294     cgipro_normal.obj
 0002:000022a8       ??_C@_0BC@DHOGBIHO@daylighttimestart?$AA@ 1007b2a8     cgipro_normal.obj
 0002:000022bc       ??_C@_09BLOJHGJM@weekindex?$AA@ 1007b2bc     cgipro_normal.obj
 0002:000022c8       ??_C@_04LMOJGCPE@hour?$AA@ 1007b2c8     cgipro_normal.obj
 0002:000022d0       ??_C@_0BA@OKEGPKCD@daylighttimeend?$AA@ 1007b2d0     cgipro_normal.obj
 0002:000022e0       ??_C@_0BD@FMBCBMJ@daylighttimeoffset?$AA@ 1007b2e0     cgipro_normal.obj
 0002:000022f4       ??_C@_0BO@FINBMOLD@?1?1kdsapi?1?1system?1?1time?1summer?$AA@ 1007b2f4     cgipro_normal.obj
 0002:00002314       ??_C@_06HFDGMLBK@rsinfo?$AA@ 1007b314     cgipro_normal.obj
 0002:0000231c       ??_C@_08BBONCMDB@baudrate?$AA@ 1007b31c     cgipro_normal.obj
 0002:00002328       ??_C@_07EKCGKLHJ@databit?$AA@ 1007b328     cgipro_normal.obj
 0002:00002330       ??_C@_07DNCPGMEI@stopbit?$AA@ 1007b330     cgipro_normal.obj
 0002:00002338       ??_C@_09KIHEKGJB@paritybit?$AA@ 1007b338     cgipro_normal.obj
 0002:00002344       ??_C@_0O@OODPFJMI@streamcontrol?$AA@ 1007b344     cgipro_normal.obj
 0002:00002354       ??_C@_0L@IBAOFMPH@addressnum?$AA@ 1007b354     cgipro_normal.obj
 0002:00002360       ??_C@_0BA@KDFPGIFF@controlprotocol?$AA@ 1007b360     cgipro_normal.obj
 0002:00002370       ??_C@_0BF@FNMNEDCJ@?1?1kdsapi?1?1system?1?1rs?$AA@ 1007b370     cgipro_normal.obj
 0002:00002388       ??_C@_0M@BJCIOKNF@ledfindinfo?$AA@ 1007b388     cgipro_normal.obj
 0002:00002394       ??_C@_05HJCMGBKF@speed?$AA@ 1007b394     cgipro_normal.obj
 0002:0000239c       ??_C@_0BJ@JJIIEFHG@?1?1kdsapi?1?1system?1?1reboot?$AA@ 1007b39c     cgipro_normal.obj
 0002:000023b8       ??_C@_0BD@JEAHICHJ@factorydefaultinfo?$AA@ 1007b3b8     cgipro_normal.obj
 0002:000023cc       ??_C@_0CB@NFOGFADF@?1?1kdsapi?1?1system?1?1factorydefault@ 1007b3cc     cgipro_normal.obj
 0002:000023f0       ??_C@_0L@GLHMLPNP@activeinfo?$AA@ 1007b3f0     cgipro_normal.obj
 0002:000023fc       ??_C@_04FFKLPPHM@mail?$AA@ 1007b3fc     cgipro_normal.obj
 0002:00002404       ??_C@_0CB@BEBFAIGB@?1?1kdsapi?1?1security?1?1user?1?1active@ 1007b404     cgipro_normal.obj
 0002:00002428       ??_C@_0BA@DENOCGJG@kedavsipavalive?$AA@ 1007b428     cgipro_normal.obj
 0002:00002438       ??_C@_0N@ODMHGCK@onvifavalive?$AA@ 1007b438     cgipro_normal.obj
 0002:00002448       ??_C@_0BA@BGONMPAP@gb28181avalive?$DO?$AA@ 1007b448     cgipro_normal.obj
 0002:00002458       ??_C@_0N@LEABIPJN@osdpicsource?$AA@ 1007b458     cgipro_normal.obj
 0002:00002468       ??_C@_0L@LJGBIOM@osdpicfont?$AA@ 1007b468     cgipro_normal.obj
 0002:00002474       ??_C@_09NAPKHMNK@tccontrol?$AA@ 1007b474     cgipro_normal.obj
 0002:00002480       ??_C@_0CM@PAKHHDAP@?1?1kdsapi?1?1system?1?1configfile?1?1pr@ 1007b480     cgipro_normal.obj
 0002:000024ac       ??_C@_0CF@JAGBNMIH@?1?1kdsapi?1?1system?1?1configfile?1?1up@ 1007b4ac     cgipro_normal.obj
 0002:000024d4       ??_C@_0BD@FPHALDNJ@prepareupgradeinfo?$AA@ 1007b4d4     cgipro_normal.obj
 0002:000024e8       ??_C@_0BC@JAGOAEN@upgradefilelength?$AA@ 1007b4e8     cgipro_normal.obj
 0002:000024fc       ??_C@_09EBEONHPJ@checkdata?$AA@ 1007b4fc     cgipro_normal.obj
 0002:00002508       ??_C@_0CG@MDKGGAHE@?1kdsapi?1system?1upgrade?1prepareup@ 1007b508     cgipro_normal.obj
 0002:00002530       ??_C@_0L@LLNPPDGI@devicetype?$AA@ 1007b530     cgipro_normal.obj
 0002:0000253c       ??_C@_0N@IIGIGMNM@deviceserial?$AA@ 1007b53c     cgipro_normal.obj
 0002:0000254c       ??_C@_0BA@JPDEMAHN@firmwareversion?$AA@ 1007b54c     cgipro_normal.obj
 0002:0000255c       ??_C@_0M@NAJGFBLJ@softversion?$AA@ 1007b55c     cgipro_normal.obj
 0002:00002568       ??_C@_0P@BEFHNPLB@videosourcenum?$AA@ 1007b568     cgipro_normal.obj
 0002:00002578       ??_C@_0P@GPILNAMA@systemtimeinfo?$AA@ 1007b578     cgipro_normal.obj
 0002:00002588       ??_C@_0BC@DOEHIAJI@?$CFd?9?$CFd?9?$CFdT?$CFd?3?$CFd?3?$CFd?$AA@ 1007b588     cgipro_normal.obj
 0002:0000259c       ??_C@_0BC@LNAAMPGA@kedavsiptimestamp?$AA@ 1007b59c     cgipro_normal.obj
 0002:000025b0       ??_C@_0P@EAGBFHHE@gb28181avalive?$AA@ 1007b5b0     cgipro_normal.obj
 0002:000025c0       ??_C@_0L@JMPOKGNC@cgiavalive?$AA@ 1007b5c0     cgipro_normal.obj
 0002:000025cc       ??_C@_0BE@FPNMGGI@preparedownloadinfo?$AA@ 1007b5cc     cgipro_normal.obj
 0002:000025e0       ??_C@_0N@JAOMBGDD@downloadinfo?$AA@ 1007b5e0     cgipro_normal.obj
 0002:000025f0       ??_C@_0BB@HPGKPPCD@upgradestateinfo?$AA@ 1007b5f0     cgipro_normal.obj
 0002:00002604       ??_C@_09IHMNDNMJ@uploading?$AA@ 1007b604     cgipro_normal.obj
 0002:00002610       ??_C@_0CG@KDBNIAPE@?1?1kdsapi?1?1system?1?1batterystatus?1@ 1007b610     cgipro_normal.obj
 0002:00002638       ??_C@_0BC@ELJIBCBL@batterystatusinfo?$AA@ 1007b638     cgipro_normal.obj
 0002:0000264c       ??_C@_0O@PILFJHJI@batterystatus?$AA@ 1007b64c     cgipro_normal.obj
 0002:0000265c       ??_C@_0L@BFLMHBPP@configinfo?$AA@ 1007b65c     cgipro_normal.obj
 0002:00002668       ??_C@_03FMKCBIDH@ssh?$AA@  1007b668     cgipro_normal.obj
 0002:0000266c       ??_C@_0BL@PFKBJOMB@?1?1kdsapi?1?1security?1?1config?$AA@ 1007b66c     cgipro_normal.obj
 0002:00002688       ??_C@_08PPJNGBMG@userinfo?$AA@ 1007b688     cgipro_normal.obj
 0002:00002694       ??_C@_09MBCDKMKE@userlevel?$AA@ 1007b694     cgipro_normal.obj
 0002:000026a0       ??_C@_06HLKELJGF@memory?$AA@ 1007b6a0     cgipro_normal.obj
 0002:000026a8       ??_C@_09MOADGN@?0paramset?$AA@ 1007b6a8     cgipro_normal.obj
 0002:000026b4       ??_C@_04NAPLDLIL@?0ptz?$AA@ 1007b6b4     cgipro_normal.obj
 0002:000026bc       ??_C@_07JPKFPLPD@?0reboot?$AA@ 1007b6bc     cgipro_normal.obj
 0002:000026c4       ??_C@_0L@LDLGPFLE@?0recandpic?$AA@ 1007b6c4     cgipro_normal.obj
 0002:000026d0       ??_C@_07BMJHAMF@?0system?$AA@ 1007b6d0     cgipro_normal.obj
 0002:000026d8       ??_C@_05CAINNAAN@?0view?$AA@ 1007b6d8     cgipro_normal.obj
 0002:000026e0       ??_C@_09GAJFFMO@powertype?$AA@ 1007b6e0     cgipro_normal.obj
 0002:000026ec       ??_C@_0BO@MJGILOJ@?1?1kdsapi?1?1security?1?1user?1?1add?$AA@ 1007b6ec     cgipro_normal.obj
 0002:0000270c       ??_C@_0CB@IJLGHDEO@?1?1kdsapi?1?1security?1?1user?1?1delete@ 1007b70c     cgipro_normal.obj
 0002:00002730       ??_C@_0P@JFFMEMAE@userupdateinfo?$AA@ 1007b730     cgipro_normal.obj
 0002:00002740       ??_C@_0M@KGLMCLKG@oldusername?$AA@ 1007b740     cgipro_normal.obj
 0002:0000274c       ??_C@_0M@JOKJHFCC@oldpassword?$AA@ 1007b74c     cgipro_normal.obj
 0002:00002758       ??_C@_0M@IKMNGDKH@newusername?$AA@ 1007b758     cgipro_normal.obj
 0002:00002764       ??_C@_0CI@LBJJBFEE@?1?1kdsapi?1?1security?1?1user?1?1update@ 1007b764     cgipro_normal.obj
 0002:0000278c       ??_C@_0M@LCNIDNCD@newpassword?$AA@ 1007b78c     cgipro_normal.obj
 0002:00002798       ??_C@_08BJHBHMAO@userlist?$AA@ 1007b798     cgipro_normal.obj
 0002:000027a4       ??_C@_04CCHAHKJA@user?$AA@ 1007b7a4     cgipro_normal.obj
 0002:000027ac       ??_C@_04CHADEDPO@view?$AA@ 1007b7ac     cgipro_normal.obj
 0002:000027b4       ??_C@_09LHDNDBDO@recandpic?$AA@ 1007b7b4     cgipro_normal.obj
 0002:000027c0       ??_C@_03DDKMNBIP@ptz?$AA@  1007b7c0     cgipro_normal.obj
 0002:000027c4       ??_C@_08FACMJMOL@paramset?$AA@ 1007b7c4     cgipro_normal.obj
 0002:000027d0       ??_C@_06MJDCIMPN@reboot?$AA@ 1007b7d0     cgipro_normal.obj
 0002:000027d8       ??_C@_06FHFOAHML@system?$AA@ 1007b7d8     cgipro_normal.obj
 0002:000027e0       ??_C@_0BL@PPGAOEBA@?1?1kdsapi?1?1network?1?11?1?1port?$AA@ 1007b7e0     cgipro_normal.obj
 0002:000027fc       ??_C@_0BA@GJDNDPEB@networkportinfo?$AA@ 1007b7fc     cgipro_normal.obj
 0002:0000280c       ??_C@_08EDODKJCI@httpport?$AA@ 1007b80c     cgipro_normal.obj
 0002:00002818       ??_C@_09LMHPHGKM@httpsport?$AA@ 1007b818     cgipro_normal.obj
 0002:00002824       ??_C@_08LPKKFPEJ@rtspport?$AA@ 1007b824     cgipro_normal.obj
 0002:00002830       ??_C@_0O@EOMEAGOM@multicastport?$AA@ 1007b830     cgipro_normal.obj
 0002:00002840       ??_C@_0BM@NCOBFOMJ@?1?1kdsapi?1?1network?1?11?1?1tcpip?$AA@ 1007b840     cgipro_normal.obj
 0002:0000285c       ??_C@_09NOIBMPJL@tcpipinfo?$AA@ 1007b85c     cgipro_normal.obj
 0002:00002868       ??_C@_02OLOIMBPI@v4?$AA@   1007b868     cgipro_normal.obj
 0002:0000286c       ??_C@_02NJNOKDHK@v6?$AA@   1007b86c     cgipro_normal.obj
 0002:00002870       ??_C@_03BADCJGEO@mac?$AA@  1007b870     cgipro_normal.obj
 0002:00002874       ??_C@_03BGEHECAC@mtu?$AA@  1007b874     cgipro_normal.obj
 0002:00002878       ??_C@_0M@EPKKPGLJ@addresstype?$AA@ 1007b878     cgipro_normal.obj
 0002:00002884       ??_C@_06GGHJAEBN@static?$AA@ 1007b884     cgipro_normal.obj
 0002:0000288c       ??_C@_07OBLKMMON@dynamic?$AA@ 1007b88c     cgipro_normal.obj
 0002:00002894       ??_C@_09OMLGLGNL@ipaddress?$AA@ 1007b894     cgipro_normal.obj
 0002:000028a0       ??_C@_0L@CPJHEEPM@subnetmask?$AA@ 1007b8a0     cgipro_normal.obj
 0002:000028ac       ??_C@_0P@GLJODCDK@defaultgateway?$AA@ 1007b8ac     cgipro_normal.obj
 0002:000028bc       ??_C@_07EBACHMDP@autodns?$AA@ 1007b8bc     cgipro_normal.obj
 0002:000028c4       ??_C@_0L@CEIMJAFD@dnsserver1?$AA@ 1007b8c4     cgipro_normal.obj
 0002:000028d0       ??_C@_0L@PKBMDJA@dnsserver2?$AA@ 1007b8d0     cgipro_normal.obj
 0002:000028dc       ??_C@_09HCCMHGIN@multicast?$AA@ 1007b8dc     cgipro_normal.obj
 0002:000028e8       ??_C@_06CCCMIMMB@ipmode?$AA@ 1007b8e8     cgipro_normal.obj
 0002:000028f0       ??_C@_05ECGBNMK@route?$AA@ 1007b8f0     cgipro_normal.obj
 0002:000028f8       ??_C@_0BL@OHHMJOIA@?1?1kdsapi?1?1network?1?11?1?1ddns?$AA@ 1007b8f8     cgipro_normal.obj
 0002:00002914       ??_C@_08PLADIIJJ@ddnsinfo?$AA@ 1007b914     cgipro_normal.obj
 0002:00002920       ??_C@_06PBBNALMK@devurl?$AA@ 1007b920     cgipro_normal.obj
 0002:00002928       ??_C@_08NENGALGO@provider?$AA@ 1007b928     cgipro_normal.obj
 0002:00002934       ??_C@_0CC@IIFPCGGJ@?1?1kdsapi?1?1network?1?11?1?1ddns?1?1stat@ 1007b934     cgipro_normal.obj
 0002:00002958       ??_C@_0O@NOFGIOGG@ddnsstateinfo?$AA@ 1007b958     cgipro_normal.obj
 0002:00002968       ??_C@_0BM@FNAIGLCL@?1?1kdsapi?1?1network?1?11?1?1pppoe?$AA@ 1007b968     cgipro_normal.obj
 0002:00002984       ??_C@_09HCOMLHEH@pppoeinfo?$AA@ 1007b984     cgipro_normal.obj
 0002:00002990       ??_C@_09BBDLGLNJ@dynamicip?$AA@ 1007b990     cgipro_normal.obj
 0002:0000299c       ??_C@_0BK@JJEBIDNI@?1?1kdsapi?1?1network?1?11?1?1qos?$AA@ 1007b99c     cgipro_normal.obj
 0002:000029b8       ??_C@_07OLILKHAN@qosinfo?$AA@ 1007b9b8     cgipro_normal.obj
 0002:000029c0       ??_C@_0P@HCNBKKKL@videodscpvalue?$AA@ 1007b9c0     cgipro_normal.obj
 0002:000029d0       ??_C@_0BB@PKIFBIAH@managerdscpvalue?$AA@ 1007b9d0     cgipro_normal.obj
 0002:000029e4       ??_C@_0BP@FEPGGKNL@?1?1kdsapi?1?1network?1?11?1?1kedasnmp?$AA@ 1007b9e4     cgipro_normal.obj
 0002:00002a04       ??_C@_0N@HLIAHFOH@kedasnmpinfo?$AA@ 1007ba04     cgipro_normal.obj
 0002:00002a14       ??_C@_07PHOBPIGI@svrport?$AA@ 1007ba14     cgipro_normal.obj
 0002:00002a1c       ??_C@_06LDCLDPGF@cpuvpt?$AA@ 1007ba1c     cgipro_normal.obj
 0002:00002a24       ??_C@_09FPCGAPBM@memeryvpt?$AA@ 1007ba24     cgipro_normal.obj
 0002:00002a30       ??_C@_07LAHFLLOM@lostvpt?$AA@ 1007ba30     cgipro_normal.obj
 0002:00002a38       ??_C@_09NLFJCNMA@devadress?$AA@ 1007ba38     cgipro_normal.obj
 0002:00002a44       ??_C@_05BMBGNFBC@svrip?$AA@ 1007ba44     cgipro_normal.obj
 0002:00002a4c       ??_C@_0BM@EOKDEEHD@?1?1kdsapi?1?1network?1?11?1?18021x?$AA@ 1007ba4c     cgipro_normal.obj
 0002:00002a68       ??_C@_09PIPBFGNH@x8021info?$AA@ 1007ba68     cgipro_normal.obj
 0002:00002a74       ??_C@_0N@IBMLDANE@eapolversion?$AA@ 1007ba74     cgipro_normal.obj
 0002:00002a84       ??_C@_0N@DHOINJCF@protocoltype?$AA@ 1007ba84     cgipro_normal.obj
 0002:00002a94       ??_C@_0BM@CHHHIFDJ@?1?1kdsapi?1?1network?1?11?1?1upnp?5?$AA@ 1007ba94     cgipro_normal.obj
 0002:00002ab0       ??_C@_08DONNJDNE@upnpinfo?$AA@ 1007bab0     cgipro_normal.obj
 0002:00002abc       ??_C@_0M@EABEKKL@portmapmode?$AA@ 1007babc     cgipro_normal.obj
 0002:00002ac8       ??_C@_0M@FGLKKKCC@portmaplist?$AA@ 1007bac8     cgipro_normal.obj
 0002:00002ad4       ??_C@_07KOKNJAPA@portmap?$AA@ 1007bad4     cgipro_normal.obj
 0002:00002adc       ??_C@_0N@NEIEFPII@portmapmode?5?$AA@ 1007badc     cgipro_normal.obj
 0002:00002aec       ??_C@_0BL@EOKKLDLJ@?1?1kdsapi?1?1network?1?11?1?1upnp?$AA@ 1007baec     cgipro_normal.obj
 0002:00002b08       ??_C@_0BP@DJGMMCDF@?1?1kdsapi?1?1network?1?11?1?1kedavsip?$AA@ 1007bb08     cgipro_normal.obj
 0002:00002b28       ??_C@_0N@CCOGDAEB@kedavsipinfo?$AA@ 1007bb28     cgipro_normal.obj
 0002:00002b38       ??_C@_0L@HMPPNFAF@sendnatpac?$AA@ 1007bb38     cgipro_normal.obj
 0002:00002b44       ??_C@_0M@GHEIAHPK@selfnetwork?$AA@ 1007bb44     cgipro_normal.obj
 0002:00002b50       ??_C@_04BCJJGJPP@uuid?$AA@ 1007bb50     cgipro_normal.obj
 0002:00002b58       ??_C@_0M@FJOPIGCA@netpassword?$AA@ 1007bb58     cgipro_normal.obj
 0002:00002b64       ??_C@_06PBCOCDCA@ipport?$AA@ 1007bb64     cgipro_normal.obj
 0002:00002b6c       ??_C@_08LNBABJKM@ipaddrv4?$AA@ 1007bb6c     cgipro_normal.obj
 0002:00002b78       ??_C@_0BM@HKJDICCL@?1?1kdsapi?1?1network?1?11?1?1onvif?$AA@ 1007bb78     cgipro_normal.obj
 0002:00002b94       ??_C@_09ODGALKNC@onvifinfo?$AA@ 1007bb94     cgipro_normal.obj
 0002:00002ba0       ??_C@_0BL@CMPJGOGL@?1?1kdsapi?1?1network?1?11?1?1dpss?$AA@ 1007bba0     cgipro_normal.obj
 0002:00002bbc       ??_C@_08FPLEKEG@dpssinfo?$AA@ 1007bbbc     cgipro_normal.obj
 0002:00002bc8       ??_C@_08IPCGHLCO@ipaddrv6?$AA@ 1007bbc8     cgipro_normal.obj
 0002:00002bd4       ??_C@_0BP@KCLKIPHF@?1?1kdsapi?1?1network?1?11?1?1authmode?$AA@ 1007bbd4     cgipro_normal.obj
 0002:00002bf4       ??_C@_08BPGNDAPK@authmode?$AA@ 1007bbf4     cgipro_normal.obj
 0002:00002c00       ??_C@_0P@OOAPCKBK@authentication?$AA@ 1007bc00     cgipro_normal.obj
 0002:00002c10       ??_C@_0CA@ELOIFGKC@?1?1kdsapi?1?1network?1?11?1?1gb28181?1?1?$AA@ 1007bc10     cgipro_normal.obj
 0002:00002c30       ??_C@_0M@NFJOJKAJ@gb28181info?$AA@ 1007bc30     cgipro_normal.obj
 0002:00002c3c       ??_C@_09CELNKGLB@relettime?$AA@ 1007bc3c     cgipro_normal.obj
 0002:00002c48       ??_C@_09NCPIAHOP@heartbeat?$AA@ 1007bc48     cgipro_normal.obj
 0002:00002c54       ??_C@_0L@DKPFKGAB@plataddrv4?$AA@ 1007bc54     cgipro_normal.obj
 0002:00002c60       ??_C@_09NOFGBFHM@localport?$AA@ 1007bc60     cgipro_normal.obj
 0002:00002c6c       ??_C@_08FFNCJCKA@platport?$AA@ 1007bc6c     cgipro_normal.obj
 0002:00002c78       ??_C@_05IPNLKBIM@netid?$AA@ 1007bc78     cgipro_normal.obj
 0002:00002c80       ??_C@_07DHJEJNJC@devname?$AA@ 1007bc80     cgipro_normal.obj
 0002:00002c88       ??_C@_06PHFFAILB@platid?$AA@ 1007bc88     cgipro_normal.obj
 0002:00002c90       ??_C@_0L@IMDMEID@plataddrv6?$AA@ 1007bc90     cgipro_normal.obj
 0002:00002c9c       ??_C@_0N@BFDMFFAP@userpassword?$AA@ 1007bc9c     cgipro_normal.obj
 0002:00002cac       ??_C@_09DHMBFHND@civilcode?$AA@ 1007bcac     cgipro_normal.obj
 0002:00002cb8       ??_C@_09FIOOJGPE@policergn?$AA@ 1007bcb8     cgipro_normal.obj
 0002:00002cc4       ??_C@_05HEIBENID@owner?$AA@ 1007bcc4     cgipro_normal.obj
 0002:00002ccc       ??_C@_0N@MEOONDGK@setupaddress?$AA@ 1007bccc     cgipro_normal.obj
 0002:00002cdc       ??_C@_06GFPMPEEP@expand?$AA@ 1007bcdc     cgipro_normal.obj
 0002:00002ce4       ??_C@_07DBGENKGL@encchns?$AA@ 1007bce4     cgipro_normal.obj
 0002:00002cec       ??_C@_09CNIAOJLK@alarmchns?$AA@ 1007bcec     cgipro_normal.obj
 0002:00002cf8       ??_C@_0CD@CPKGKGPJ@?1?1kdsapi?1?1network?1?11?1?1wlan?1?1conf@ 1007bcf8     cgipro_normal.obj
 0002:00002d1c       ??_C@_0P@IAJLLEIL@wlanconfiginfo?$AA@ 1007bd1c     cgipro_normal.obj
 0002:00002d2c       ??_C@_04LILCMDID@ssid?$AA@ 1007bd2c     cgipro_normal.obj
 0002:00002d34       ??_C@_0M@ELCGIAHK@encrypttype?$AA@ 1007bd34     cgipro_normal.obj
 0002:00002d40       ??_C@_0N@ONPHKKJD@securitytype?$AA@ 1007bd40     cgipro_normal.obj
 0002:00002d50       ??_C@_07MFOHDNMP@channel?$AA@ 1007bd50     cgipro_normal.obj
 0002:00002d58       ??_C@_0BJ@NIONPGFP@?1?1kdsapi?1?1storage?1?1state?$AA@ 1007bd58     cgipro_normal.obj
 0002:00002d74       ??_C@_0BB@LEHIBKNL@storagestateinfo?$AA@ 1007bd74     cgipro_normal.obj
 0002:00002d88       ??_C@_0BL@JFGACODM@?1?1kdsapi?1?1storage?1?1manager?$AA@ 1007bd88     cgipro_normal.obj
 0002:00002da4       ??_C@_0BD@NHDIMEKJ@storagemanagerinfo?$AA@ 1007bda4     cgipro_normal.obj
 0002:00002db8       ??_C@_05HAGAAHKK@disks?$AA@ 1007bdb8     cgipro_normal.obj
 0002:00002dc0       ??_C@_08LEKMMNIM@fullmode?$AA@ 1007bdc0     cgipro_normal.obj
 0002:00002dcc       ??_C@_04MDPPAFID@disk?$AA@ 1007bdcc     cgipro_normal.obj
 0002:00002dd4       ??_C@_0BC@DGMELICK@storageformatinfo?$AA@ 1007bdd4     cgipro_normal.obj
 0002:00002de8       ??_C@_06MNANGMNI@disksn?$AA@ 1007bde8     cgipro_normal.obj
 0002:00002df0       ??_C@_0BK@OBPAABML@?1?1kdsapi?1?1storage?1?1format?$AA@ 1007bdf0     cgipro_normal.obj
 0002:00002e0c       ??_C@_0CA@DDBNAHCO@?1?1kdsapi?1?1storage?1?1formatstatus?$AA@ 1007be0c     cgipro_normal.obj
 0002:00002e2c       ??_C@_0BA@NNHKCJCJ@formatstateinfo?$AA@ 1007be2c     cgipro_normal.obj
 0002:00002e3c       ??_C@_0M@OMAHODEC@isformating?$AA@ 1007be3c     cgipro_normal.obj
 0002:00002e48       ??_C@_0CC@BGJKKNFA@?1?1kdsapi?1?1storage?1?1recordschedul@ 1007be48     cgipro_normal.obj
 0002:00002e6c       ??_C@_0BA@FPFIMHGD@recscheduleinfo?$AA@ 1007be6c     cgipro_normal.obj
 0002:00002e7c       ??_C@_0M@OMDFJJGO@preparetime?$AA@ 1007be7c     cgipro_normal.obj
 0002:00002e88       ??_C@_09EGNMGAND@delaytime?$AA@ 1007be88     cgipro_normal.obj
 0002:00002e94       ??_C@_04EBGGLNMI@esps?$AA@ 1007be94     cgipro_normal.obj
 0002:00002e9c       ??_C@_0CD@LJAEOLJA@?1?1kdsapi?1?1storage?1?1snappicconfig@ 1007be9c     cgipro_normal.obj
 0002:00002ec0       ??_C@_0P@HLENGAPA@snappiccfginfo?$AA@ 1007bec0     cgipro_normal.obj
 0002:00002ed0       ??_C@_0CA@HCNCGIBM@?1?1kdsapi?1?1storage?1?1snappicevent?$AA@ 1007bed0     cgipro_normal.obj
 0002:00002ef0       ??_C@_0BB@EJMMOBNO@snappiceventinfo?$AA@ 1007bef0     cgipro_normal.obj
 0002:00002f04       ??_C@_09FCJCLMND@snapspeed?$AA@ 1007bf04     cgipro_normal.obj
 0002:00002f10       ??_C@_0N@PBHOMKNO@eventsnapnum?$AA@ 1007bf10     cgipro_normal.obj
 0002:00002f20       ??_C@_0P@LHMNLPBF@enabletimesnap?$AA@ 1007bf20     cgipro_normal.obj
 0002:00002f30       ??_C@_08KAIAIINH@snapspid?$AA@ 1007bf30     cgipro_normal.obj
 0002:00002f3c       ??_C@_0BP@DKHKFNGL@?1?1kdsapi?1?1storage?1?1snappictime?$AA@ 1007bf3c     cgipro_normal.obj
 0002:00002f5c       ??_C@_08GFEELCPD@snaptype?$AA@ 1007bf5c     cgipro_normal.obj
 0002:00002f68       ??_C@_07GBICAM@snapnum?$AA@ 1007bf68     cgipro_normal.obj
 0002:00002f70       ??_C@_0BL@HEHHHECC@?1?1kdsapi?1?1event?1?1detect?1?11?$AA@ 1007bf70     cgipro_normal.obj
 0002:00002f8c       ??_C@_0L@LNPGBEMC@detectinfo?$AA@ 1007bf8c     cgipro_normal.obj
 0002:00002f98       ??_C@_08HOFIAIOP@alllevel?$AA@ 1007bf98     cgipro_normal.obj
 0002:00002fa4       ??_C@_05EPHILNBP@areas?$AA@ 1007bfa4     cgipro_normal.obj
 0002:00002fac       ??_C@_0BK@FLDFOJJB@?1?1kdsapi?1?1event?1detect?1?11?$AA@ 1007bfac     cgipro_normal.obj
 0002:00002fc8       ??_C@_0CA@NCJHIIBB@?1?1kdsapi?1?1event?1?1shieldalarm?1?11?$AA@ 1007bfc8     cgipro_normal.obj
 0002:00002fe8       ??_C@_0BA@CCBFNCJJ@shieldalarminfo?$AA@ 1007bfe8     cgipro_normal.obj
 0002:00002ff8       ??_C@_0CA@JGGLONPD@?1?1kdsapi?1?1event?1?11?1?1warningline?$AA@ 1007bff8     cgipro_normal.obj
 0002:00003018       ??_C@_0BA@KGMPABOC@warninglineinfo?$AA@ 1007c018     cgipro_normal.obj
 0002:00003028       ??_C@_08OILNMDBO@linelist?$AA@ 1007c028     cgipro_normal.obj
 0002:00003034       ??_C@_04HJPCFDOP@line?$AA@ 1007c034     cgipro_normal.obj
 0002:0000303c       ??_C@_09HPKLLIJF@direction?$AA@ 1007c03c     cgipro_normal.obj
 0002:00003048       ??_C@_09PCAMAPJN@mediamode?$AA@ 1007c048     cgipro_normal.obj
 0002:00003054       ??_C@_0CE@HALKKGHI@?1?1kdsapi?1?1event?1?11?1?1areadetecten@ 1007c054     cgipro_normal.obj
 0002:00003078       ??_C@_0BP@CICEKNDM@?1?1kdsapi?1?1event?1?11?1?1areadetect?$AA@ 1007c078     cgipro_normal.obj
 0002:00003098       ??_C@_0CC@HAPHMLLF@?1?1kdsapi?1?1event?1?11?1?1areadetectou@ 1007c098     cgipro_normal.obj
 0002:000030bc       ??_C@_0P@FBENAGAA@areadetectinfo?$AA@ 1007c0bc     cgipro_normal.obj
 0002:000030cc       ??_C@_0CI@LJIGLDLK@?1?1kdsapi?1?1event?1?11?1?1areadetecten@ 1007c0cc     cgipro_normal.obj
 0002:000030f4       ??_C@_0CD@CLNHONGD@?1?1kdsapi?1?1event?1?11?1?1areadetect?1?1@ 1007c0f4     cgipro_normal.obj
 0002:00003118       ??_C@_0CG@DIHJOMFK@?1?1kdsapi?1?1event?1?11?1?1areadetectou@ 1007c118     cgipro_normal.obj
 0002:00003140       ??_C@_0CJ@BLLLEFD@?1?1kdsapi?1?1event?1?11?1?1thingsevt?1?1l@ 1007c140     cgipro_normal.obj
 0002:0000316c       ??_C@_0CE@BFDFIGMM@?1?1kdsapi?1?1event?1?11?1?1thingsevt?1?1t@ 1007c16c     cgipro_normal.obj
 0002:00003190       ??_C@_0O@KCNPOJAE@thingsevtinfo?$AA@ 1007c190     cgipro_normal.obj
 0002:000031a0       ??_C@_0CN@OPAOJMHA@?1?1kdsapi?1?1event?1?11?1?1thingsevt?1?1l@ 1007c1a0     cgipro_normal.obj
 0002:000031d0       ??_C@_0CI@JCBIDNME@?1?1kdsapi?1?1event?1?11?1?1thingsevt?1?1t@ 1007c1d0     cgipro_normal.obj
 0002:000031f8       ??_C@_0CJ@MECCFBFN@?1?1kdsapi?1?1event?1?11?1?1personevt?1?1a@ 1007c1f8     cgipro_normal.obj
 0002:00003224       ??_C@_0O@KKOPCDIN@personevtinfo?$AA@ 1007c224     cgipro_normal.obj
 0002:00003234       ??_C@_0CN@OLHFPOGE@?1?1kdsapi?1?1event?1?11?1?1personevt?1?1a@ 1007c234     cgipro_normal.obj
 0002:00003264       ??_C@_0CB@JKGCAGHM@?1?1kdsapi?1?1event?1?11?1?1virtualfocus@ 1007c264     cgipro_normal.obj
 0002:00003288       ??_C@_0BB@NBBEAAAD@virtualfocusinfo?$AA@ 1007c288     cgipro_normal.obj
 0002:0000329c       ??_C@_0CA@IAJKDEIH@?1?1kdsapi?1?1event?1?11?1?1sightchange?$AA@ 1007c29c     cgipro_normal.obj
 0002:000032bc       ??_C@_0BA@DJLJFNDL@sightchangeinfo?$AA@ 1007c2bc     cgipro_normal.obj
 0002:000032cc       ??_C@_07ELGANCGC@chkmode?$AA@ 1007c2cc     cgipro_normal.obj
 0002:000032d4       ??_C@_0CD@BIOFPLIE@?1?1kdsapi?1?1event?1?11?1?1audioexcepti@ 1007c2d4     cgipro_normal.obj
 0002:000032f8       ??_C@_0P@HEMGIAE@audioexception?$AA@ 1007c2f8     cgipro_normal.obj
 0002:00003308       ??_C@_0BP@DKNGPFCE@?1?1kdsapi?1?1event?1?11?1?1facedetect?$AA@ 1007c308     cgipro_normal.obj
 0002:00003328       ??_C@_0P@HDHMPEAP@facedetectinfo?$AA@ 1007c328     cgipro_normal.obj
 0002:00003338       ??_C@_0BM@JCHOBMDN@?1?1kdsapi?1?1event?1?1alarmin?1?11?$AA@ 1007c338     cgipro_normal.obj
 0002:00003354       ??_C@_0N@CDFBOCHP@alarminparam?$AA@ 1007c354     cgipro_normal.obj
 0002:00003364       ??_C@_0M@LLJBOJF@alarmininfo?$AA@ 1007c364     cgipro_normal.obj
 0002:00003370       ??_C@_09LGMGGJAP@alarmname?$AA@ 1007c370     cgipro_normal.obj
 0002:0000337c       ??_C@_09BNMFKJHP@alarmtype?$AA@ 1007c37c     cgipro_normal.obj
 0002:00003388       ??_C@_06HPBHHDEL@copyto?$AA@ 1007c388     cgipro_normal.obj
 0002:00003390       ??_C@_0BN@MNBNICHN@?1?1kdsapi?1?1event?1?1alarmout?1?11?$AA@ 1007c390     cgipro_normal.obj
 0002:000033b0       ??_C@_0O@BCDCGFDI@alarmoutparam?$AA@ 1007c3b0     cgipro_normal.obj
 0002:000033c0       ??_C@_0N@GLALGDL@alarmoutinfo?$AA@ 1007c3c0     cgipro_normal.obj
 0002:000033d0       ??_C@_05EKJCMADO@delay?$AA@ 1007c3d0     cgipro_normal.obj
 0002:000033d8       ??_C@_0CB@NFPKFKFO@?1?1kdsapi?1?1event?1?1exception?1?1type@ 1007c3d8     cgipro_normal.obj
 0002:000033fc       ??_C@_0BC@BKHPHMFA@exceptiontypeinfo?$AA@ 1007c3fc     cgipro_normal.obj
 0002:00003410       ??_C@_0BL@MGMADJIH@?1?1kdsapi?1?1event?1?1exception?$AA@ 1007c410     cgipro_normal.obj
 0002:0000342c       ??_C@_0P@FHGJENBM@exceptionparam?$AA@ 1007c42c     cgipro_normal.obj
 0002:0000343c       ??_C@_0O@ICMEOHBG@exceptioninfo?$AA@ 1007c43c     cgipro_normal.obj
 0002:0000344c       ??_C@_08HOFHLHFN@ptzparam?$AA@ 1007c44c     cgipro_normal.obj
 0002:00003458       ??_C@_08KCBOOOOE@ptzevent?$AA@ 1007c458     cgipro_normal.obj
 0002:00003464       ??_C@_06HGDPHBDI@moveup?$AA@ 1007c464     cgipro_normal.obj
 0002:0000346c       ??_C@_08MPKHEKGJ@movedown?$AA@ 1007c46c     cgipro_normal.obj
 0002:00003478       ??_C@_08DNKDNCFA@moveleft?$AA@ 1007c478     cgipro_normal.obj
 0002:00003484       ??_C@_09HBKJPNEP@moveright?$AA@ 1007c484     cgipro_normal.obj
 0002:00003490       ??_C@_0N@LKJAFBDE@move_rightup?$AA@ 1007c490     cgipro_normal.obj
 0002:000034a0       ??_C@_0P@FIHMOJAC@move_rightdown?$AA@ 1007c4a0     cgipro_normal.obj
 0002:000034b0       ??_C@_0M@LFLDIMF@move_leftup?$AA@ 1007c4b0     cgipro_normal.obj
 0002:000034bc       ??_C@_0O@GBLFFBMJ@move_leftdown?$AA@ 1007c4bc     cgipro_normal.obj
 0002:000034cc       ??_C@_08BJIMIAOA@panspeed?$AA@ 1007c4cc     cgipro_normal.obj
 0002:000034d8       ??_C@_08BKNLHA@tilspeed?$AA@ 1007c4d8     cgipro_normal.obj
 0002:000034e4       ??_C@_08OFMJNMBN@zoomtele?$AA@ 1007c4e4     cgipro_normal.obj
 0002:000034f0       ??_C@_08OGKMEIMN@zoomwide?$AA@ 1007c4f0     cgipro_normal.obj
 0002:000034fc       ??_C@_08IKLPGILK@zoomstop?$AA@ 1007c4fc     cgipro_normal.obj
 0002:00003508       ??_C@_09FADCPOAO@focusnear?$AA@ 1007c508     cgipro_normal.obj
 0002:00003514       ??_C@_08CKNGODMB@focusfar?$AA@ 1007c514     cgipro_normal.obj
 0002:00003520       ??_C@_09BIEPNCEP@focusstop?$AA@ 1007c520     cgipro_normal.obj
 0002:0000352c       ??_C@_08BAJAKFAP@ispspeed?$AA@ 1007c52c     cgipro_normal.obj
 0002:00003538       ??_C@_0BF@NDEFFMKI@?1?1kdsapi?1?1video?1?1ptz?$AA@ 1007c538     cgipro_normal.obj
 0002:00003550       ??_C@_09FFPDDKKN@zoomwidth?$AA@ 1007c550     cgipro_normal.obj
 0002:0000355c       ??_C@_0L@LPAJIAAB@zoomheight?$AA@ 1007c55c     cgipro_normal.obj
 0002:00003568       ??_C@_09NJCICNO@wiper_set?$AA@ 1007c568     cgipro_normal.obj
 0002:00003574       ??_C@_0BL@MKPDJBBJ@?1?1kdsapi?1?1video?1?1ptz?1?1base?$AA@ 1007c574     cgipro_normal.obj
 0002:00003590       ??_C@_0M@FHJIEOK@ptzbaseinfo?$AA@ 1007c590     cgipro_normal.obj
 0002:0000359c       ??_C@_0L@EFIHMPHE@ptzversion?$AA@ 1007c59c     cgipro_normal.obj
 0002:000035a8       ??_C@_08NKHJOGMF@scanrate?$AA@ 1007c5a8     cgipro_normal.obj
 0002:000035b4       ??_C@_0M@HDFHLLKC@enabledepth?$AA@ 1007c5b4     cgipro_normal.obj
 0002:000035c0       ??_C@_0BP@NAIAMPHP@?1?1kdsapi?1?1video?1?1ptz?1?1maintain?$AA@ 1007c5c0     cgipro_normal.obj
 0002:000035e0       ??_C@_0N@LOCJFPJJ@ptzweihuinfo?$AA@ 1007c5e0     cgipro_normal.obj
 0002:000035f0       ??_C@_0N@MDLMDFPP@outagememery?$AA@ 1007c5f0     cgipro_normal.obj
 0002:00003600       ??_C@_0L@PCOLIFFI@outagetime?$AA@ 1007c600     cgipro_normal.obj
 0002:0000360c       ??_C@_0N@LIOLBKKM@enableoutage?$AA@ 1007c60c     cgipro_normal.obj
 0002:0000361c       ??_C@_0BO@LPGAGPEH@?1?1kdsapi?1?1video?1?1ptz?1?1watchon?$AA@ 1007c61c     cgipro_normal.obj
 0002:0000363c       ??_C@_0M@HCAEDMEO@watchoninfo?$AA@ 1007c63c     cgipro_normal.obj
 0002:00003648       ??_C@_08NBBJKJO@waittime?$AA@ 1007c648     cgipro_normal.obj
 0002:00003654       ??_C@_05LGMMJFEM@vscan?$AA@ 1007c654     cgipro_normal.obj
 0002:0000365c       ??_C@_09JFEKDOMI@framescan?$AA@ 1007c65c     cgipro_normal.obj
 0002:00003668       ??_C@_08LGIEPPBP@randscan?$AA@ 1007c668     cgipro_normal.obj
 0002:00003674       ??_C@_0N@NFFPNACD@fullviewscan?$AA@ 1007c674     cgipro_normal.obj
 0002:00003684       ??_C@_0CB@FCLDLCBK@?1?1kdsapi?1?1video?1?1ptz?1?1preset?1?1?$CFd@ 1007c684     cgipro_normal.obj
 0002:000036a8       ??_C@_0L@EBEGCLO@presetinfo?$AA@ 1007c6a8     cgipro_normal.obj
 0002:000036b4       ??_C@_0L@OCPIHPHG@presetlist?$AA@ 1007c6b4     cgipro_normal.obj
 0002:000036c0       ??_C@_04NIDJFNBE@info?$AA@ 1007c6c0     cgipro_normal.obj
 0002:000036c8       ??_C@_08ELFOPNJC@presetsn?$AA@ 1007c6c8     cgipro_normal.obj
 0002:000036d4       ??_C@_0L@CDHGNFBJ@preset_set?$AA@ 1007c6d4     cgipro_normal.obj
 0002:000036e0       ??_C@_0BM@JMFEBENK@?1?1kdsapi?1?1video?1?1ptz?1?1limit?$AA@ 1007c6e0     cgipro_normal.obj
 0002:000036fc       ??_C@_0N@GODCAAHJ@ptzlimitinfo?$AA@ 1007c6fc     cgipro_normal.obj
 0002:0000370c       ??_C@_08IDGHGJB@keylimit?$AA@ 1007c70c     cgipro_normal.obj
 0002:00003718       ??_C@_09INCADKHA@scanlimit?$AA@ 1007c718     cgipro_normal.obj
 0002:00003724       ??_C@_0BG@IJDALBGA@manuallimitswitch_set?$AA@ 1007c724     cgipro_normal.obj
 0002:0000373c       ??_C@_0BE@GOBBBNCI@scanlimitswitch_set?$AA@ 1007c73c     cgipro_normal.obj
 0002:00003750       ??_C@_0CF@FPJAOHIH@?1?1kdsapi?1?1video?1?1ptz?1?1pathcruise@ 1007c750     cgipro_normal.obj
 0002:00003778       ??_C@_0P@EBPGNNDA@pathcruiseinfo?$AA@ 1007c778     cgipro_normal.obj
 0002:00003788       ??_C@_0L@FINDMKOE@cruiselist?$AA@ 1007c788     cgipro_normal.obj
 0002:00003794       ??_C@_0L@NLEPNDFA@cruisepath?$AA@ 1007c794     cgipro_normal.obj
 0002:000037a0       ??_C@_0CB@MDPJGFB@?1?1kdsapi?1?1video?1?1ptz?1?1pathcruise@ 1007c7a0     cgipro_normal.obj
 0002:000037c4       ??_C@_0BP@PBEICGND@?1?1kdsapi?1?1video?1?1ptz?1?1timetask?$AA@ 1007c7c4     cgipro_normal.obj
 0002:000037e4       ??_C@_0N@HMOKLPNI@timetaskinfo?$AA@ 1007c7e4     cgipro_normal.obj
 0002:000037f4       ??_C@_08PIMBGOO@timeList?$AA@ 1007c7f4     cgipro_normal.obj
 0002:00003800       ??_C@_0CB@JNHBKBEI@?1?1kdsapi?1?1video?1?1ptz?1?1coordinate@ 1007c800     cgipro_normal.obj
 0002:00003824       ??_C@_0BC@OBPIEPAC@ptzcoordinateinfo?$AA@ 1007c824     cgipro_normal.obj
 0002:00003838       ??_C@_0O@IHOPHAEJ@panposion_set?$AA@ 1007c838     cgipro_normal.obj
 0002:00003848       ??_C@_0P@GEEABDGJ@tiltposion_set?$AA@ 1007c848     cgipro_normal.obj
 0002:00003858       ??_C@_0N@DMPBIGIL@ptposion_set?$AA@ 1007c858     cgipro_normal.obj
 0002:00003868       ??_C@_0CB@HHJFADAF@?1?1kdsapi?1?1video?1?1ptz?1?1zoomratio?5@ 1007c868     cgipro_normal.obj
 0002:0000388c       ??_C@_0BB@HPCLGIIB@ptzzoomratioinfo?$AA@ 1007c88c     cgipro_normal.obj
 0002:000038a0       ??_C@_09DOOIBBKE@zoomratio?$AA@ 1007c8a0     cgipro_normal.obj
 0002:000038ac       ??_C@_0CG@BKLDOGPD@?1?1kdsapi?1?1video?1?1ptz?1?1patterns?1?1@ 1007c8ac     cgipro_normal.obj
 0002:000038d4       ??_C@_0N@HILKOCK@patternsinfo?$AA@ 1007c8d4     cgipro_normal.obj
 0002:000038e4       ??_C@_09LHGKIODB@scanindex?$AA@ 1007c8e4     cgipro_normal.obj
 0002:000038f0       ??_C@_0N@OBGHLDOC@patternslist?$AA@ 1007c8f0     cgipro_normal.obj
 0002:00003900       ??_C@_07CHFOACKJ@pattern?$AA@ 1007c900     cgipro_normal.obj
 0002:00003908       ??_C@_0N@IFOIGAIO@syncscan_rec?$AA@ 1007c908     cgipro_normal.obj
 0002:00003918       ??_C@_08BFBHMLOI@scanpath?$AA@ 1007c918     cgipro_normal.obj
 0002:00003924       ??_C@_0CG@JGIJPLPH@?1?1kdsapi?1?1video?1?1ptz?1?1patterns?1?1@ 1007c924     cgipro_normal.obj
 0002:0000394c       ??_C@_0BB@MMNOKIL@syncscan_stoprec?$AA@ 1007c94c     cgipro_normal.obj
 0002:00003960       ??_C@_0BA@OBFDFBJI@syncscan_delete?$AA@ 1007c960     cgipro_normal.obj
 0002:00003970       ??_C@_0BB@GGPPAJFP@syncscan_preview?$AA@ 1007c970     cgipro_normal.obj
 0002:00003984       ??_C@_0BF@MBBEIMFI@syncscan_stoppreview?$AA@ 1007c984     cgipro_normal.obj
 0002:0000399c       ??_C@_0L@LMAIGCNG@expected?5?$DM?$AA@ 1007c99c     cgipro_normal.obj
 0002:000039a8       ??_C@_0BH@OMKFHCNA@unexpected?5end?5of?5data?$AA@ 1007c9a8     cgipro_normal.obj
 0002:000039c0       ??_C@_0BG@JPKHCHFI@expected?5element?5name?$AA@ 1007c9c0     cgipro_normal.obj
 0002:000039d8       ??_C@_0L@IODOAAFE@expected?5?$DO?$AA@ 1007c9d8     cgipro_normal.obj
 0002:000039e8       ?lookup_whitespace@?$lookup_tables@$0A@@internal@rapidxml@@2QBEB 1007c9e8     cgipro_normal.obj
 0002:00003ae8       ??_C@_0BI@JPJHILGI@expected?5attribute?5name?$AA@ 1007cae8     cgipro_normal.obj
 0002:00003b00       ??_C@_0L@KFBDFDJH@expected?5?$DN?$AA@ 1007cb00     cgipro_normal.obj
 0002:00003b0c       ??_C@_0BA@PGCHEADE@expected?5?8?5or?5?$CC?$AA@ 1007cb0c     cgipro_normal.obj
 0002:00003b1c       ??_C@_0L@PDEJPEBB@expected?5?$DL?$AA@ 1007cb1c     cgipro_normal.obj
 0002:00003b28       ?lookup_node_name@?$lookup_tables@$0A@@internal@rapidxml@@2QBEB 1007cb28     cgipro_normal.obj
 0002:00003c28       ?lookup_attribute_name@?$lookup_tables@$0A@@internal@rapidxml@@2QBEB 1007cc28     cgipro_normal.obj
 0002:00003d28       ?lookup_attribute_data_1@?$lookup_tables@$0A@@internal@rapidxml@@2QBEB 1007cd28     cgipro_normal.obj
 0002:00003e28       ?lookup_attribute_data_2@?$lookup_tables@$0A@@internal@rapidxml@@2QBEB 1007ce28     cgipro_normal.obj
 0002:00003f28       ?lookup_digits@?$lookup_tables@$0A@@internal@rapidxml@@2QBEB 1007cf28     cgipro_normal.obj
 0002:00004028       ??_C@_0CB@CEBHJJND@invalid?5numeric?5character?5entity@ 1007d028     cgipro_normal.obj
 0002:00004050       ?lookup_text@?$lookup_tables@$0A@@internal@rapidxml@@2QBEB 1007d050     cgipro_normal.obj
 0002:00004150       ?lookup_attribute_data_1_pure@?$lookup_tables@$0A@@internal@rapidxml@@2QBEB 1007d150     cgipro_normal.obj
 0002:00004250       ?lookup_attribute_data_2_pure@?$lookup_tables@$0A@@internal@rapidxml@@2QBEB 1007d250     cgipro_normal.obj
 0002:00004350       ?lookup_text_pure_no_ws@?$lookup_tables@$0A@@internal@rapidxml@@2QBEB 1007d350     cgipro_normal.obj
 0002:00004454       ??_7parse_error@rapidxml@@6B@ 1007d454     cgipro_normal.obj
 0002:0000445c       ??_C@_0BJ@EAOCBLFJ@?$LI?y?$LO?$NN?$LO?d?$LB?z?$LL?q?H?$KB?I?h?$LB?$LI?P?E?O?$KC?J?$KH?$LA?$NM?$AA@ 1007d45c     connectmgr.obj
 0002:00004478       ??_C@_0BF@IFLEBLF@m_threadDetect?5start?$AA@ 1007d478     connectmgr.obj
 0002:00004490       ??_C@_0BG@JGMJAEBC@m_threadDetect?5Resume?$AA@ 1007d490     connectmgr.obj
 0002:000044a8       ??_C@_0BK@OIBIODMB@?$LI?y?$LO?$NN?$LO?d?$LB?z?$LL?q?H?$KB?I?h?$LB?$LI?P?E?O?$KC?J?$KH?$LA?$NM?6?$AA@ 1007d4a8     connectmgr.obj
 0002:000044c4       ??_C@_09FDNMCNAB@dwip?5?$DN?50?6?$AA@ 1007d4c4     connectmgr.obj
 0002:000044d0       ??_C@_0BM@HELINFCH@_DeleteConnect?5delete?5dwip?6?$AA@ 1007d4d0     connectmgr.obj
 0002:000044ec       ??_C@_0CG@NJAOIMBJ@_DeleteConnect?5mapConnect?5size?5i@ 1007d4ec     connectmgr.obj
 0002:00004514       ??_C@_0CH@COHGMJEG@_DeleteConnect?5m_threadDetect?5su@ 1007d514     connectmgr.obj
 0002:0000453c       ??_C@_0BE@HJJICLIO@?A?$KM?$LN?S?J?$KH?$LA?$NM?$KD?$KM?$LE?m?N?s?B?k?$CFd?6?$AA@ 1007d53c     connectmgr.obj
 0002:00004550       ??_C@_0N@BIKFBMGK@?U?$PN?T?Z?A?$KM?$LN?S?4?4?4?6?$AA@ 1007d550     connectmgr.obj
 0002:00004560       ??_C@_0BA@JLBMPIDM@ERR_SENDBUFNULL?$AA@ 1007d560     httppro.obj
 0002:00004570       ??_C@_0M@EIMPHKDK@ERR_TIMEOUT?$AA@ 1007d570     httppro.obj
 0002:0000457c       ??_C@_0BA@ONBHHGGB@WSAGetLastError?$AA@ 1007d57c     httppro.obj
 0002:0000458c       ??_C@_0BA@DIGAFIOK@Content?9Length?3?$AA@ 1007d58c     httppro.obj
 0002:0000459c       ??_C@_02JDPG@rb?$AA@       1007d59c     httppro.obj
 0002:000045a0       ??_C@_0BB@MDJCMCMB@?$LE?r?$LP?$KK?I?$PN?$LM?$LG?N?D?$LM?$PO?J?$KH?$LA?$NM?$AA@ 1007d5a0     httppro.obj
 0002:000045b4       ??_C@_0BJ@FBBFBKLA@?O?$LF?M?$LD?I?$PN?$LM?$LG?$KD?$LK?R?Q?$LH?$KC?K?M?$CFd?5?1?5?$CFd?5?$AA@ 1007d5b4     httppro.obj
 0002:000045d0       ??_C@_0CK@JFEDGLBN@?$AN?6?9?9ZnGpDtePMx0KrHh_G0X99Yef9r8J@ 1007d5d0     httppro.obj
 0002:000045fc       ??_C@_0BE@IELAFGGF@ConnectServer?5fail?6?$AA@ 1007d5fc     httppro.obj
 0002:00004610       ??_C@_0N@CPPOLCIO@select?5fail?6?$AA@ 1007d610     httppro.obj
 0002:00004620       ??_C@_0FM@PMOHEPKE@CHttpSession?3?3RcvResponse?$CI?$CJ?5recv@ 1007d620     httppro.obj
 0002:0000467c       ??_C@_0BF@MMBMKHNA@CMemeryManager?5Init?6?$AA@ 1007d67c     ipcsdk.obj
 0002:00004694       ??_C@_0P@GCDCBOCG@CHttpPro?5Init?6?$AA@ 1007d694     ipcsdk.obj
 0002:000046a4       ??_C@_0BH@FHJEIFNC@CInterfaceNormal?5Init?6?$AA@ 1007d6a4     ipcsdk.obj
 0002:000046bc       ??_C@_0L@FBGDDIJF@ipcsdk?4dll?$AA@ 1007d6bc     ipcsdk.obj
 0002:000046c8       ??_C@_06BJFAPHAJ@ipcsdk?$AA@ 1007d6c8     ipcsdk.obj
 0002:000046d0       ??_C@_0P@NIBHJHOM@7?41?$CI2015?907?93?$CJ?$AA@ 1007d6d0     ipcsdk.obj
 0002:000046e0       ??_C@_08EDEOIPEH@15?337?316?$AA@ 1007d6e0     ipcsdk.obj
 0002:000046ec       ??_C@_0M@DLJMJDKH@Oct?513?52017?$AA@ 1007d6ec     ipcsdk.obj
 0002:000046f8       ??_C@_0BF@NCJIJJFJ@Compile?5Time?3?$CI?$CFs?5?$CFs?$CJ?$AA@ 1007d6f8     ipcsdk.obj
 0002:00004710       ??_C@_0M@NLPBPNKM@?6IPCV7SDK?3?6?$AA@ 1007d710     log.obj
 0002:0000471c       ??_C@_06CPKHKBDN@v7?41?40?$AA@ 1007d71c     log.obj
 0002:00004724       ??_C@_0CC@FHAFNHKL@IPCV7SDK?3?5?$CFs?5compile?5time?3?5?$CFs?5?$CFs@ 1007d724     log.obj
 0002:00004748       ??_C@_09IJILOLCA@sdkhelp?3?6?$AA@ 1007d748     log.obj
 0002:00004754       ??_C@_0CG@GMLJKHPB@?$CK?5sdkver?5?5?5?5?5?5?5?9?9?9?9?9?9?9?5?O?T?J?$LOsdk?$LA?f@ 1007d754     log.obj
 0002:0000477c       ??_C@_0DM@EJLDDEMJ@?$CK?5sdkhelp?5?5?5?5?5?5?9?9?9?9?9?9?9?5?O?T?J?$LOsdk?$LF?w@ 1007d77c     log.obj
 0002:000047b8       ??_C@_0DI@GGCLJKHI@?$CK?5sdklogon?5nLevel?0nType?5?5?5?9?9?9?9?9?9@ 1007d7b8     log.obj
 0002:000047f0       ??_C@_0GG@MLFPGPCN@?$CK?5?5?5?5?5?5?5?5?5?5?5?5?5?5?5?5?5?5?5?5?5?5?5?5?5nLevel@ 1007d7f0     log.obj
 0002:00004858       ??_C@_0EH@KJPBJAP@?$CK?5?5?5?5?5?5?5?5?5?5?5?5?5?5?5?5?5?5?5?5?5?5?5?5?5nType?5@ 1007d858     log.obj
 0002:000048a0       ??_C@_0BF@GFOGIAIO@open?5all?5print?5level?$AA@ 1007d8a0     log.obj
 0002:000048b8       ??_C@_0BL@INDNOGHO@?$CKnLevel?$DN?5?5?5?$CF3d?5?9?9?9?9?9?9?9?5?$CFs?6?$AA@ 1007d8b8     log.obj
 0002:000048d4       ??_C@_0BH@JHIGELCG@open?5error?5print?5level?$AA@ 1007d8d4     log.obj
 0002:000048ec       ??_C@_0BM@MLMLHGCG@?$CKnLevel?$DN?5?5?5?$CF3d?5?5?9?9?9?9?9?9?9?5?$CFs?6?$AA@ 1007d8ec     log.obj
 0002:00004908       ??_C@_0BH@GIEMJGDH@open?5debug?5print?5level?$AA@ 1007d908     log.obj
 0002:00004920       ??_C@_0BG@HOBOJMEC@open?5info?5print?5level?$AA@ 1007d920     log.obj
 0002:00004938       ??_C@_04NOJCDH@?$CF02x?$AA@ 1007d938     md5.obj
 0002:00004940       ??_C@_0DM@IJJENMNO@CMemeryManager?3?3lock?5memery?5send@ 1007d940     memerymanager.obj
 0002:0000497c       ??_C@_0DO@PPKGHANF@CMemeryManager?3?3unlock?5memery?5se@ 1007d97c     memerymanager.obj
 0002:000049bc       ??_C@_0BE@PAAFKMKK@CMemeryManager?5Init?$AA@ 1007d9bc     memerymanager.obj
 0002:000049d0       ??_C@_0BH@PPACKLIK@CMemeryManager?5is?5Init?$AA@ 1007d9d0     memerymanager.obj
 0002:000049e8       ??_C@_0BH@EFALFAKH@CMemeryManager?5Release?$AA@ 1007d9e8     memerymanager.obj
 0002:00004a00       ??_C@_0P@EKCCLGOM@Telnet?9?9Thread?$AA@ 1007da00     ospteleserver.obj
 0002:00004a10       ??_C@_0BF@DODPMGPH@asflib?5select?5error?6?$AA@ 1007da10     ospteleserver.obj
 0002:00004a28       ??_C@_02PCIJFNDE@?$AN?6?$AA@ 1007da28     ospteleserver.obj
 0002:00004a2c       ??_C@_0BN@ECFLHICH@telAccept?3?5accept?5Error?$FL?$CFd?$FN?6?$AA@ 1007da2c     ospteleserver.obj
 0002:00004a4c       ??_C@_0DP@PJOHGKAB@cannot?5set?5telnet?5client?5socket?5@ 1007da4c     ospteleserver.obj
 0002:00004a90       ??_C@_0EC@NOHJBPKB@?$CK?$DN?$DN?$DN?$DN?$DN?$DN?$DN?$DN?$DN?$DN?$DN?$DN?$DN?$DN?$DN?$DN?$DN?$DN?$DN?$DN?$DN?$DN?$DN?$DN?$DN?$DN?$DN?$DN?$DN?$DN?$DN@ 1007da90     ospteleserver.obj
 0002:00004ad4       ??_C@_0BK@PAGGNBAP@?$LL?$LG?S?$KN?J?$LJ?S?C?5Telnet?5?$LH?$PO?N?q?F?w?$KB?$KD?6?$AA@ 1007dad4     ospteleserver.obj
 0002:00004af0       ??_C@_0BH@JNDCAKBI@?5illegal?5negotiation?4?6?$AA@ 1007daf0     ospteleserver.obj
 0002:00004b08       ??_C@_0BL@OAFKNOIK@?5illegal?5sub?5negotiation?4?6?$AA@ 1007db08     ospteleserver.obj
 0002:00004b24       ??_C@_0BD@HMFHBAIH@?5illegal?5sub?5end?4?6?$AA@ 1007db24     ospteleserver.obj
 0002:00004b38       ??_C@_0BC@JOONGNLF@illegal?5command?4?6?$AA@ 1007db38     ospteleserver.obj
 0002:00004b4c       ??_C@_0O@JJMIDAEH@input?5error?4?6?$AA@ 1007db4c     ospteleserver.obj
 0002:00004b5c       ??_C@_03MDONDFG@bye?$AA@   1007db5c     ospteleserver.obj
 0002:00004b60       ??_C@_0O@PLNEBFAF@?6?5?5bye?4?4?4?4?4?4?6?$AA@ 1007db60     ospteleserver.obj
 0002:00004b70       ??_C@_04PCJFHION@help?$AA@ 1007db70     ospteleserver.obj
 0002:00004b78       ??_C@_01EEMJAFIK@?6?$AA@   1007db78     ospteleserver.obj
 0002:00004b7c       ??_C@_0N@ONFIKIJN@?6value?5?$DN?5?$CFd?6?$AA@ 1007db7c     ospteleserver.obj
 0002:00004b8c       ??_C@_0BO@CDAHJKC@Function?5?8?$CFs?8?5doesn?8t?5exist?$CB?6?$AA@ 1007db8c     ospteleserver.obj
 0002:00004bac       ??_C@_01KICIPPFI@?2?$AA@   1007dbac     ospteleserver.obj
 0002:00004bb0       ??_C@_01LFCBOECM@?4?$AA@   1007dbb0     ospteleserver.obj
 0002:00004bb4       ??_C@_04DICGGJCK@?$CFs?9?$DO?$AA@ 1007dbb4     ospteleserver.obj
 0002:00004bbc       ??_C@_01IPJKGB@?$CD?$AA@   1007dbbc     ospteleserver.obj
 0002:00004bc0       ??_C@_0BI@LMNGJKOE@telnet?4exe?5localhost?5?$CFd?$AA@ 1007dbc0     ospteleserver.obj
 0002:00004bd8       ??_C@_0CH@LCCJIEOG@Osp?3?5create?5process?5for?5shell?5fa@ 1007dbd8     ospteleserver.obj
 0002:00004c00       ??_C@_0BF@HDPKFOHF@timer?5proc?5state?3?$CFd?6?$AA@ 1007dc00     osptimer.obj
 0002:00004c18       ??_C@_0BE@MLMAPPMD@tiemr?5api?5state?3?$CFd?6?$AA@ 1007dc18     osptimer.obj
 0002:00004c2c       ??_C@_0P@MBNGCDKP@timer?5func?3?$CFd?6?$AA@ 1007dc2c     osptimer.obj
 0002:00004c3c       ??_C@_0BP@BAGOPPDD@call?5osp?5small?5timer?5end?5func?6?$AA@ 1007dc3c     osptimer.obj
 0002:00004c5c       ??_C@_0O@BJNJPJPL@Timer?9?9Thread?$AA@ 1007dc5c     osptimer.obj
 0002:00004c6c       ??_C@_0CG@HJELECDJ@Timer?5not?5in?5used?5list?4?5state?5er@ 1007dc6c     osptimer.obj
 0002:00004c94       ??_C@_0CJ@LEOICFGE@Timer?5not?5in?5running?5list?4?5state@ 1007dc94     osptimer.obj
 0002:00004cc0       ??_C@_0CG@JNHHLDPN@?6The?5Timers?5list?5is?5listed?5as?5be@ 1007dcc0     osptimer.obj
 0002:00004ce8       ??_C@_0CG@DDJOGEPD@?6Timer?5Handle?5?5?5?5?5?5?5?5?5Timer?5Inte@ 1007dce8     osptimer.obj
 0002:00004d10       ??_C@_0BF@LHGHKEDE@0x?$CF6x?5?5?5?5?5?5?5?5?5?5?5?5?$CFd?6?$AA@ 1007dd10     osptimer.obj
 0002:00004d28       ??_C@_0CE@GNIOHCMH@?6The?5total?5timers?5in?5running?5is?5@ 1007dd28     osptimer.obj
 0002:00004d4c       ??_C@_0N@OOAJBEJP@ostimerstate?$AA@ 1007dd4c     osputil.obj
 0002:00004d5c       ??_C@_0BO@HNPJIHGF@?5?9?5Display?5this?5help?5and?5exit?$AA@ 1007dd5c     osputil.obj
 0002:00004d7c       ??_C@_0CG@DGDIKFGD@?5?9?5Display?5this?5current?5timers?5s@ 1007dd7c     osputil.obj
 0002:00004da4       ??_C@_0M@NIPPHINN@TimerStatus?$AA@ 1007dda4     osputil.obj
 0002:00004db0       ??_C@_0CA@BKAICGHN@OsApi?5has?5been?5intiated?5before?$CB?$AA@ 1007ddb0     osputil.obj
 0002:00004dd0       ??_C@_0BJ@JHOEAIIP@OsApi?3?5initial?5success?$CB?6?$AA@ 1007ddd0     osputil.obj
 0002:00004dec       ??_C@_0BG@NPKFNHLI@OsApi?3?5quit?5success?$CB?6?$AA@ 1007ddec     osputil.obj
 0002:00004e04       ??_C@_08DODJHLAC@15?337?313?$AA@ 1007de04     osputil.obj
 0002:00004e10       ??_C@_0CB@NGIGBABH@OSP?4Small_KDM_CBB?41?42?41?420090409@ 1007de10     osputil.obj
 0002:00004e34       ??_C@_0CI@FPGLEHLI@OsApi?5version?3?5?$CFs?5?5compile?5time?3@ 1007de34     osputil.obj
 0002:00004e5c       ??_C@_0BP@DPLHGAJF@?6?5Osp?5Small?5NIP?5Version?3?5?$CFs?4?5?6?$AA@ 1007de5c     osputil.obj
 0002:00004e7c       ??_C@_0N@LLEHMGEG@Command?3?5?$CFs?6?$AA@ 1007de7c     osputil.obj
 0002:00004e8c       ??_C@_0N@EOMLKHEH@Usage?3?6?5?5?$CFs?6?$AA@ 1007de8c     osputil.obj
 0002:00004e9c       ??_C@_0CH@ENEDKKI@?6Osp?3?5Tcp?5server?5can?8t?5create?5so@ 1007de9c     osputil.obj
 0002:00004ec4       ??_C@_0BF@ENIHCJDM@ioctl?5FIONBIO?5error?6?$AA@ 1007dec4     osputil.obj
 0002:00004edc       ??_C@_06OKBIGEGG@LISTEN?$AA@ 1007dedc     osputil.obj
 0002:00004ee4       ??_C@_0CH@KGDBMGFE@?6The?5thread?5table?5is?5listed?5as?5b@ 1007dee4     osputil.obj
 0002:00004f0c       ??_C@_0CA@DJFKLNG@?6Thread?5ID?5?5?5?5?5?5?5?5?5Thread?5Name?6?$AA@ 1007df0c     osputil.obj
 0002:00004f2c       ??_C@_0BD@DJHOFGLH@?$CF6d?5?5?5?5?5?5?5?5?5?5?5?5?$CFs?6?$AA@ 1007df2c     osputil.obj
 0002:00004f40       ??_C@_05ELDLEDEO@COM?$CFd?$AA@ 1007df40     ospvos.obj
 0002:00004f48       ??_C@_0BJ@NDLOPGCH@NtQuerySystemInformation?$AA@ 1007df48     ospvos.obj
 0002:00004f64       ??_C@_05EMFAAAMC@ntdll?$AA@ 1007df64     ospvos.obj
 0002:00004f80       ??_C@_0CA@BAJCLOAA@CAucManager?3?3analyze?5Cap?5failed?$AA@ 1007df80     puctrl_normal.obj
 0002:00004fa0       ??_C@_0CG@HOOAGEBP@CAucManager?3?3analyze?5EventTime?5f@ 1007dfa0     puctrl_normal.obj
 0002:00004fc8       ??_C@_0CF@EIMHOPHI@CMemeryManager?3?3GetSendMem?$CI?$CJ?5?$DN?$DN?5@ 1007dfc8     puctrl_normal.obj
 0002:00004ff0       ??_C@_0CE@DNJEMEKM@CAucManager?3?3build?5EventTime?5fai@ 1007dff0     puctrl_normal.obj
 0002:00005014       ??_C@_0CH@PDKJBJMJ@CAucManager?3?3Analyze?5event?5time?5@ 1007e014     puctrl_normal.obj
 0002:0000503c       ??_C@_0CG@PNKFOOAK@CAucManager?3?3analyze?5TransData?5f@ 1007e03c     puctrl_normal.obj
 0002:00005064       ??_C@_0CM@PKHLLABF@CAucManager?3?3Build?5Prepare?5Call?5@ 1007e064     puctrl_normal.obj
 0002:00005090       ??_C@_0CL@MENFIPMA@CAucManager?3?3Build?5Start?5Video?5R@ 1007e090     puctrl_normal.obj
 0002:000050bc       ??_C@_0CJ@JAHBHALJ@CAucManager?3?3Send?5Play?5Video?5Rtc@ 1007e0bc     puctrl_normal.obj
 0002:000050e8       ??_C@_0CN@JCMNNPBJ@CAucManager?3?3Analyze?5Start?5Video@ 1007e0e8     puctrl_normal.obj
 0002:00005118       ??_C@_0CK@BINNEGLF@CAucManager?3?3Build?5Stop?5Video?5Rt@ 1007e118     puctrl_normal.obj
 0002:00005144       ??_C@_0CH@PMMCGABF@CAucManager?3?3Analyze?5Stop?5Video?5@ 1007e144     puctrl_normal.obj
 0002:0000516c       ??_C@_0CH@INANACLN@CAucManager?3?3Build?5Get?5rtsp?5url?5@ 1007e16c     puctrl_normal.obj
 0002:00005194       ??_C@_0CG@NDJLIFFM@CAucManager?3?3Send?5Get?5rtsp?5url?5f@ 1007e194     puctrl_normal.obj
 0002:000051bc       ??_C@_0CF@JFKMIEIM@CAucManager?3?3analyze?5rtsp?5url?5fa@ 1007e1bc     puctrl_normal.obj
 0002:000051e4       ??_C@_0CJ@KBAFIGK@CAucManager?3?3Analyze?5Get?5rtsp?5ur@ 1007e1e4     puctrl_normal.obj
 0002:00005210       ??_C@_0CP@CAHNPDPI@CAucManager?3?3Build?5Video?5Key?5Fra@ 1007e210     puctrl_normal.obj
 0002:00005240       ??_C@_0CG@OBFKALNK@CAucManager?3?3Analyze?5Key?5Frame?5f@ 1007e240     puctrl_normal.obj
 0002:00005268       ??_C@_0DA@PDOLCLIG@CAucManager?3?3Build?5Get?5Video?5Vol@ 1007e268     puctrl_normal.obj
 0002:00005298       ??_C@_0CP@DNMEBIGM@CAucManager?3?3Send?5Get?5Video?5Volu@ 1007e298     puctrl_normal.obj
 0002:000052c8       ??_C@_0DC@ECNHDBBG@CAucManager?3?3Analyze?5Get?5Video?5V@ 1007e2c8     puctrl_normal.obj
 0002:000052fc       ??_C@_0DA@CCENMEFC@CAucManager?3?3Build?5Set?5Video?5Vol@ 1007e2fc     puctrl_normal.obj
 0002:0000532c       ??_C@_0CN@OJPBPMJO@CAucManager?3?3Analyze?5Set?5Video?5V@ 1007e32c     puctrl_normal.obj
 0002:0000535c       ??_C@_0CO@LFNCAHNG@CAucManager?3?3Build?5Get?5Call?5Stat@ 1007e35c     puctrl_normal.obj
 0002:0000538c       ??_C@_0CN@GGCECEDE@CAucManager?3?3Send?5Get?5Call?5State@ 1007e38c     puctrl_normal.obj
 0002:000053bc       ??_C@_0DA@JOFNMMDN@CAucManager?3?3Analyze?5Get?5Call?5St@ 1007e3bc     puctrl_normal.obj
 0002:000053ec       ??_C@_0CK@BNCPMMIF@CAucManager?3?3Build?5Start?5Call?5Rt@ 1007e3ec     puctrl_normal.obj
 0002:00005418       ??_C@_0CM@LGLLDGLA@CAucManager?3?3Analyze?5Start?5Call?5@ 1007e418     puctrl_normal.obj
 0002:00005444       ??_C@_0CJ@MDOLHGKL@CAucManager?3?3Build?5Stop?5Call?5Rtc@ 1007e444     puctrl_normal.obj
 0002:00005470       ??_C@_0CL@GHPEGCIA@CAucManager?3?3analyze?5Stop?5Call?5R@ 1007e470     puctrl_normal.obj
 0002:0000549c       ??_C@_0CF@BCJDGMBM@CAucManager?3?3Build?5PuSnapShop?5fa@ 1007e49c     puctrl_normal.obj
 0002:000054c4       ??_C@_0CH@LOGOAEPA@CAucManager?3?3analyze?5PuSnapShop?5@ 1007e4c4     puctrl_normal.obj
 0002:000054ec       ??_C@_0CE@JGFDOLLI@CAucManager?3?3Build?5PuPicData?5fai@ 1007e4ec     puctrl_normal.obj
 0002:00005510       ??_C@_0CL@DIEHIGDA@CAucManager?3?3Build?5Get?5RecMonthI@ 1007e510     puctrl_normal.obj
 0002:0000553c       ??_C@_0CK@BJDGPMAH@CAucManager?3?3Send?5Get?5RecMonthIn@ 1007e53c     puctrl_normal.obj
 0002:00005568       ??_C@_0CN@GOFPNGOJ@CAucManager?3?3Analyze?5Get?5RecMont@ 1007e568     puctrl_normal.obj
 0002:00005598       ??_C@_0CI@BLGCBIJL@CAucManager?3?3Send?5Get?5RecordData@ 1007e598     puctrl_normal.obj
 0002:000055c0       ??_C@_0CL@GKBMPOAM@CAucManager?3?3Analyze?5Get?5RecordD@ 1007e5c0     puctrl_normal.obj
 0002:000055ec       ??_C@_0CJ@IJFOOOHA@CAucManager?3?3Build?5Get?5RecordNex@ 1007e5ec     puctrl_normal.obj
 0002:00005618       ??_C@_0CI@LNOHGEMI@CAucManager?3?3Send?5Get?5RecordNext@ 1007e618     puctrl_normal.obj
 0002:00005640       ??_C@_0CL@MMJJICFP@CAucManager?3?3Analyze?5Get?5RecordN@ 1007e640     puctrl_normal.obj
 0002:0000566c       ??_C@_0CM@OMPFEGJI@CAucManager?3?3Build?5Get?5PreLoadRe@ 1007e66c     puctrl_normal.obj
 0002:00005698       ??_C@_0CL@FEGJJCON@CAucManager?3?3Send?5Get?5PreLoadRec@ 1007e698     puctrl_normal.obj
 0002:000056c4       ??_C@_0CO@BDKMDELI@CAucManager?3?3Analyze?5Get?5PreLoad@ 1007e6c4     puctrl_normal.obj
 0002:000056f4       ??_C@_0DA@NGEMBDFO@CAucManager?3?3Build?5Get?5start?5rec@ 1007e6f4     puctrl_normal.obj
 0002:00005724       ??_C@_0CP@BIGDCALE@CAucManager?3?3Send?5Get?5start?5reco@ 1007e724     puctrl_normal.obj
 0002:00005754       ??_C@_0DC@GHHAAJMO@CAucManager?3?3Analyze?5Get?5start?5r@ 1007e754     puctrl_normal.obj
 0002:00005788       ??_C@_0CL@CDGMEAIF@CAucManager?3?3Build?5Get?5start?5str@ 1007e788     puctrl_normal.obj
 0002:000057b4       ??_C@_0CK@CBNDKLC@CAucManager?3?3Send?5Get?5start?5stre@ 1007e7b4     puctrl_normal.obj
 0002:000057e0       ??_C@_0CN@HFHEBAFM@CAucManager?3?3Analyze?5Get?5start?5s@ 1007e7e0     puctrl_normal.obj
 0002:00005810       ??_C@_0CN@CCCFAFJH@CAucManager?3?3Build?5Get?5StopRecor@ 1007e810     puctrl_normal.obj
 0002:00005840       ??_C@_0CM@CPCBMPA@CAucManager?3?3Send?5Get?5StopRecord@ 1007e840     puctrl_normal.obj
 0002:0000586c       ??_C@_0DE@LFAMKIIN@CAucManager?3?3Analyze?5Send?5Get?5St@ 1007e86c     puctrl_normal.obj
 0002:000058a0       ??_C@_0CO@JANCNCNO@CAucManager?3?3Build?5Get?5PauseReco@ 1007e8a0     puctrl_normal.obj
 0002:000058d0       ??_C@_0CN@EDCEPBDM@CAucManager?3?3Send?5Get?5PauseRecor@ 1007e8d0     puctrl_normal.obj
 0002:00005900       ??_C@_0DF@GNCHACAJ@CAucManager?3?3Analyze?5Send?5Get?5Pa@ 1007e900     puctrl_normal.obj
 0002:00005938       ??_C@_0CP@OOPAOLME@CAucManager?3?3Build?5Get?5ResumeRec@ 1007e938     puctrl_normal.obj
 0002:00005968       ??_C@_0CO@KACHJOLD@CAucManager?3?3Send?5Get?5ResumeReco@ 1007e968     puctrl_normal.obj
 0002:00005998       ??_C@_0DG@PGLKFJGD@CAucManager?3?3Analyze?5Send?5Get?5Re@ 1007e998     puctrl_normal.obj
 0002:000059d0       ??_C@_0CN@GANKFKEO@CAucManager?3?3Build?5Get?5MoveRecor@ 1007e9d0     puctrl_normal.obj
 0002:00005a00       ??_C@_0CM@EAANEDCJ@CAucManager?3?3Send?5Get?5MoveRecord@ 1007ea00     puctrl_normal.obj
 0002:00005a2c       ??_C@_0DE@PHPDPHFE@CAucManager?3?3Analyze?5Send?5Get?5Mo@ 1007ea2c     puctrl_normal.obj
 0002:00005a60       ??_C@_0CN@DELBHPFD@CAucManager?3?3Build?5Get?5RecordPla@ 1007ea60     puctrl_normal.obj
 0002:00005a90       ??_C@_0CM@BEGGGGDE@CAucManager?3?3Send?5Get?5RecordPlay@ 1007ea90     puctrl_normal.obj
 0002:00005abc       ??_C@_0DE@KDJINCEJ@CAucManager?3?3Analyze?5Send?5Get?5Re@ 1007eabc     puctrl_normal.obj
 0002:00005af0       ??_C@_0CL@DPIINIIE@CAucManager?3?3Build?5Get?5recplayst@ 1007eaf0     puctrl_normal.obj
 0002:00005b1c       ??_C@_0CK@BOPJKCLD@CAucManager?3?3Send?5Get?5recplaysta@ 1007eb1c     puctrl_normal.obj
 0002:00005b48       ??_C@_0CN@GJJAIIFN@CAucManager?3?3Analyze?5Get?5recplay@ 1007eb48     puctrl_normal.obj
 0002:00005b78       ??_C@_0CO@IBODFPAE@CAucManager?3?3Analyze?5Set?5downlao@ 1007eb78     puctrl_normal.obj
 0002:00005ba8       ??_C@_0CP@NIJOHOPG@CAucManager?3?3Build?5Get?5Muilt?5Vid@ 1007eba8     puctrl_normal.obj
 0002:00005bd8       ??_C@_0CO@JGEJALIB@CAucManager?3?3Send?5Get?5Muilt?5Vide@ 1007ebd8     puctrl_normal.obj
 0002:00005c08       ??_C@_0DB@OPGNMKMN@CAucManager?3?3Analyze?5Get?5Muilt?5V@ 1007ec08     puctrl_normal.obj
 0002:00005c3c       ??_C@_0CO@BPCJCBB@CAucManager?3?3Build?5SetMuilt?5Vide@ 1007ec3c     puctrl_normal.obj
 0002:00005c6c       ??_C@_0CO@ILMBCOCF@CAucManager?3?3Send?5Set?5Muilt?5Vide@ 1007ec6c     puctrl_normal.obj
 0002:00005c9c       ??_C@_0DB@PCOFOPGJ@CAucManager?3?3Analyze?5Set?5Muilt?5V@ 1007ec9c     puctrl_normal.obj
 0002:00005cd0       ??_C@_0CI@PAJHHPOK@CAucManager?3?3Build?5Get?5Audio?5Dec@ 1007ecd0     puctrl_normal.obj
 0002:00005cf8       ??_C@_0CH@CHMEDLID@CAucManager?3?3Send?5Get?5Audio?5Dec?5@ 1007ecf8     puctrl_normal.obj
 0002:00005d20       ??_C@_0CG@BBHPJAIK@CAucManager?3?3Analyze?5Audio?5Dec?5f@ 1007ed20     puctrl_normal.obj
 0002:00005d48       ??_C@_0CI@KJIKGJLN@CAucManager?3?3Build?5Set?5Audio?5Dec@ 1007ed48     puctrl_normal.obj
 0002:00005d70       ??_C@_0CH@HONJCNNE@CAucManager?3?3Send?5Set?5Audio?5Dec?5@ 1007ed70     puctrl_normal.obj
 0002:00005d98       ??_C@_0CK@LBLKDDJA@CAucManager?3?3Analyze?5Set?5Audio?5D@ 1007ed98     puctrl_normal.obj
 0002:00005dc4       ??_C@_0CI@DBBJKACK@CAucManager?3?3Build?5Get?5Audio?5Eec@ 1007edc4     puctrl_normal.obj
 0002:00005dec       ??_C@_0CH@OGEKOEED@CAucManager?3?3Send?5Get?5Audio?5Eec?5@ 1007edec     puctrl_normal.obj
 0002:00005e14       ??_C@_0CG@NAPBEPEK@CAucManager?3?3Analyze?5Audio?5Eec?5f@ 1007ee14     puctrl_normal.obj
 0002:00005e3c       ??_C@_0CI@GIAELGHN@CAucManager?3?3Build?5Set?5Audio?5Eec@ 1007ee3c     puctrl_normal.obj
 0002:00005e64       ??_C@_0CH@LPFHPCBE@CAucManager?3?3Send?5Set?5Audio?5Eec?5@ 1007ee64     puctrl_normal.obj
 0002:00005e8c       ??_C@_0CK@HADEOMFA@CAucManager?3?3Analyze?5Set?5Audio?5E@ 1007ee8c     puctrl_normal.obj
 0002:00005eb8       ??_C@_0CI@JFMKMCJA@CAucManager?3?3Build?5Get?5Video?5Enc@ 1007eeb8     puctrl_normal.obj
 0002:00005ee0       ??_C@_0CH@ECJJIGPJ@CAucManager?3?3Send?5Get?5Video?5Enc?5@ 1007eee0     puctrl_normal.obj
 0002:00005f08       ??_C@_0CG@HECCCNPA@CAucManager?3?3Analyze?5Video?5Enc?5f@ 1007ef08     puctrl_normal.obj
 0002:00005f30       ??_C@_0CI@MMNHNEMH@CAucManager?3?3Build?5Set?5Video?5Enc@ 1007ef30     puctrl_normal.obj
 0002:00005f58       ??_C@_0CG@IBOINHKJ@CAucManager?3?3Send?5SetVideo?5Enc?5f@ 1007ef58     puctrl_normal.obj
 0002:00005f80       ??_C@_0CK@NEOHIOOK@CAucManager?3?3Analyze?5Set?5Video?5E@ 1007ef80     puctrl_normal.obj
 0002:00005fac       ??_C@_0CL@JOLIOJLG@CAucManager?3?3Build?5Get?5Video?5Shi@ 1007efac     puctrl_normal.obj
 0002:00005fd8       ??_C@_0CK@LPMJJDIB@CAucManager?3?3Send?5Get?5Video?5Shie@ 1007efd8     puctrl_normal.obj
 0002:00006004       ??_C@_0CJ@KBFIKHBO@CAucManager?3?3Analyze?5Video?5Shiel@ 1007f004     puctrl_normal.obj
 0002:00006030       ??_C@_0CL@IINFAINE@CAucManager?3?3Build?5Set?5Video?5Shi@ 1007f030     puctrl_normal.obj
 0002:0000605c       ??_C@_0CJ@FHNHJAEN@CAucManager?3?3Send?5SetVideo?5Shiel@ 1007f05c     puctrl_normal.obj
 0002:00006088       ??_C@_0CN@NOMNFIAN@CAucManager?3?3Analyze?5Set?5Video?5S@ 1007f088     puctrl_normal.obj
 0002:000060b8       ??_C@_0CI@KFEHHDAL@CAucManager?3?3Build?5Get?5Video?5ROI@ 1007f0b8     puctrl_normal.obj
 0002:000060e0       ??_C@_0CH@HCBEDHGC@CAucManager?3?3Send?5Get?5Video?5ROI?5@ 1007f0e0     puctrl_normal.obj
 0002:00006108       ??_C@_0CG@EEKPJMGL@CAucManager?3?3Analyze?5Video?5ROI?5f@ 1007f108     puctrl_normal.obj
 0002:00006130       ??_C@_0CI@PMFKGFFM@CAucManager?3?3Build?5Set?5Video?5ROI@ 1007f130     puctrl_normal.obj
 0002:00006158       ??_C@_0CG@LBGFGGDC@CAucManager?3?3Send?5SetVideo?5ROI?5f@ 1007f158     puctrl_normal.obj
 0002:00006180       ??_C@_0CK@OEGKDPHB@CAucManager?3?3Analyze?5Set?5Video?5R@ 1007f180     puctrl_normal.obj
 0002:000061ac       ??_C@_0CL@FDEIAEBH@CAucManager?3?3Build?5Get?5Video?5Enc@ 1007f1ac     puctrl_normal.obj
 0002:000061d8       ??_C@_0CK@HCDJHOCA@CAucManager?3?3Send?5Get?5Video?5EncC@ 1007f1d8     puctrl_normal.obj
 0002:00006204       ??_C@_0CJ@GMKIEKLP@CAucManager?3?3Analyze?5Video?5EncCu@ 1007f204     puctrl_normal.obj
 0002:00006230       ??_C@_0CL@EFCFOFHF@CAucManager?3?3Build?5Set?5Video?5Enc@ 1007f230     puctrl_normal.obj
 0002:0000625c       ??_C@_0CJ@JKCHHNOM@CAucManager?3?3Send?5SetVideo?5EncCu@ 1007f25c     puctrl_normal.obj
 0002:00006288       ??_C@_0CN@BDDNLFKM@CAucManager?3?3Analyze?5Set?5Video?5E@ 1007f288     puctrl_normal.obj
 0002:000062b8       ??_C@_0CG@NKMLCKJ@CAucManager?3?3Build?5Get?5OSD?5Cap?5f@ 1007f2b8     puctrl_normal.obj
 0002:000062e0       ??_C@_0CF@EFNCFNNB@CAucManager?3?3Send?5Get?5OSD?5Cap?5fa@ 1007f2e0     puctrl_normal.obj
 0002:00006308       ??_C@_0CE@BJIIPIOG@CAucManager?3?3Analyze?5OSD?5Cap?5fai@ 1007f308     puctrl_normal.obj
 0002:0000632c       ??_C@_0CC@PMEJKCAA@CAucManager?3?3Build?5Get?5OSD?5faile@ 1007f32c     puctrl_normal.obj
 0002:00006350       ??_C@_0CB@DLLKCGPD@CAucManager?3?3Send?5Get?5OSD?5failed@ 1007f350     puctrl_normal.obj
 0002:00006374       ??_C@_0CA@CDNHJJAI@CAucManager?3?3Analyze?5OSD?5failed?$AA@ 1007f374     puctrl_normal.obj
 0002:00006394       ??_C@_0CC@DCFHFICM@CAucManager?3?3Build?5Set?5OSD?5faile@ 1007f394     puctrl_normal.obj
 0002:000063b8       ??_C@_0CB@PFKENMNP@CAucManager?3?3Send?5Set?5OSD?5failed@ 1007f3b8     puctrl_normal.obj
 0002:000063dc       ??_C@_0CE@FJLDHNHM@CAucManager?3?3Analyze?5Set?5OSD?5fai@ 1007f3dc     puctrl_normal.obj
 0002:00006400       ??_C@_0CH@NAGEBBFE@CAucManager?3?3Build?5Get?5OSD?5List?5@ 1007f400     puctrl_normal.obj
 0002:00006428       ??_C@_0CG@IOPCJGLF@CAucManager?3?3Send?5Get?5OSD?5List?5f@ 1007f428     puctrl_normal.obj
 0002:00006450       ??_C@_0CF@DGBDGJBP@CAucManager?3?3Analyze?5OSD?5List?5fa@ 1007f450     puctrl_normal.obj
 0002:00006478       ??_C@_0CH@HOEPFBCI@CAucManager?3?3Build?5Set?5OSD?5List?5@ 1007f478     puctrl_normal.obj
 0002:000064a0       ??_C@_0CG@CANJNGMJ@CAucManager?3?3Send?5Set?5OSD?5List?5f@ 1007f4a0     puctrl_normal.obj
 0002:000064c8       ??_C@_0CJ@PJFCALPP@CAucManager?3?3Analyze?5Set?5OSD?5Lis@ 1007f4c8     puctrl_normal.obj
 0002:000064f4       ??_C@_0CO@MOHFELEL@CAucManager?3?3Build?5Get?5OSD?5State@ 1007f4f4     puctrl_normal.obj
 0002:00006524       ??_C@_0CO@PDBEPLLJ@CAucManager?3?3Send?5Get?5OSD?5State?5@ 1007f524     puctrl_normal.obj
 0002:00006554       ??_C@_0CM@NHOOMHFP@CAucManager?3?3Analyze?5OSD?5State?5Q@ 1007f554     puctrl_normal.obj
 0002:00006580       ??_C@_0CK@OHNFANCN@CAucManager?3?3Build?5Set?5OSD?5Prepa@ 1007f580     puctrl_normal.obj
 0002:000065ac       ??_C@_0CJ@CCFLIPBJ@CAucManager?3?3Send?5Set?5OSD?5Prepar@ 1007f5ac     puctrl_normal.obj
 0002:000065d8       ??_C@_0CM@EMEBPHBI@CAucManager?3?3Analyze?5Set?5OSD?5Pre@ 1007f5d8     puctrl_normal.obj
 0002:00006604       ??_C@_0CO@GGEDCPPK@CAucManager?3?3Build?5Set?5OSD?5Uploa@ 1007f604     puctrl_normal.obj
 0002:00006634       ??_C@_0CN@LFLFAMBI@CAucManager?3?3Send?5Set?5OSD?5Upload@ 1007f634     puctrl_normal.obj
 0002:00006664       ??_C@_0DA@ENMMOEBB@CAucManager?3?3Analyze?5Set?5OSD?5Upl@ 1007f664     puctrl_normal.obj
 0002:00006694       ??_C@_0CN@MINHIJBK@CAucManager?3?3Build?5image?5recover@ 1007f694     puctrl_normal.obj
 0002:000066c4       ??_C@_0CM@OIAAJAHN@CAucManager?3?3Send?5image?5recovery@ 1007f6c4     puctrl_normal.obj
 0002:000066f0       ??_C@_0CP@PDEGPAKA@CAucManager?3?3Analyze?5image?5recov@ 1007f6f0     puctrl_normal.obj
 0002:00006720       ??_C@_0CG@PLGHJPLC@CAucManager?3?3Build?5image?5Color?5f@ 1007f720     puctrl_normal.obj
 0002:00006748       ??_C@_0CF@LDBJHAMK@CAucManager?3?3Send?5image?5Color?5fa@ 1007f748     puctrl_normal.obj
 0002:00006770       ??_C@_0CI@OOJOJKCD@CAucManager?3?3Analyze?5image?5Color@ 1007f770     puctrl_normal.obj
 0002:00006798       ??_C@_0CK@MDIFJOPN@CAucManager?3?3Build?5Image?5Set?5Col@ 1007f798     puctrl_normal.obj
 0002:000067c4       ??_C@_0CJ@EOOBAFB@CAucManager?3?3Send?5image?5Set?5Colo@ 1007f7c4     puctrl_normal.obj
 0002:000067f0       ??_C@_0CG@GEENECLG@CAucManager?3?3Analyze?5Set?5Color?5f@ 1007f7f0     puctrl_normal.obj
 0002:00006818       ??_C@_0CG@FCEHNNAF@CAucManager?3?3Build?5image?5Focus?5f@ 1007f818     puctrl_normal.obj
 0002:00006840       ??_C@_0CF@BKDJDCHN@CAucManager?3?3Send?5image?5Focus?5fa@ 1007f840     puctrl_normal.obj
 0002:00006868       ??_C@_0CI@EHLONIJE@CAucManager?3?3Analyze?5image?5Focus@ 1007f868     puctrl_normal.obj
 0002:00006890       ??_C@_0CK@GFGCDGN@CAucManager?3?3Build?5Image?5Set?5Fou@ 1007f890     puctrl_normal.obj
 0002:000068bc       ??_C@_0CJ@MBDNKNMB@CAucManager?3?3Send?5image?5Set?5Fouc@ 1007f8bc     puctrl_normal.obj
 0002:000068e8       ??_C@_0CG@KBJOPPCG@CAucManager?3?3Analyze?5Set?5Foucs?5f@ 1007f8e8     puctrl_normal.obj
 0002:00006910       ??_C@_0CN@DHEDCAKH@CAucManager?3?3Build?5image?5White?5B@ 1007f910     puctrl_normal.obj
 0002:00006940       ??_C@_0CM@BHJEDJMA@CAucManager?3?3Send?5image?5White?5Bl@ 1007f940     puctrl_normal.obj
 0002:0000696c       ??_C@_0CP@MNCFJBN@CAucManager?3?3Analyze?5image?5White@ 1007f96c     puctrl_normal.obj
 0002:0000699c       ??_C@_0DB@CJNHLCGD@CAucManager?3?3Build?5Image?5Set?5Whi@ 1007f99c     puctrl_normal.obj
 0002:000069d0       ??_C@_0DA@IIBOOODC@CAucManager?3?3Send?5image?5Set?5Whit@ 1007f9d0     puctrl_normal.obj
 0002:00006a00       ??_C@_0CN@DPOMNBC@CAucManager?3?3Analyze?5Set?5White?5B@ 1007fa00     puctrl_normal.obj
 0002:00006a30       ??_C@_0CN@GOIMLPAO@CAucManager?3?3Build?5image?5Ircut?5F@ 1007fa30     puctrl_normal.obj
 0002:00006a60       ??_C@_0CM@EOFLKGGJ@CAucManager?3?3Send?5image?5Ircut?5Fi@ 1007fa60     puctrl_normal.obj
 0002:00006a8c       ??_C@_0CP@FFBNMGLE@CAucManager?3?3Analyze?5image?5Ircut@ 1007fa8c     puctrl_normal.obj
 0002:00006abc       ??_C@_0DB@HABICNMK@CAucManager?3?3Build?5Image?5Set?5Irc@ 1007fabc     puctrl_normal.obj
 0002:00006af0       ??_C@_0DA@NBNBHBJL@CAucManager?3?3Send?5image?5Set?5Ircu@ 1007faf0     puctrl_normal.obj
 0002:00006b20       ??_C@_0CN@FKDBFCLL@CAucManager?3?3Analyze?5Set?5Ircut?5F@ 1007fb20     puctrl_normal.obj
 0002:00006b50       ??_C@_0CF@OGDNFMOP@CAucManager?3?3Build?5image?5Iris?5fa@ 1007fb50     puctrl_normal.obj
 0002:00006b78       ??_C@_0CE@PFDOFELD@CAucManager?3?3Send?5image?5Irie?5fai@ 1007fb78     puctrl_normal.obj
 0002:00006b9c       ??_C@_0CH@MFBFIELC@CAucManager?3?3Analyze?5image?5Iris?5@ 1007fb9c     puctrl_normal.obj
 0002:00006bc4       ??_C@_0CJ@NMPONHEN@CAucManager?3?3Build?5Image?5Set?5Iri@ 1007fbc4     puctrl_normal.obj
 0002:00006bf0       ??_C@_0CI@GANIMPDG@CAucManager?3?3Send?5image?5Set?5Iris@ 1007fbf0     puctrl_normal.obj
 0002:00006c18       ??_C@_0CF@HDAEPNKJ@CAucManager?3?3Analyze?5Set?5Iris?5fa@ 1007fc18     puctrl_normal.obj
 0002:00006c40       ??_C@_0CI@FINGLPNP@CAucManager?3?3Build?5image?5Shutter@ 1007fc40     puctrl_normal.obj
 0002:00006c68       ??_C@_0CH@IPIFPLLG@CAucManager?3?3Send?5image?5Shutter?5@ 1007fc68     puctrl_normal.obj
 0002:00006c90       ??_C@_0CK@EAOGOFPC@CAucManager?3?3Analyze?5image?5Shutt@ 1007fc90     puctrl_normal.obj
 0002:00006cbc       ??_C@_0CM@FIDAOEGB@CAucManager?3?3Build?5Image?5Set?5Shu@ 1007fcbc     puctrl_normal.obj
 0002:00006ce8       ??_C@_0CL@FAICHOMI@CAucManager?3?3Send?5image?5Set?5Shut@ 1007fce8     puctrl_normal.obj
 0002:00006d14       ??_C@_0CI@MENIELJI@CAucManager?3?3Analyze?5Set?5Shutter@ 1007fd14     puctrl_normal.obj
 0002:00006d3c       ??_C@_0CF@GFJHIIBN@CAucManager?3?3Build?5image?5Gain?5fa@ 1007fd3c     puctrl_normal.obj
 0002:00006d64       ??_C@_0CE@KJEOLLLK@CAucManager?3?3Send?5image?5Gain?5fai@ 1007fd64     puctrl_normal.obj
 0002:00006d88       ??_C@_0CH@EGLPFAEA@CAucManager?3?3Analyze?5image?5Gain?5@ 1007fd88     puctrl_normal.obj
 0002:00006db0       ??_C@_0CJ@FPFEADLP@CAucManager?3?3Build?5Image?5Set?5Gai@ 1007fdb0     puctrl_normal.obj
 0002:00006ddc       ??_C@_0CI@ODHCBLME@CAucManager?3?3Send?5image?5Set?5Gain@ 1007fddc     puctrl_normal.obj
 0002:00006e04       ??_C@_0CF@PAKOCJFL@CAucManager?3?3Analyze?5Set?5Gain?5fa@ 1007fe04     puctrl_normal.obj
 0002:00006e2c       ??_C@_0CJ@LKKLHPAJ@CAucManager?3?3Build?5image?5Infrare@ 1007fe2c     puctrl_normal.obj
 0002:00006e58       ??_C@_0CJ@JPBLFPOP@CAucManager?3?3Send?5image?5Infreare@ 1007fe58     puctrl_normal.obj
 0002:00006e84       ??_C@_0CL@PPGMBDCG@CAucManager?3?3Analyze?5image?5Infra@ 1007fe84     puctrl_normal.obj
 0002:00006eb0       ??_C@_0CN@JGHCAHNJ@CAucManager?3?3Build?5Image?5Set?5Inf@ 1007feb0     puctrl_normal.obj
 0002:00006ee0       ??_C@_0CM@DJHAKOAP@CAucManager?3?3Send?5image?5Set?5Infr@ 1007fee0     puctrl_normal.obj
 0002:00006f0c       ??_C@_0CJ@FCIPKFMO@CAucManager?3?3Analyze?5Set?5Infrare@ 1007ff0c     puctrl_normal.obj
 0002:00006f38       ??_C@_0CG@BPAKDJFN@CAucManager?3?3Build?5image?5Laser?5f@ 1007ff38     puctrl_normal.obj
 0002:00006f60       ??_C@_0CF@FHHENGCF@CAucManager?3?3Send?5image?5Laser?5fa@ 1007ff60     puctrl_normal.obj
 0002:00006f88       ??_C@_0CI@KPDDMMM@CAucManager?3?3Analyze?5image?5Laser@ 1007ff88     puctrl_normal.obj
 0002:00006fb0       ??_C@_0CK@CHOIDIBC@CAucManager?3?3Build?5Image?5Set?5Las@ 1007ffb0     puctrl_normal.obj
 0002:00006fdc       ??_C@_0CJ@OAIDLGLO@CAucManager?3?3Send?5image?5Set?5Lase@ 1007ffdc     puctrl_normal.obj
 0002:00007008       ??_C@_0CG@IACAOEFJ@CAucManager?3?3Analyze?5Set?5Laser?5f@ 10080008     puctrl_normal.obj
 0002:00007030       ??_C@_0CI@DMBIGODM@CAucManager?3?3Build?5image?5Corrido@ 10080030     puctrl_normal.obj
 0002:00007058       ??_C@_0CH@OLELCKFF@CAucManager?3?3Send?5image?5Corrido?5@ 10080058     puctrl_normal.obj
 0002:00007080       ??_C@_0CK@CECIDEBB@CAucManager?3?3Analyze?5image?5Corri@ 10080080     puctrl_normal.obj
 0002:000070ac       ??_C@_0CM@DMPODFIC@CAucManager?3?3Build?5Image?5Set?5Cor@ 100800ac     puctrl_normal.obj
 0002:000070d8       ??_C@_0CL@DEEMKPCL@CAucManager?3?3Send?5image?5Set?5Corr@ 100800d8     puctrl_normal.obj
 0002:00007104       ??_C@_0CI@KABGJKHL@CAucManager?3?3Analyze?5Set?5Corrido@ 10080104     puctrl_normal.obj
 0002:0000712c       ??_C@_0CF@LCEMIFOP@CAucManager?3?3Build?5image?5mode?5fa@ 1008012c     puctrl_normal.obj
 0002:00007154       ??_C@_0CE@HOJFLGEI@CAucManager?3?3Send?5image?5mode?5fai@ 10080154     puctrl_normal.obj
 0002:00007178       ??_C@_0CH@JBGEFNLC@CAucManager?3?3Analyze?5image?5mode?5@ 10080178     puctrl_normal.obj
 0002:000071a0       ??_C@_0CJ@IIIPAOEN@CAucManager?3?3Build?5Image?5Set?5mod@ 100801a0     puctrl_normal.obj
 0002:000071cc       ??_C@_0CI@DEKJBGDG@CAucManager?3?3Send?5image?5Set?5mode@ 100801cc     puctrl_normal.obj
 0002:000071f4       ??_C@_0CF@CHHFCEKJ@CAucManager?3?3Analyze?5Set?5mode?5fa@ 100801f4     puctrl_normal.obj
 0002:0000721c       ??_C@_0CK@OEADOLDJ@CAucManager?3?3Build?5Noise?5Reduce?5@ 1008021c     puctrl_normal.obj
 0002:00007248       ??_C@_0CJ@CBINGJAN@CAucManager?3?3Send?5Noise?5Reduce?52@ 10080248     puctrl_normal.obj
 0002:00007274       ??_C@_0CM@EPJHBBAM@CAucManager?3?3Analyze?5Noise?5Reduc@ 10080274     puctrl_normal.obj
 0002:000072a0       ??_C@_0CO@GJDJFNAI@CAucManager?3?3Build?5Set?5Noise?5Red@ 100802a0     puctrl_normal.obj
 0002:000072d0       ??_C@_0CN@LKMPHOOK@CAucManager?3?3Send?5Set?5Noise?5Redu@ 100802d0     puctrl_normal.obj
 0002:00007300       ??_C@_0DA@ECLGJGOD@CAucManager?3?3Analyze?5Set?5Noise?5R@ 10080300     puctrl_normal.obj
 0002:00007330       ??_C@_0CK@LMBIAAH@CAucManager?3?3Build?5Noise?5Reduce?5@ 10080330     puctrl_normal.obj
 0002:0000735c       ??_C@_0CJ@MOEPACDD@CAucManager?3?3Send?5Noise?5Reduce?53@ 1008035c     puctrl_normal.obj
 0002:00007388       ??_C@_0CM@KAFFHKDC@CAucManager?3?3Analyze?5Noise?5Reduc@ 10080388     puctrl_normal.obj
 0002:000073b4       ??_C@_0CO@IGPLDGDG@CAucManager?3?3Build?5Set?5Noise?5Red@ 100803b4     puctrl_normal.obj
 0002:000073e4       ??_C@_0CN@FFANBFNE@CAucManager?3?3Send?5Set?5Noise?5Redu@ 100803e4     puctrl_normal.obj
 0002:00007414       ??_C@_0DA@KNHEPNNN@CAucManager?3?3Analyze?5Set?5Noise?5R@ 10080414     puctrl_normal.obj
 0002:00007444       ??_C@_0CF@EPPFJHPP@CAucManager?3?3Build?5Local?5Echo?5fa@ 10080444     puctrl_normal.obj
 0002:0000746c       ??_C@_0CE@IDCMKEFI@CAucManager?3?3Send?5Local?5Echo?5fai@ 1008046c     puctrl_normal.obj
 0002:00007490       ??_C@_0CH@GMNNEPKC@CAucManager?3?3Analyze?5Local?5Echo?5@ 10080490     puctrl_normal.obj
 0002:000074b8       ??_C@_0CJ@NENIBPFE@CAucManager?3?3Build?5Set?5Local?5Ech@ 100804b8     puctrl_normal.obj
 0002:000074e4       ??_C@_0CI@OAGBJFOM@CAucManager?3?3Send?5Set?5Local?5Echo@ 100804e4     puctrl_normal.obj
 0002:0000750c       ??_C@_0CL@JBBPHDHL@CAucManager?3?3Analyze?5Set?5Local?5E@ 1008050c     puctrl_normal.obj
 0002:00007538       ??_C@_0CN@EKAGDEDD@CAucManager?3?3Build?5PowerLineFreq@ 10080538     puctrl_normal.obj
 0002:00007568       ??_C@_0CM@GKNBCNFE@CAucManager?3?3Send?5PowerLineFrequ@ 10080568     puctrl_normal.obj
 0002:00007594       ??_C@_0CP@HBJHENIJ@CAucManager?3?3Analyze?5PowerLineFr@ 10080594     puctrl_normal.obj
 0002:000075c4       ??_C@_0DB@BLDMGLJF@CAucManager?3?3Build?5Set?5PowerLine@ 100805c4     puctrl_normal.obj
 0002:000075f8       ??_C@_0DA@FLCNEPMA@CAucManager?3?3Send?5Set?5PowerLineF@ 100805f8     puctrl_normal.obj
 0002:00007628       ??_C@_0DD@OLICMEML@CAucManager?3?3Analyze?5Set?5PowerLi@ 10080628     puctrl_normal.obj
 0002:0000765c       ??_C@_0BO@OHOKAOMM@CAucManager?3?3Build?5WDR?5failed?$AA@ 1008065c     puctrl_normal.obj
 0002:0000767c       ??_C@_0BN@BJOPLKGG@CAucManager?3?3Send?5WDR?5failed?$AA@ 1008067c     puctrl_normal.obj
 0002:0000769c       ??_C@_0CA@CNEKBNOM@CAucManager?3?3Analyze?5WDR?5failed?$AA@ 1008069c     puctrl_normal.obj
 0002:000076bc       ??_C@_0CC@DMMKNMMI@CAucManager?3?3Build?5Set?5WDR?5faile@ 100806bc     puctrl_normal.obj
 0002:000076e0       ??_C@_0CB@PLDJFIDL@CAucManager?3?3Send?5Set?5WDR?5failed@ 100806e0     puctrl_normal.obj
 0002:00007704       ??_C@_0CE@BMBOPHDM@CAucManager?3?3Analyze?5Set?5wdr?5fai@ 10080704     puctrl_normal.obj
 0002:00007728       ??_C@_0BO@DJLICGKD@CAucManager?3?3Build?5hlc?5failed?$AA@ 10080728     puctrl_normal.obj
 0002:00007748       ??_C@_0BN@MHLNJCAJ@CAucManager?3?3Send?5hlc?5failed?$AA@ 10080748     puctrl_normal.obj
 0002:00007768       ??_C@_0CA@LICIDLCH@CAucManager?3?3Analyze?5HLC?5failed?$AA@ 10080768     puctrl_normal.obj
 0002:00007788       ??_C@_0CC@KJKIPKAD@CAucManager?3?3Build?5Set?5HLC?5faile@ 10080788     puctrl_normal.obj
 0002:000077ac       ??_C@_0CB@GOFLHOPA@CAucManager?3?3Send?5Set?5HLC?5failed@ 100807ac     puctrl_normal.obj
 0002:000077d0       ??_C@_0CE@MCEMNPFD@CAucManager?3?3Analyze?5Set?5HLC?5fai@ 100807d0     puctrl_normal.obj
 0002:000077f4       ??_C@_0CF@KEGPKNHD@CAucManager?3?3Build?5Fog?5Though?5fa@ 100807f4     puctrl_normal.obj
 0002:0000781c       ??_C@_0CE@GILGJONE@CAucManager?3?3Send?5Fog?5Though?5fai@ 1008081c     puctrl_normal.obj
 0002:00007840       ??_C@_0CH@IHEHHFCO@CAucManager?3?3Analyze?5Fog?5Though?5@ 10080840     puctrl_normal.obj
 0002:00007868       ??_C@_0CJ@LMBJIPHC@CAucManager?3?3Build?5Set?5FogThroug@ 10080868     puctrl_normal.obj
 0002:00007894       ??_C@_0CL@PJNOODFN@CAucManager?3?3Analyze?5Set?5FogThro@ 10080894     puctrl_normal.obj
 0002:000078c0       ??_C@_0CA@OAPNMFFM@CAucManager?3?3Build?5Gamma?5failed?$AA@ 100808c0     puctrl_normal.obj
 0002:000078e0       ??_C@_0BP@HIBJBIKP@CAucManager?3?3Send?5Gamma?5failed?$AA@ 100808e0     puctrl_normal.obj
 0002:00007900       ??_C@_0CC@PBMHGKIA@CAucManager?3?3Analyze?5Gamma?5faile@ 10080900     puctrl_normal.obj
 0002:00007924       ??_C@_0CE@OMEMGIIA@CAucManager?3?3Build?5Set?5Gamma?5fai@ 10080924     puctrl_normal.obj
 0002:00007948       ??_C@_0CD@DJAIFKDE@CAucManager?3?3Send?5Set?5Gamma?5fail@ 10080948     puctrl_normal.obj
 0002:0000796c       ??_C@_0CG@BNPDIKHH@CAucManager?3?3Analyze?5Set?5Gamma?5f@ 1008096c     puctrl_normal.obj
 0002:00007994       ??_C@_0CC@JMHLHBMC@CAucManager?3?3Build?5SmartIR?5faile@ 10080994     puctrl_normal.obj
 0002:000079b8       ??_C@_0CB@FLIIPFDB@CAucManager?3?3Send?5SmartIR?5failed@ 100809b8     puctrl_normal.obj
 0002:000079dc       ??_C@_0CE@PHJPFEJC@CAucManager?3?3Analyze?5SmartIR?5fai@ 100809dc     puctrl_normal.obj
 0002:00007a00       ??_C@_0CG@BJJBCIDF@CAucManager?3?3Build?5Set?5SmartIR?5f@ 10080a00     puctrl_normal.obj
 0002:00007a28       ??_C@_0CF@FBOPMHEN@CAucManager?3?3Send?5Set?5SmartIR?5fa@ 10080a28     puctrl_normal.obj
 0002:00007a50       ??_C@_0CI@MGICNKE@CAucManager?3?3Analyze?5Set?5SmartIR@ 10080a50     puctrl_normal.obj
 0002:00007a78       ??_C@_0BO@FNILPBPA@CAucManager?3?3Build?5Blc?5failed?$AA@ 10080a78     puctrl_normal.obj
 0002:00007a98       ??_C@_0BN@KDIOEFFK@CAucManager?3?3Send?5Blc?5failed?$AA@ 10080a98     puctrl_normal.obj
 0002:00007ab8       ??_C@_0CA@JHCLOCNA@CAucManager?3?3Analyze?5Blc?5failed?$AA@ 10080ab8     puctrl_normal.obj
 0002:00007ad8       ??_C@_0CC@IGKLCDPE@CAucManager?3?3Build?5Set?5Blc?5faile@ 10080ad8     puctrl_normal.obj
 0002:00007afc       ??_C@_0CB@EBFIKHAH@CAucManager?3?3Send?5Set?5Blc?5failed@ 10080afc     puctrl_normal.obj
 0002:00007b20       ??_C@_0CE@ONEPAGKE@CAucManager?3?3Analyze?5Set?5Blc?5fai@ 10080b20     puctrl_normal.obj
 0002:00007b44       ??_C@_0CB@CKIHKGIN@CAucManager?3?3GetFillLight?5failed@ 10080b44     puctrl_normal.obj
 0002:00007b68       ??_C@_0CG@LKJNEEPJ@CAucManager?3?3Analyze?5FillLight?5f@ 10080b68     puctrl_normal.obj
 0002:00007b90       ??_C@_0CH@BBMBDJEB@CAucManager?3?3Build?5SetFillLight?5@ 10080b90     puctrl_normal.obj
 0002:00007bb8       ??_C@_0CG@EPFHLOKA@CAucManager?3?3Send?5SetFillLight?5f@ 10080bb8     puctrl_normal.obj
 0002:00007be0       ??_C@_0CJ@JGNMGDJG@CAucManager?3?3Analyze?5SetFillLigh@ 10080be0     puctrl_normal.obj
 0002:00007c0c       ??_C@_0DA@KCLEHDFG@CAucManager?3?3Build?5Build_AssTele@ 10080c0c     puctrl_normal.obj
 0002:00007c3c       ??_C@_0CM@BDCCGMNL@CAucManager?3?3Build?5Build_AssMalf@ 10080c3c     puctrl_normal.obj
 0002:00007c68       ??_C@_0CF@KHMMALFI@CAucManager?3?3Send?5Set?5AssMalf?5fa@ 10080c68     puctrl_normal.obj
 0002:00007c90       ??_C@_0CI@PKELOBLB@CAucManager?3?3Analyze?5Set?5AssMalf@ 10080c90     puctrl_normal.obj
 0002:00007cb8       ??_C@_0CG@ICLGMADF@CAucManager?3?3Build?5AssMalfInfo?5f@ 10080cb8     puctrl_normal.obj
 0002:00007ce0       ??_C@_0CF@MKMICPEN@CAucManager?3?3Send?5AssMalfInfo?5fa@ 10080ce0     puctrl_normal.obj
 0002:00007d08       ??_C@_0CI@JHEPMFKE@CAucManager?3?3Analyze?5AssMalfInfo@ 10080d08     puctrl_normal.obj
 0002:00007d30       ??_C@_0CI@JKFNNFFL@CAucManager?3?3Build?5Build_SetMTCF@ 10080d30     puctrl_normal.obj
 0002:00007d58       ??_C@_0CB@MHNGFLNI@CAucManager?3?3Send?5SetMTCF?5failed@ 10080d58     puctrl_normal.obj
 0002:00007d7c       ??_C@_0CE@GLMBPKHL@CAucManager?3?3Analyze?5SetMTCF?5fai@ 10080d7c     puctrl_normal.obj
 0002:00007da0       ??_C@_0CC@MODLCFAH@CAucManager?3?3Build?5GetMTCF?5faile@ 10080da0     puctrl_normal.obj
 0002:00007dc4       ??_C@_0CE@MPECDKLI@CAucManager?3?3analyze?5NetPort?5fai@ 10080dc4     puctrl_normal.obj
 0002:00007de8       ??_C@_0CC@DBILDGKI@CAucManager?3?3build?5NetPort?5faile@ 10080de8     puctrl_normal.obj
 0002:00007e0c       ??_C@_0CE@MNKHDGCA@CAucManager?3?3Analyze?5NetPort?5fai@ 10080e0c     puctrl_normal.obj
 0002:00007e30       ??_C@_0BP@NABOALCA@CAucManager?3?3analyze?5Ip?5failed?$AA@ 10080e30     puctrl_normal.obj
 0002:00007e50       ??_C@_0BN@IALGGCJM@CAucManager?3?3build?5Ip?5failed?$AA@ 10080e50     puctrl_normal.obj
 0002:00007e70       ??_C@_0BP@INFILDBA@CAucManager?3?3Analyze?5Ip?5failed?$AA@ 10080e70     puctrl_normal.obj
 0002:00007e90       ??_C@_0CB@GJBLEIJO@CAucManager?3?3analyze?5Wlan?5failed@ 10080e90     puctrl_normal.obj
 0002:00007eb4       ??_C@_0BP@BFAFCAHO@CAucManager?3?3build?5Wlan?5failed?$AA@ 10080eb4     puctrl_normal.obj
 0002:00007ed4       ??_C@_0CB@HDOHBIJF@CAucManager?3?3Analyze?5Wlan?5failed@ 10080ed4     puctrl_normal.obj
 0002:00007ef8       ??_C@_0CB@ENKGIHM@CAucManager?3?3analyze?5Ddns?5failed@ 10080ef8     puctrl_normal.obj
 0002:00007f1c       ??_C@_0BP@HIMEAAJM@CAucManager?3?3build?5Ddns?5failed?$AA@ 10080f1c     puctrl_normal.obj
 0002:00007f3c       ??_C@_0CB@BOCGDIHH@CAucManager?3?3Analyze?5Ddns?5failed@ 10080f3c     puctrl_normal.obj
 0002:00007f60       ??_C@_0CH@LHFDHHEG@CAucManager?3?3analyze?5Ddns?5State?5@ 10080f60     puctrl_normal.obj
 0002:00007f88       ??_C@_0CC@ELNEGLE@CAucManager?3?3analyze?5Pppoe?5faile@ 10080f88     puctrl_normal.obj
 0002:00007fac       ??_C@_0CA@LIJHGMCI@CAucManager?3?3build?5PPPoE?5failed?$AA@ 10080fac     puctrl_normal.obj
 0002:00007fcc       ??_C@_0CC@IPCJLFOA@CAucManager?3?3Analyze?5PPPoE?5faile@ 10080fcc     puctrl_normal.obj
 0002:00007ff0       ??_C@_0CA@MBEMMPHM@CAucManager?3?3analyze?5Qos?5failed?$AA@ 10080ff0     puctrl_normal.obj
 0002:00008010       ??_C@_0BO@DMLJILC@CAucManager?3?3build?5Qos?5failed?$AA@ 10081010     puctrl_normal.obj
 0002:00008030       ??_C@_0CA@OHMILJGI@CAucManager?3?3Analyze?5Qos?5failed?$AA@ 10081030     puctrl_normal.obj
 0002:00008050       ??_C@_0CC@CGPOGOAL@CAucManager?3?3analyze?5KSnmp?5faile@ 10081050     puctrl_normal.obj
 0002:00008074       ??_C@_0CA@IGIIJCBL@CAucManager?3?3build?5KSnmp?5failed?$AA@ 10081074     puctrl_normal.obj
 0002:00008094       ??_C@_0CC@LBDGELND@CAucManager?3?3Analyze?5KSnmp?5faile@ 10081094     puctrl_normal.obj
 0002:000080b8       ??_C@_0CC@BEFIELIE@CAucManager?3?3analyze?58021x?5faile@ 100810b8     puctrl_normal.obj
 0002:000080dc       ??_C@_0CA@LECOLHJE@CAucManager?3?3build?58021x?5failed?$AA@ 100810dc     puctrl_normal.obj
 0002:000080fc       ??_C@_0CC@IDJAGOFM@CAucManager?3?3Analyze?58021x?5faile@ 100810fc     puctrl_normal.obj
 0002:00008120       ??_C@_0CF@FBKNNPOC@CAucManager?3?3build?5Upnp?5State?5fa@ 10081120     puctrl_normal.obj
 0002:00008148       ??_C@_0CB@KODJBCGI@CAucManager?3?3Analyze?5Upnp?5failed@ 10081148     puctrl_normal.obj
 0002:0000816c       ??_C@_0CB@LIGFONOL@CAucManager?3?3analyze?5Vsip?5failed@ 1008116c     puctrl_normal.obj
 0002:00008190       ??_C@_0BP@MEHLIFAL@CAucManager?3?3build?5Vsip?5failed?$AA@ 10081190     puctrl_normal.obj
 0002:000081b0       ??_C@_0CB@KCJJLNOA@CAucManager?3?3Analyze?5Vsip?5failed@ 100811b0     puctrl_normal.obj
 0002:000081d4       ??_C@_0CC@KOMFINHI@CAucManager?3?3analyze?5Onvif?5faile@ 100811d4     puctrl_normal.obj
 0002:000081f8       ??_C@_0CA@OLDHBGI@CAucManager?3?3build?5Onvif?5failed?$AA@ 100811f8     puctrl_normal.obj
 0002:00008218       ??_C@_0CC@DJANKIKA@CAucManager?3?3Analyze?5Onvif?5faile@ 10081218     puctrl_normal.obj
 0002:0000823c       ??_C@_0CB@MIKFNFGN@CAucManager?3?3analyze?5Dpss?5failed@ 1008123c     puctrl_normal.obj
 0002:00008260       ??_C@_0BP@LELLLNIN@CAucManager?3?3build?5Dpss?5failed?$AA@ 10081260     puctrl_normal.obj
 0002:00008280       ??_C@_0CB@NCFJIFGG@CAucManager?3?3Analyze?5Dpss?5failed@ 10081280     puctrl_normal.obj
 0002:000082a4       ??_C@_0CF@DPJMHFP@CAucManager?3?3analyze?5AuthMode?5fa@ 100812a4     puctrl_normal.obj
 0002:000082cc       ??_C@_0CD@BOLABODH@CAucManager?3?3build?5AuthMode?5fail@ 100812cc     puctrl_normal.obj
 0002:000082f0       ??_C@_0CF@PNCPDJCF@CAucManager?3?3Analyze?5AuthMode?5fa@ 100812f0     puctrl_normal.obj
 0002:00008318       ??_C@_0CE@BFPKIMEM@CAucManager?3?3analyze?5GB28181?5fai@ 10081318     puctrl_normal.obj
 0002:0000833c       ??_C@_0CC@OLDDIAFM@CAucManager?3?3build?5GB28181?5faile@ 1008133c     puctrl_normal.obj
 0002:00008360       ??_C@_0CE@BHBPIANE@CAucManager?3?3Analyze?5GB28181?5fai@ 10081360     puctrl_normal.obj
 0002:00008384       ??_C@_0CJ@JBKAHMEB@CAucManager?3?3analyze?5StorageStat@ 10081384     puctrl_normal.obj
 0002:000083b0       ??_C@_0CL@HJOBONIL@CAucManager?3?3analyze?5StorageMana@ 100813b0     puctrl_normal.obj
 0002:000083dc       ??_C@_0CJ@OLEBFKAA@CAucManager?3?3build?5StorageManage@ 100813dc     puctrl_normal.obj
 0002:00008408       ??_C@_0CL@JIDJJFIP@CAucManager?3?3Analyze?5StorageMana@ 10081408     puctrl_normal.obj
 0002:00008434       ??_C@_0CH@LFDOHOF@CAucManager?3?3build?5StorageFomat?5@ 10081434     puctrl_normal.obj
 0002:0000845c       ??_C@_0CI@KJLPIPA@CAucManager?3?3Analyze?5Disk?5Format@ 1008145c     puctrl_normal.obj
 0002:00008484       ??_C@_0CI@OPDMEOPC@CAucManager?3?3analyze?5RecSchedule@ 10081484     puctrl_normal.obj
 0002:000084ac       ??_C@_0CG@PGACFDBF@CAucManager?3?3build?5RecSchedule?5f@ 100814ac     puctrl_normal.obj
 0002:000084d4       ??_C@_0CI@FDNFBIFI@CAucManager?3?3Analyze?5RecSchedule@ 100814d4     puctrl_normal.obj
 0002:000084fc       ??_C@_0CK@PJBMNPCA@CAucManager?3?3analyze?5SnapPicConf@ 100814fc     puctrl_normal.obj
 0002:00008528       ??_C@_0CI@ILCFMPOM@CAucManager?3?3build?5SnapPicConfig@ 10081528     puctrl_normal.obj
 0002:00008550       ??_C@_0CK@CPPMMDGL@CAucManager?3?3Analyze?5SnapPicConf@ 10081550     puctrl_normal.obj
 0002:0000857c       ??_C@_0CG@IJHOJAP@CAucManager?3?3analyze?5SnapEvent?5f@ 1008157c     puctrl_normal.obj
 0002:000085a4       ??_C@_0CE@ELODEJLM@CAucManager?3?3build?5SnapEvent?5fai@ 100815a4     puctrl_normal.obj
 0002:000085c8       ??_C@_0CG@LILJKHND@CAucManager?3?3Analyze?5SnapEvent?5f@ 100815c8     puctrl_normal.obj
 0002:000085f0       ??_C@_0CF@HBOMPEEB@CAucManager?3?3analyze?5SnapTime?5fa@ 100815f0     puctrl_normal.obj
 0002:00008618       ??_C@_0CD@GMKFCNCJ@CAucManager?3?3build?5SnapTime?5fail@ 10081618     puctrl_normal.obj
 0002:0000863c       ??_C@_0CF@IPDKAKDL@CAucManager?3?3Analyze?5SnapTime?5fa@ 1008163c     puctrl_normal.obj
 0002:00008664       ??_C@_0CJ@KHJAEJCM@CAucManager?3?3analyze?5Detect?5Stat@ 10081664     puctrl_normal.obj
 0002:00008690       ??_C@_0CB@LHJNHKNE@CAucManager?3?3build?5Detect?5failed@ 10081690     puctrl_normal.obj
 0002:000086b4       ??_C@_0CD@CCBFIOIP@CAucManager?3?3Analyze?5Detect?5fail@ 100816b4     puctrl_normal.obj
 0002:000086d8       ??_C@_0CO@IADDGBNF@CAucManager?3?3analyze?5ShieldAlarm@ 100816d8     puctrl_normal.obj
 0002:00008708       ??_C@_0CG@NFMIEONP@CAucManager?3?3build?5ShieldAlarm?5f@ 10081708     puctrl_normal.obj
 0002:00008730       ??_C@_0CI@HABPAFJC@CAucManager?3?3Analyze?5ShieldAlarm@ 10081730     puctrl_normal.obj
 0002:00008758       ??_C@_0CO@ILAHIJMD@CAucManager?3?3analyze?5WarningLine@ 10081758     puctrl_normal.obj
 0002:00008788       ??_C@_0CG@OKDAPEPB@CAucManager?3?3build?5WarningLine?5f@ 10081788     puctrl_normal.obj
 0002:000087b0       ??_C@_0CI@EPOHLPLM@CAucManager?3?3Analyze?5WarningLine@ 100817b0     puctrl_normal.obj
 0002:000087d8       ??_C@_0DE@LKCNMMGB@CAucManager?3?3analyze?5area?5detect@ 100817d8     puctrl_normal.obj
 0002:0000880c       ??_C@_0CM@EIOJPCAG@CAucManager?3?3build?5Area?5Detect?5e@ 1008180c     puctrl_normal.obj
 0002:00008838       ??_C@_0CJ@PPAHAAE@CAucManager?3?3Analyze?5Detect?5ente@ 10081838     puctrl_normal.obj
 0002:00008864       ??_C@_0DE@HPAHKMHE@CAucManager?3?3analyze?5area?5detect@ 10081864     puctrl_normal.obj
 0002:00008898       ??_C@_0CM@PMOPGEK@CAucManager?3?3build?5Area?5Detect?5e@ 10081898     puctrl_normal.obj
 0002:000088c4       ??_C@_0CO@PHBLJIAL@CAucManager?3?3Analyze?5Area?5Detect@ 100818c4     puctrl_normal.obj
 0002:000088f4       ??_C@_0DC@HIJBKJF@CAucManager?3?3analyze?5area?5detect@ 100818f4     puctrl_normal.obj
 0002:00008928       ??_C@_0CK@JNMLJMGK@CAucManager?3?3build?5Area?5Detect?5o@ 10081928     puctrl_normal.obj
 0002:00008954       ??_C@_0CM@OALPHKBE@CAucManager?3?3Analyze?5Area?5Detect@ 10081954     puctrl_normal.obj
 0002:00008980       ??_C@_0DF@ONHCPOHI@CAucManager?3?3analyze?5object?5dete@ 10081980     puctrl_normal.obj
 0002:000089b8       ??_C@_0CL@LMKGHKJ@CAucManager?3?3build?5Area?5Detect?5l@ 100819b8     puctrl_normal.obj
 0002:000089e4       ??_C@_0CN@LMAKEPHE@CAucManager?3?3Analyze?5Area?5Detect@ 100819e4     puctrl_normal.obj
 0002:00008a14       ??_C@_0DF@FDFLCNFN@CAucManager?3?3analyze?5object?5dete@ 10081a14     puctrl_normal.obj
 0002:00008a4c       ??_C@_0CL@PPECFCKL@CAucManager?3?3build?5Area?5Detect?5t@ 10081a4c     puctrl_normal.obj
 0002:00008a78       ??_C@_0CN@EIICHKHG@CAucManager?3?3Analyze?5Area?5Detect@ 10081a78     puctrl_normal.obj
 0002:00008aa8       ??_C@_0DF@CAHPMMFJ@CAucManager?3?3analyze?5virtual?5foc@ 10081aa8     puctrl_normal.obj
 0002:00008ae0       ??_C@_0CN@HAGKHPMD@CAucManager?3?3build?5virtual?5focus@ 10081ae0     puctrl_normal.obj
 0002:00008b10       ??_C@_0CP@HBEJNLKL@CAucManager?3?3Analyze?5virtual?5foc@ 10081b10     puctrl_normal.obj
 0002:00008b40       ??_C@_0DE@GLNHDCBF@CAucManager?3?3analyze?5Sight?5Chang@ 10081b40     puctrl_normal.obj
 0002:00008b74       ??_C@_0CM@NGAJMJNL@CAucManager?3?3build?5Sight?5Change?5@ 10081b74     puctrl_normal.obj
 0002:00008ba0       ??_C@_0CO@CONMKHJK@CAucManager?3?3Analyze?5Sight?5Chang@ 10081ba0     puctrl_normal.obj
 0002:00008bd0       ??_C@_0DE@HEBPEJAM@CAucManager?3?3analyze?5Audio?5Excep@ 10081bd0     puctrl_normal.obj
 0002:00008c04       ??_C@_0CM@LHJLHAIO@CAucManager?3?3build?5Audio?5Except?5@ 10081c04     puctrl_normal.obj
 0002:00008c30       ??_C@_0CO@EPEOBOMP@CAucManager?3?3Analyze?5Audio?5Excep@ 10081c30     puctrl_normal.obj
 0002:00008c60       ??_C@_0DD@DJNKAJOK@CAucManager?3?3analyze?5Face?5Detect@ 10081c60     puctrl_normal.obj
 0002:00008c94       ??_C@_0CL@NJMFIEJG@CAucManager?3?3build?5Face?5Detect?5t@ 10081c94     puctrl_normal.obj
 0002:00008cc0       ??_C@_0CN@GOAFKMEL@CAucManager?3?3Analyze?5Face?5Detect@ 10081cc0     puctrl_normal.obj
 0002:00008cf0       ??_C@_0CK@HJGBMLM@CAucManager?3?3analyze?5AlarmIn?5Sta@ 10081cf0     puctrl_normal.obj
 0002:00008d1c       ??_C@_0CC@GHOGFCDK@CAucManager?3?3build?5AlarmIn?5faile@ 10081d1c     puctrl_normal.obj
 0002:00008d40       ??_C@_0CE@JLMKFCLC@CAucManager?3?3Analyze?5AlarmIn?5fai@ 10081d40     puctrl_normal.obj
 0002:00008d64       ??_C@_0CF@LANKDFEJ@CAucManager?3?3analyze?5AlarmOut?5fa@ 10081d64     puctrl_normal.obj
 0002:00008d8c       ??_C@_0CD@KNJDOMCB@CAucManager?3?3build?5AlarmOut?5fail@ 10081d8c     puctrl_normal.obj
 0002:00008db0       ??_C@_0CF@EOAMMLDD@CAucManager?3?3Analyze?5AlarmOut?5fa@ 10081db0     puctrl_normal.obj
 0002:00008dd8       ??_C@_0CH@FJHDOBFD@CAucManager?3?3analyze?5ExceptType?5@ 10081dd8     puctrl_normal.obj
 0002:00008e00       ??_C@_0CD@HALHAFAG@CAucManager?3?3analyze?5Except?5fail@ 10081e00     puctrl_normal.obj
 0002:00008e24       ??_C@_0CB@GNKAGDJO@CAucManager?3?3build?5Except?5failed@ 10081e24     puctrl_normal.obj
 0002:00008e48       ??_C@_0CD@PICIJHMF@CAucManager?3?3Analyze?5Except?5fail@ 10081e48     puctrl_normal.obj
 0002:00008e6c       ??_C@_0CC@LJCGHKGC@CAucManager?3?3build?5PtzMove?5faile@ 10081e6c     puctrl_normal.obj
 0002:00008e90       ??_C@_0CE@EFAKHKOK@CAucManager?3?3Analyze?5PtzMove?5fai@ 10081e90     puctrl_normal.obj
 0002:00008eb4       ??_C@_0CI@KMMJLACM@CAucManager?3?3build?5Ptz?5Zone?5Zoom@ 10081eb4     puctrl_normal.obj
 0002:00008edc       ??_C@_0CK@IBALMKL@CAucManager?3?3Analyze?5Ptz?5Zone?5Zo@ 10081edc     puctrl_normal.obj
 0002:00008f08       ??_C@_0CJ@PPDJLLPP@CAucManager?3?3build?5Ptz?5Goto?5Poin@ 10081f08     puctrl_normal.obj
 0002:00008f34       ??_C@_0CL@IMEBHEHA@CAucManager?3?3Analyze?5Ptz?5Goto?5Po@ 10081f34     puctrl_normal.obj
 0002:00008f60       ??_C@_0CI@LOLKKOLM@CAucManager?3?3build?5Set?5Ptz?5Wiper@ 10081f60     puctrl_normal.obj
 0002:00008f88       ??_C@_0CK@BKGDKCDL@CAucManager?3?3Analyze?5Set?5Ptz?5Wip@ 10081f88     puctrl_normal.obj
 0002:00008fb4       ??_C@_0CE@IBCEAJEB@CAucManager?3?3analyze?5PtzBase?5fai@ 10081fb4     puctrl_normal.obj
 0002:00008fd8       ??_C@_0CC@HPONAFFB@CAucManager?3?3build?5PtzBase?5faile@ 10081fd8     puctrl_normal.obj
 0002:00008ffc       ??_C@_0CE@IDMBAFNJ@CAucManager?3?3Analyze?5PtzBase?5fai@ 10081ffc     puctrl_normal.obj
 0002:00009020       ??_C@_0CI@FGABEMPP@CAucManager?3?3analyze?5PtzMainTain@ 10082020     puctrl_normal.obj
 0002:00009048       ??_C@_0CG@EPDPFBBI@CAucManager?3?3build?5PtzMainTain?5f@ 10082048     puctrl_normal.obj
 0002:00009070       ??_C@_0CI@OKOIBKFF@CAucManager?3?3Analyze?5PtzMainTain@ 10082070     puctrl_normal.obj
 0002:00009098       ??_C@_0CH@ICAHGIDH@CAucManager?3?3build?5PtzRefactory?5@ 10082098     puctrl_normal.obj
 0002:000090c0       ??_C@_0CJ@IKMPICFB@CAucManager?3?3Analyze?5PtzRefactor@ 100820c0     puctrl_normal.obj
 0002:000090ec       ??_C@_0CH@LGJGMKAP@CAucManager?3?3analyze?5PtzWatchOn?5@ 100820ec     puctrl_normal.obj
 0002:00009114       ??_C@_0CF@OELNFMJJ@CAucManager?3?3build?5PtzWatchOn?5fa@ 10082114     puctrl_normal.obj
 0002:0000913c       ??_C@_0CH@DJEDHKLO@CAucManager?3?3Analyze?5PtzWatchOn?5@ 1008213c     puctrl_normal.obj
 0002:00009164       ??_C@_0CG@KBEEFGFE@CAucManager?3?3analyze?5PtzPreset?5f@ 10082164     puctrl_normal.obj
 0002:0000918c       ??_C@_0CE@OCDAPGOH@CAucManager?3?3build?5PtzPreset?5fai@ 1008218c     puctrl_normal.obj
 0002:000091b0       ??_C@_0CG@BBGKBIII@CAucManager?3?3Analyze?5PtzPreset?5f@ 100821b0     puctrl_normal.obj
 0002:000091d8       ??_C@_0CF@EHAPEDJP@CAucManager?3?3analyze?5PtzLimit?5fa@ 100821d8     puctrl_normal.obj
 0002:00009200       ??_C@_0CD@FKEGJKPH@CAucManager?3?3build?5PtzLimit?5fail@ 10082200     puctrl_normal.obj
 0002:00009224       ??_C@_0CF@LJNJLNOF@CAucManager?3?3Analyze?5PtzLimit?5fa@ 10082224     puctrl_normal.obj
 0002:0000924c       ??_C@_0CK@FNMMLGAE@CAucManager?3?3analyze?5PtzPathCrui@ 1008224c     puctrl_normal.obj
 0002:00009278       ??_C@_0CI@CPPFKGMI@CAucManager?3?3build?5PtzPathCruise@ 10082278     puctrl_normal.obj
 0002:000092a0       ??_C@_0CK@ILCMKKEP@CAucManager?3?3Analyze?5PtzPathCrui@ 100822a0     puctrl_normal.obj
 0002:000092cc       ??_C@_0CN@NFLKJLAG@CAucManager?3?3build?5PtzPathCruise@ 100822cc     puctrl_normal.obj
 0002:000092fc       ??_C@_0CP@NEJJDPGO@CAucManager?3?3Analyze?5PtzPathCrui@ 100822fc     puctrl_normal.obj
 0002:0000932c       ??_C@_0CF@NPKPAMEG@CAucManager?3?3analyze?5TimeTask?5fa@ 1008232c     puctrl_normal.obj
 0002:00009354       ??_C@_0CK@FEMKDIOF@CAucManager?3?3analyze?5PtzCoorDina@ 10082354     puctrl_normal.obj
 0002:00009380       ??_C@_0CL@GBNBCDBF@CAucManager?3?3build?5PtzCoorDinate@ 10082380     puctrl_normal.obj
 0002:000093ac       ??_C@_0CN@NGBBALMI@CAucManager?3?3Analyze?5PtzCoorDina@ 100823ac     puctrl_normal.obj
 0002:000093dc       ??_C@_0CF@PEMMLJOJ@CAucManager?3?3analyze?5PtzRatio?5fa@ 100823dc     puctrl_normal.obj
 0002:00009404       ??_C@_0CD@OJIFGAIB@CAucManager?3?3build?5PtzRatio?5fail@ 10082404     puctrl_normal.obj
 0002:00009428       ??_C@_0CG@MLDCILOJ@CAucManager?3?3Analyze?5ptz?5ratio?5f@ 10082428     puctrl_normal.obj
 0002:00009450       ??_C@_0CI@OBLHNKAN@CAucManager?3?3analyze?5PtzPatterns@ 10082450     puctrl_normal.obj
 0002:00009478       ??_C@_0CI@LHFKGKJJ@CAucManager?3?3build?5PtzPatternEvt@ 10082478     puctrl_normal.obj
 0002:000094a0       ??_C@_0CK@BDIDGGBO@CAucManager?3?3Analyze?5PtzPatternE@ 100824a0     puctrl_normal.obj
 0002:000094cc       ??_C@_0BB@LHJLPKCP@Start?5GetRcvMen?6?$AA@ 100824cc     puctrl_normal.obj
 0002:000094e0       ??_C@_0CG@JEGLOEHN@Start?5GetAuc?5?0?5dwIP?5?$DN?5?$CFd?0?5wport?5@ 100824e0     puctrl_normal.obj
 0002:00009508       ??_C@_0O@BEIGNLHK@Get?5Auc?5Fail?$CB?$AA@ 10082508     puctrl_normal.obj
 0002:00009518       ??_C@_0BI@EIOPBFJA@Start?5Build_HttpHeader?6?$AA@ 10082518     puctrl_normal.obj
 0002:00009530       ??_C@_0CH@NJDKFKOA@GetDeviceInfo?3?3Build_HttpHeader?5@ 10082530     puctrl_normal.obj
 0002:00009558       ??_C@_0M@DDODDLNE@Start?5Send?6?$AA@ 10082558     puctrl_normal.obj
 0002:00009564       ??_C@_0BK@ELADICPK@Start?5Analvze_DeviceInfo?6?$AA@ 10082564     puctrl_normal.obj
 0002:00009580       ??_C@_0CH@LDODAHDC@CAucManager?3?3analyze?5DeviceInfo?5@ 10082580     puctrl_normal.obj
 0002:000095a8       ??_C@_0BN@DNNKKIKH@?1?1kdsapi?1?1system?1?1time?1?1info?$AA@ 100825a8     puctrl_normal.obj
 0002:000095c8       ??_C@_0CI@KDHOPIO@CAucManager?3?3Analyze?5System?5time@ 100825c8     puctrl_normal.obj
 0002:000095f0       ??_C@_0DE@IFHPIOHJ@CAucManager?3?3Analyze?5System?5Time@ 100825f0     puctrl_normal.obj
 0002:00009624       ??_C@_0CG@BLEGHII@CAucManager?3?3Analyze?5Time?5Auto?5f@ 10082624     puctrl_normal.obj
 0002:0000964c       ??_C@_0BN@JFBAEEOG@?1?1kdsapi?1?1system?1?1time?1?1auto?$AA@ 1008264c     puctrl_normal.obj
 0002:0000966c       ??_C@_0CF@KJNGEFIO@GetTimeAuto?3?3Build_HttpHeader?5fa@ 1008266c     puctrl_normal.obj
 0002:00009694       ??_C@_0CA@KMDGFMDN@CAucManager?3?3Analyze?5DST?5failed?$AA@ 10082694     puctrl_normal.obj
 0002:000096b4       ??_C@_0BP@BNDIOGND@?1?1kdsapi?1?1system?1?1time?1?1summer?$AA@ 100826b4     puctrl_normal.obj
 0002:000096d4       ??_C@_0CD@FHMPEGIB@CAucManager?3?3Analvze_GetDST?5fail@ 100826d4     puctrl_normal.obj
 0002:000096f8       ??_C@_0CE@GPIKHPN@CAucManager?3?3Analyze?5RS?5Info?5fai@ 100826f8     puctrl_normal.obj
 0002:0000971c       ??_C@_0CH@KPPFDCNA@CAucManager?3?3analyze?5SetLedFind?5@ 1008271c     puctrl_normal.obj
 0002:00009744       ??_C@_0CJ@DMPKNMEE@CAucManager?3?3analyze?5SystemReboo@ 10082744     puctrl_normal.obj
 0002:00009770       ??_C@_0CL@LNEADHNC@CAucManager?3?3analyze?5RecoverFact@ 10082770     puctrl_normal.obj
 0002:0000979c       ??_C@_0CJ@MIFKADNC@CAucManager?3?3Build?5Get?5UserActiv@ 1008279c     puctrl_normal.obj
 0002:000097c8       ??_C@_0CI@BLJHJLFA@CAucManager?3?3analyze?5User?5Active@ 100827c8     puctrl_normal.obj
 0002:000097f0       ??_C@_0CK@HBFEIMHJ@CAucManager?3?3Analyze?5Config?5Uplo@ 100827f0     puctrl_normal.obj
 0002:0000981c       ??_C@_03CCKOKKND@rb?$CL?$AA@ 1008281c     puctrl_normal.obj
 0002:00009820       ??_C@_0CN@GDLMHJAO@?1?1kdsapi?1?1system?1?1configfile?1pre@ 10082820     puctrl_normal.obj
 0002:00009850       ??_C@_0CG@OKLKDJEI@?1?1kdsapi?1?1system?1?1configfile?1dow@ 10082850     puctrl_normal.obj
 0002:00009878       ??_C@_03BFHAFKOB@wb?$CL?$AA@ 10082878     puctrl_normal.obj
 0002:0000987c       ??_C@_0CG@ILDDLNLG@?1?1kdsapi?1?1system?1?1upgrade?1?1state@ 1008287c     puctrl_normal.obj
 0002:000098a4       ??_C@_0CD@NKFBAIKH@cginormal?3?3Build_HttpHeader?5fail@ 100828a4     puctrl_normal.obj
 0002:000098c8       ??_C@_0BO@EFOIJJFM@CAucManager?3?3bPrepared?5failed?$AA@ 100828c8     puctrl_normal.obj
 0002:000098e8       ??_C@_0CJ@KLHOMAIN@cgisystem?3?3Analvze_GetUploadStat@ 100828e8     puctrl_normal.obj
 0002:00009914       ??_C@_0CE@FLEMLEFH@CAucManager?3?3analyze?5Advance?5fai@ 10082914     puctrl_normal.obj
 0002:00009938       ??_C@_0CE@FJKJLIMP@CAucManager?3?3Analyze?5Advance?5fai@ 10082938     puctrl_normal.obj
 0002:0000995c       ??_C@_0CE@JDKOOGPK@CAucManager?3?3Analyze?5set?5SSH?5fai@ 1008295c     puctrl_normal.obj
 0002:00009980       ??_C@_0CL@JKNCGCEH@CAucManager?3?3analyze?5Battery?5Sta@ 10082980     puctrl_normal.obj
 0002:000099ac       ??_C@_0BK@HBBAIPNP@?1?1kdsapi?1?1security?1?1users?$AA@ 100829ac     puctrl_normal.obj
 0002:000099c8       ??_C@_0CJ@MBJBAEKD@IPC_GetUserInfo?3?3Build_HttpHeade@ 100829c8     puctrl_normal.obj
 0002:000099f4       ??_C@_0CF@HEIHDPAF@cgisecurity?3?3Analvze_GetUsers?5fa@ 100829f4     puctrl_normal.obj
 0002:00009a1c       ??_C@_0CL@POHICNEB@cgisecurity?3?3Build_SendXml_SetUs@ 10082a1c     puctrl_normal.obj
 0002:00009a48       ??_C@_0CK@FADFLFOM@CAucManager?3?3Analyze?5Set?5User?5In@ 10082a48     puctrl_normal.obj
 0002:00009a74       ??_C@_0CF@HBPCKCF@CAucManager?3?3Analyze?5add?5user?5fa@ 10082a74     puctrl_normal.obj
 0002:00009a9c       ??_C@_0CI@BMEDOMJD@CAucManager?3?3Analyze?5delete?5user@ 10082a9c     puctrl_normal.obj
 0002:00009ac4       ??_C@_0CI@CAJLGJCH@CAucManager?3?3Analyze?5update?5user@ 10082ac4     puctrl_normal.obj
 0002:00009aec       ??_C@_0BO@HJHMPBBJ@?$FLrs_init_recv_rsp?$FN?5handle?5?$CFd?6?$AA@ 10082aec     rtsp_c.obj
 0002:00009b0c       ??_C@_0BB@NHPILIFC@session?5is?5NULL?6?$AA@ 10082b0c     rtsp_c.obj
 0002:00009b20       ??_C@_0BE@EEJIOKCI@old?5seq?5?$CFd?5recv?5?$CFd?6?$AA@ 10082b20     rtsp_c.obj
 0002:00009b34       ??_C@_0BI@MFKGEIOK@seq?5err?5old?5?$CFd?5recv?5?$CFd?6?$AA@ 10082b34     rtsp_c.obj
 0002:00009b4c       ??_C@_0M@CIDMGOKE@CB?5fun?5err?6?$AA@ 10082b4c     rtsp_c.obj
 0002:00009b58       ??_C@_0O@MCAJBBDH@stat_code?5?$CFu?6?$AA@ 10082b58     rtsp_c.obj
 0002:00009b68       ??_C@_0FA@BNDODPBN@1ptResponse?9?$DOtRsStateLine?4stat_c@ 10082b68     rtsp_c.obj
 0002:00009bb8       ??_C@_0O@KLHHIMLE@auth?5fail?5?$CFd?6?$AA@ 10082bb8     rtsp_c.obj
 0002:00009bc8       ??_C@_0EN@PJOLNFPH@ptResponse?9?$DOtRsHead?4tWwwAuth?4non@ 10082bc8     rtsp_c.obj
 0002:00009c18       ??_C@_0BK@BCFIMEC@tMsgHandle?4byAuthType?$DN?$CFd?6?$AA@ 10082c18     rtsp_c.obj
 0002:00009c34       ??_C@_0BC@KACJEHBJ@recv?5stat?5err?5?$CFd?6?$AA@ 10082c34     rtsp_c.obj
 0002:00009c48       ??_C@_0BH@PLCECJFE@RSP?5statcode?5?$CB?$DN200?5?$CFd?6?$AA@ 10082c48     rtsp_c.obj
 0002:00009c60       ??_C@_0BH@NEICNHJJ@get?5DESCRBIE?5Response?6?$AA@ 10082c60     rtsp_c.obj
 0002:00009c78       ??_C@_0BA@NKKGCNEC@vtype?5?$CFd?0pt?$DN?$CFd?6?$AA@ 10082c78     rtsp_c.obj
 0002:00009c88       ??_C@_0BA@MBHIOLKJ@atype?5?$CFd?0pt?$DN?$CFd?6?$AA@ 10082c88     rtsp_c.obj
 0002:00009c98       ??_C@_0BI@NAEAMNIA@metadata?5type?5?$CFd?0pt?$DN?$CFd?6?$AA@ 10082c98     rtsp_c.obj
 0002:00009cb0       ??_C@_0M@DDBPBPGO@CB?5Ctrl?5?$CFs?6?$AA@ 10082cb0     rtsp_c.obj
 0002:00009cbc       ??_C@_0DG@CELDDGCP@?$FLrs_recv_rsp?$FNptResponse?9?$DOtSdp?4tA@ 10082cbc     rtsp_c.obj
 0002:00009cf4       ??_C@_0BO@MIHHHGMA@?$FLrs_recv_rsp?$FNcopy?5the?5sps?5?$CFx?6?$AA@ 10082cf4     rtsp_c.obj
 0002:00009d14       ??_C@_0BO@EGPIHBCD@?$FLrs_recv_rsp?$FNcopy?5the?5pps?5?$CFx?6?$AA@ 10082d14     rtsp_c.obj
 0002:00009d38       ??_C@_0FL@KAJINCNA@?$FL?5DESCRIBE?5RESPONESE?5?$FNdwMediaNum@ 10082d38     rtsp_c.obj
 0002:00009d94       ??_C@_0BE@HIHMLGMH@get?5SETUP?5Response?6?$AA@ 10082d94     rtsp_c.obj
 0002:00009da8       ??_C@_07MKPDCBEI@unicast?$AA@ 10082da8     rtsp_c.obj
 0002:00009db0       ??_C@_0BO@NIDAJOFG@?$FLSETUP?$FN?5m_dwMediaTotalNum?3?$CFd?6?$AA@ 10082db0     rtsp_c.obj
 0002:00009dd0       ??_C@_0BD@NCAMHHEN@get?5PLAY?5Response?6?$AA@ 10082dd0     rtsp_c.obj
 0002:00009de4       ??_C@_0BG@OPKHLJDC@get?5rs_parse_264head?6?$AA@ 10082de4     rtsp_c.obj
 0002:00009dfc       ??_C@_0BF@HGIEBGLH@get?5OPTION?5Response?6?$AA@ 10082dfc     rtsp_c.obj
 0002:00009e14       ??_C@_0CE@MAKKJEAG@?$FLrs_proto_msg_recv?$FN?5recv?5return?5@ 10082e14     rtsp_c.obj
 0002:00009e38       ??_C@_0CE@NLDNNGIM@?9?9?9?9?9?9?9?9?9?9?5?5?5S?5?9?$DO?5C?5?5?5?9?9?9?9?9?9?9?9?9?9@ 10082e38     rtsp_c.obj
 0002:00009e5c       ??_C@_0CA@DNPGIGAF@?9?9?9?9?9?9?9?9?9?9?9?9?9?9?9?9?9?9?9?9?9?9?9?9?9?9?9?9?9?9?6?$AA@ 10082e5c     rtsp_c.obj
 0002:00009e7c       ??_C@_0BK@INDGHIBJ@response?5msg?5?5err?5?$CFd?6?5?$CFs?6?$AA@ 10082e7c     rtsp_c.obj
 0002:00009e98       ??_C@_0BI@LCDIGAEE@create?5sesionSem?5error?6?$AA@ 10082e98     rtsp_c.obj
 0002:00009eb0       ??_C@_0CF@OCHOMMGJ@?$FLrtsp_init?$FN?5create?5the?5ping?5sock@ 10082eb0     rtsp_c.obj
 0002:00009ed8       ??_C@_0L@CNNFAFMG@?5start?5?$CL?$CL?6?$AA@ 10082ed8     rtsp_c.obj
 0002:00009ee4       ??_C@_0BO@IODPPEHF@select?5g_rs_fdset?4maxfd?5?$DN?5?$CFd?6?$AA@ 10082ee4     rtsp_c.obj
 0002:00009f04       ??_C@_0BJ@CIAMMBHP@select?5?$CLerr?5?$CFd?5errno?5?$CFd?6?$AA@ 10082f04     rtsp_c.obj
 0002:00009f20       ??_C@_09LFLBCCJA@select?50?6?$AA@ 10082f20     rtsp_c.obj
 0002:00009f2c       ??_C@_0BG@PFOMDPDP@link?5break?5?$CFd?5handle?6?$AA@ 10082f2c     rtsp_c.obj
 0002:00009f44       ??_C@_0CH@KBLIFOBK@break?5?$CFd?5max?$DN?$CFd?0dwIndex?$DN?$CFd?0sel_r@ 10082f44     rtsp_c.obj
 0002:00009f6c       ??_C@_0CA@GKOLMKCE@?$FLopen?5session?5?$FN?5recv?5handle?5?$CFd?6?$AA@ 10082f6c     rtsp_c.obj
 0002:00009f8c       ??_C@_0CB@CDOOMMHG@?$FLopen?5session?5?$FN?51recv?5handle?5?$CFd?6@ 10082f8c     rtsp_c.obj
 0002:00009fb0       ??_C@_0CB@JIGOKJND@?$FLopen?5session?5?$FN2?5recv?5handle?5?$CFd?6@ 10082fb0     rtsp_c.obj
 0002:00009fd4       ??_C@_0DL@PJHMFJMG@?$FLopen_session?$FN?5dwRemoteIP?5?$CFd?5wLo@ 10082fd4     rtsp_c.obj
 0002:0000a010       ??_C@_0BG@OAJAMOMM@rs_req_send?5faild?5?$CFd?6?$AA@ 10083010     rtsp_c.obj
 0002:0000a028       ??_C@_0BC@GALAIGCN@create?5socket?5?$CFd?6?$AA@ 10083028     rtsp_c.obj
 0002:0000a03c       ??_C@_0BO@FJNAJBFJ@?$FLHandle?5?$CFd?$FNRTSP?5state?5err?5?$CFd?6?$AA@ 1008303c     rtsp_c.obj
 0002:0000a05c       ??_C@_0DK@HBHJLNMB@?$CL?$CL?$CL?$CL?$CL?$CL?$CL?$CL?$CL?$CL?$CL?$CL?5?5?5?5?5?5?5?5?5?5?5?5?5C?5?5?9?5?5S@ 1008305c     rtsp_c.obj
 0002:0000a098       ??_C@_0DF@LPLCPIAA@?$CL?$CL?$CL?$CL?$CL?$CL?$CL?$CL?$CL?$CL?$CL?$CL?5?5?5?5?5?5?5send_describe@ 10083098     rtsp_c.obj
 0002:0000a0d0       ??_C@_0CL@EPPDNGKP@?$CL?$CL?$CL?$CL?$CL?$CL?$CL?$CL?$CL?$CL?$CL?$CL?$CL?$CL?$CL?$CL?$CL?$CL?$CL?$CL?$CL?$CL?$CL?$CL?$CL?$CL?$CL?$CL?$CL?$CL?$CL?$CL@ 100830d0     rtsp_c.obj
 0002:0000a0fc       ??_C@_08GLCBKEOL@purl?$DN?$CFs?6?$AA@ 100830fc     rtsp_c.obj
 0002:0000a108       ??_C@_0BA@MJOOLNNM@application?1sdp?$AA@ 10083108     rtsp_c.obj
 0002:0000a118       ??_C@_0DL@OBKMHKJA@ptPreReq?9?$DOtRsHead?4achuser?$DN?$CFs?0ptP@ 10083118     rtsp_c.obj
 0002:0000a154       ??_C@_0DF@BIBKDFJO@?$CL?$CL?$CL?$CL?$CL?$CL?$CL?$CL?$CL?$CL?$CL?5?5?5?5?5?5?5?5C?5?5?9?5?5S?5?5?5?5?5?5@ 10083154     rtsp_c.obj
 0002:0000a18c       ??_C@_0DC@ODEECJLG@?$CL?$CL?$CL?$CL?$CL?$CL?$CL?$CL?$CL?$CL?5?5?5?5?5?5?5send_setup?5?5?5?5?5@ 1008318c     rtsp_c.obj
 0002:0000a1c0       ??_C@_0CH@CKJMNLMJ@?$CL?$CL?$CL?$CL?$CL?$CL?$CL?$CL?$CL?$CL?$CL?$CL?$CL?$CL?$CL?$CL?$CL?$CL?$CL?$CL?$CL?$CL?$CL?$CL?$CL?$CL?$CL?$CL?$CL?$CL?$CL?$CL@ 100831c0     rtsp_c.obj
 0002:0000a1e8       ??_C@_0CE@BFFKFMHG@error?3?5getsockname?5failed?4?5nRet?5@ 100831e8     rtsp_c.obj
 0002:0000a20c       ??_C@_0CB@LAGJNFBK@?$FLSessionID?5?$CFd?$FNRTSP?5state?5err?5?$CFd?6@ 1008320c     rtsp_c.obj
 0002:0000a230       ??_C@_0DG@NBDOAAPL@?$CL?$CL?$CL?$CL?$CL?$CL?$CL?$CL?$CL?$CL?5?5?5?5?5?5?5?5?5?5?5?5?5C?5?5?9?5?5S?5?5@ 10083230     rtsp_c.obj
 0002:0000a268       ??_C@_0DF@BAIIFBEG@?$CL?$CL?$CL?$CL?$CL?$CL?$CL?$CL?$CL?$CL?5?5?5?5?5?5?5?5?5?5send_play?5?5?5@ 10083268     rtsp_c.obj
 0002:0000a2a0       ??_C@_0CG@JPLKKBAG@?$CL?$CL?$CL?$CL?$CL?$CL?$CL?$CL?$CL?$CL?$CL?$CL?$CL?$CL?$CL?$CL?$CL?$CL?$CL?$CL?$CL?$CL?$CL?$CL?$CL?$CL?$CL?$CL?$CL?$CL?$CL?$CL@ 100832a0     rtsp_c.obj
 0002:0000a2c8       ??_C@_0N@ENCAJPHD@rtp?5port?5?$CFd?6?$AA@ 100832c8     rtsp_c.obj
 0002:0000a2d8       ??_C@_0O@EMJDOBIM@rtsp?5port?5?$CFd?6?$AA@ 100832d8     rtsp_c.obj
 0002:0000a2e8       ??_C@_0BD@BFMAPNBG@rtsp?5remote?5ip?5?$CFx?6?$AA@ 100832e8     rtsp_c.obj
 0002:0000a2fc       ??_C@_0CE@DIMKFCHM@rtsp_send_play?5rtp?5port?5?$DN?5?$CFd?5ip?$DN@ 100832fc     rtsp_c.obj
 0002:0000a320       ??_C@_0DE@KNIGKDML@?$CL?$CL?$CL?$CL?$CL?$CL?$CL?$CL?$CL?$CL?5?5?5?5?5?5?5?5?5?5send_teardow@ 10083320     rtsp_c.obj
 0002:0000a354       ??_C@_0DN@BDKMDOEJ@?$CL?$CL?$CL?$CL?$CL?$CL?$CL?$CL?$CL?$CL?$CL?$CL?$CL?$CL?$CL?$CL?$CL?$CL?$CL?$CL?$CL?$CL?$CL?$CL?$CL?$CL?$CL?$CL?$CL?$CL?$CL?$CL@ 10083354     rtsp_c.obj
 0002:0000a394       ??_C@_0DN@FKBHAPDG@?$CL?$CL?$CL?$CL?$CL?$CL?$CL?$CL?$CL?$CL?$CL?$CL?$CL?$CL?$CL?$CL?5?5?5?5?5?5?5?5?5C?5?5?9?5?5S@ 10083394     rtsp_c.obj
 0002:0000a3d4       ??_C@_0DN@KBMDAKEH@?$CL?$CL?$CL?$CL?$CL?$CL?$CL?$CL?$CL?$CL?$CL?$CL?$CL?$CL?$CL?$CL?5?5?5?5?5?5?5send_getp@ 100833d4     rtsp_c.obj
 0002:0000a414       ??_C@_0DN@GLPCLBED@?$CL?$CL?$CL?$CL?$CL?$CL?$CL?$CL?$CL?$CL?$CL?$CL?$CL?$CL?$CL?$CL?5?5?5?5?5?5?5Get?5parmT@ 10083414     rtsp_c.obj
 0002:0000a454       ??_C@_0P@MCPDOLLL@handle?5err?5?$CFd?6?$AA@ 10083454     rtsp_c.obj
 0002:0000a464       ??_C@_0CA@JHAIHNLK@this?5session?5is?5still?5INVALID?5?6?$AA@ 10083464     rtsp_c.obj
 0002:0000a484       ??_C@_0CD@HCNMCIIA@?$FLclose?5seesion?$FN?5session?5socket?5?$CF@ 10083484     rtsp_c.obj
 0002:0000a4a8       ??_C@_0BL@DPNDHFKA@?$FLclose?5seesion?$FN?5socket?5?$CFd?6?$AA@ 100834a8     rtsp_c.obj
 0002:0000a4c4       ??_C@_0BM@OICJAACH@?$FLclose?5seesion?$FN?5?5Handle?5?$CFd?6?$AA@ 100834c4     rtsp_c.obj
 0002:0000a4e0       ??_C@_0BL@PFAFEMIO@?$FLrtsp_release?$FN?$CL?$CL?$CL?$CL?$CL?$CL?$CL?$CL?$CL?$CL?$CL?6?$AA@ 100834e0     rtsp_c.obj
 0002:0000a4fc       ??_C@_0CA@CAMFABAO@?$CL?$CL?$CL?$CL?$CL?$CL?$CL?$CLstack?5status?$CL?$CL?$CL?$CL?$CL?$CL?$CL?$CL?$CL?6?6?$AA@ 100834fc     rtsp_c.obj
 0002:0000a51c       ??_C@_0BA@MIHHBPNN@rtsp?5CB?5fun?5?$CFx?6?$AA@ 1008351c     rtsp_c.obj
 0002:0000a52c       ??_C@_0BO@NAFEHGIF@rtsp?5discorver?5local?5port?5?$CFd?6?$AA@ 1008352c     rtsp_c.obj
 0002:0000a54c       ??_C@_0BP@CKCMAPCE@rtsp?5discorver?5remote?5port?5?$CFd?6?$AA@ 1008354c     rtsp_c.obj
 0002:0000a56c       ??_C@_0CL@ICDDBBGA@?$CL?$CL?$CL?$CL?$CL?$CL?$CL?$CL?5rtsp?5session?5status?5?$CL?$CL?$CL@ 1008356c     rtsp_c.obj
 0002:0000a598       ??_C@_0BJ@KCIEJMGF@rtsp?5MAX?5session?5num?5?$CFd?6?$AA@ 10083598     rtsp_c.obj
 0002:0000a5b4       ??_C@_0BA@KLMFJHLH@rtsp?5session?$CFd?6?$AA@ 100835b4     rtsp_c.obj
 0002:0000a5c4       ??_C@_0BF@MJODPLKI@?$FLsession?$CFd?$FN?5URL?5?3?$CFs?6?$AA@ 100835c4     rtsp_c.obj
 0002:0000a5dc       ??_C@_0BK@GGHGCAFK@?$FLsession?$CFd?$FN?5Remote?5IP?5?$CFd?6?$AA@ 100835dc     rtsp_c.obj
 0002:0000a5f8       ??_C@_0BJ@ODIOENGF@?$FLsession?$CFd?$FN?5Msg?5sock?5?$CFd?6?$AA@ 100835f8     rtsp_c.obj
 0002:0000a614       ??_C@_0BO@GEMLKAFH@?$FLsession?$CFd?$FN?5Session?5State?5?$CFd?6?$AA@ 10083614     rtsp_c.obj
 0002:0000a634       ??_C@_0BK@EAPLAMKD@?$FLsession?$CFd?$FN?5SessionID?5?$CFs?6?$AA@ 10083634     rtsp_c.obj
 0002:0000a650       ??_C@_0BK@EHIMBGCP@?$FLsession?$CFd?$FN?5Rtsp?5port?5?$CFd?6?$AA@ 10083650     rtsp_c.obj
 0002:0000a66c       ??_C@_0DE@DNLELGN@?$FLsession?$CFd?$FN?5DataType?3?$CFd?5?5RTP?5por@ 1008366c     rtsp_c.obj
 0002:0000a6a0       ??_C@_0DO@NPNPJCOK@?$FLsession?$CFd?$FN?5DataType?3?$CFd?5Trans?5da@ 100836a0     rtsp_c.obj
 0002:0000a6e0       ??_C@_0CH@OLNEFOEA@?$CL?$CL?$CL?$CL?$CL?$CL?$CL?$CL?5rtsp?5dev?5status?5?$CL?$CL?$CL?$CL?$CL?$CL?$CL@ 100836e0     rtsp_c.obj
 0002:0000a708       ??_C@_0BB@JMMJFHID@rtsp?5dev?5num?5?$CFd?6?$AA@ 10083708     rtsp_c.obj
 0002:0000a71c       ??_C@_0BM@GNDAJBHG@rtsp?5dev?$CFd?5status?5Name?5?$CFs?6?5?$AA@ 1008371c     rtsp_c.obj
 0002:0000a738       ??_C@_0CF@BBCILKEO@MacAddr?5?$CFd?5?3?5?$CFd?5?3?5?$CFd?5?3?5?$CFd?5?3?5?$CFd?5?3@ 10083738     rtsp_c.obj
 0002:0000a760       ??_C@_0BF@MCBGCBKP@IP?5addr?5?$CFd?4?$CFd?4?$CFd?4?$CFd?6?$AA@ 10083760     rtsp_c.obj
 0002:0000a778       ??_C@_0BF@FOMJECNC@IP?5Mask?5?$CFd?4?$CFd?4?$CFd?4?$CFd?6?$AA@ 10083778     rtsp_c.obj
 0002:0000a790       ??_C@_08PKIBPMGP@DHCP?5?$CFd?6?$AA@ 10083790     rtsp_c.obj
 0002:0000a79c       ??_C@_0BI@FOLGNNEA@IP?5gateway?5?$CFd?4?$CFd?4?$CFd?4?$CFd?6?$AA@ 1008379c     rtsp_c.obj
 0002:0000a7b4       ??_C@_0BJ@FECMIFOM@DNS?5server1?5?$CFd?4?$CFd?4?$CFd?4?$CFd?6?$AA@ 100837b4     rtsp_c.obj
 0002:0000a7d0       ??_C@_0BJ@EFFBOPJF@DNS?5server2?5?$CFd?4?$CFd?4?$CFd?4?$CFd?6?$AA@ 100837d0     rtsp_c.obj
 0002:0000a7ec       ??_C@_02PHMGELLB@?6?6?$AA@ 100837ec     rtsp_c.obj
 0002:0000a7f0       ??_C@_0BE@OAIEBDEM@RTSP?50?40?41?520091202?$AA@ 100837f0     rtsp_common.obj
 0002:0000a804       ??_C@_03OFAPEBGM@?$CFs?6?$AA@ 10083804     rtsp_common.obj
 0002:0000a808       ??_C@_08BFBECIMB@15?337?310?$AA@ 10083808     rtsp_common.obj
 0002:0000a814       ??_C@_0BH@LGNGLDII@?5compile?5time?3?5?$CFs?0?$CFs?5?6?$AA@ 10083814     rtsp_common.obj
 0002:0000a82c       ??_C@_07MNEAFPJJ@rtspdbg?$AA@ 1008382c     rtsp_common.obj
 0002:0000a834       ??_C@_07FKKDABM@rtspver?$AA@ 10083834     rtsp_common.obj
 0002:0000a83c       ??_C@_08GPAFAGLE@rtsptype?$AA@ 1008383c     rtsp_common.obj
 0002:0000a848       ??_C@_08PCFDCIBA@rtsphelp?$AA@ 10083848     rtsp_common.obj
 0002:0000a854       ??_C@_07KCGJCMFA@rtstack?$AA@ 10083854     rtsp_common.obj
 0002:0000a85c       ??_C@_09HFMIDCAJ@rtsession?$AA@ 1008385c     rtsp_common.obj
 0002:0000a868       ??_C@_05IHLIADHG@rtdev?$AA@ 10083868     rtsp_common.obj
 0002:0000a870       ??_C@_06JIHIBEAL@rtsock?$AA@ 10083870     rtsp_common.obj
 0002:0000a878       ??_C@_07GJDGMOH@rtmedia?$AA@ 10083878     rtsp_common.obj
 0002:0000a880       ??_C@_0BG@HMNNDFOM@?$CFd?9?$CFd?9?$CFd?5?$CF2d?3?$CF2d?3?$CF2d?5?$AA@ 10083880     rtsp_common.obj
 0002:0000a898       ??_C@_0BA@HGGEMLCN@point?5is?5NULL?5?6?$AA@ 10083898     rtsp_media.obj
 0002:0000a8a8       ??_C@_0BG@NKAICJIM@pack?5is?5big?5audio?5?$CFd?6?$AA@ 100838a8     rtsp_media.obj
 0002:0000a8c0       ??_C@_0BG@MNOHCFLM@pack?5is?5too?5short?5?$CFd?6?$AA@ 100838c0     rtsp_media.obj
 0002:0000a8d8       ??_C@_0BK@NMMLIGBI@sendto?5keda?5faild?0ret?$DN?$CFd?6?$AA@ 100838d8     rtsp_media.obj
 0002:0000a8f4       ??_C@_0BM@IJOBJNKN@sendto?5keda?5faild?0errno?$DN?$CFd?6?$AA@ 100838f4     rtsp_media.obj
 0002:0000a910       ??_C@_0BF@EPGNOPGH@sendto?5keda?5?0ret?$DN?$CFd?6?$AA@ 10083910     rtsp_media.obj
 0002:0000a928       ??_C@_0BA@PIELPDKG@pack?5is?5big?5?$CFd?6?$AA@ 10083928     rtsp_media.obj
 0002:0000a938       ??_C@_0P@ECHOCPIK@?5send?5the?5sps?6?$AA@ 10083938     rtsp_media.obj
 0002:0000a948       ??_C@_0P@FNOFFFK@?5send?5the?5pps?6?$AA@ 10083948     rtsp_media.obj
 0002:0000a958       ??_C@_0P@DEAIKOIB@?5send?5the?5sei?6?$AA@ 10083958     rtsp_media.obj
 0002:0000a968       ??_C@_0BN@DBOBFPCL@ptMediaSock?9?$DOdwOldTimeStamp?6?$AA@ 10083968     rtsp_media.obj
 0002:0000a988       ??_C@_0CA@PCAOEDOO@ptMediaSock?9?$DOdwOldTimeStamp?$DN?$CFu?6?$AA@ 10083988     rtsp_media.obj
 0002:0000a9a8       ??_C@_0CB@ENLBAPLP@2ptMediaSock?9?$DOdwOldTimeStamp?$DN?$CFu?6@ 100839a8     rtsp_media.obj
 0002:0000a9cc       ??_C@_0BF@HGMFOJEM@?$CL?$CL?$CL?$CL?5?5wPayload?5?$DN?5?$CFu?6?$AA@ 100839cc     rtsp_media.obj
 0002:0000a9e4       ??_C@_0BP@CLGEFDDF@jpeg?5newTimeStamp?$DN?$CFx?0?$CFx?0?$CFx?0?$CFx?6?$AA@ 100839e4     rtsp_media.obj
 0002:0000aa04       ??_C@_0BO@MHCCOBBG@old?5seq?5?$CFu?0wPackLen?$DN?$CFu?0fd?$DN?$CFd?6?$AA@ 10083a04     rtsp_media.obj
 0002:0000aa24       ??_C@_0BM@PIHKKAMG@sendto?5adudio?5faild?0ret?$DN?$CFd?6?$AA@ 10083a24     rtsp_media.obj
 0002:0000aa40       ??_C@_0CA@CBOOGHOC@audio?5newTimeStamp?$DN?$CFx?0?$CFx?0?$CFx?0?$CFx?6?$AA@ 10083a40     rtsp_media.obj
 0002:0000aa60       ??_C@_0BP@DLCGLMAM@old?5seq?5?$CFu?0wPackLen?$DN?$CFu?0fd?$DN?$CFd?5?6?$AA@ 10083a60     rtsp_media.obj
 0002:0000aa80       ??_C@_0BK@KJHDBDAC@pack?5is?5big?5metadata?5?5?$CFd?6?$AA@ 10083a80     rtsp_media.obj
 0002:0000aa9c       ??_C@_0BH@LMDHJDFM@metadata?5send?5?5?$CFd?5?5?$CFx?6?$AA@ 10083a9c     rtsp_media.obj
 0002:0000aab4       ??_C@_0BO@BJDBJLGF@sendto?5metadata?5faild?0ret?$DN?$CFd?6?$AA@ 10083ab4     rtsp_media.obj
 0002:0000aad4       ??_C@_0BA@BNCDCGK@HardWareVersion?$AA@ 10083ad4     rtsp_msg.obj
 0002:0000aae4       ??_C@_09DKABBKJN@EncStream?$AA@ 10083ae4     rtsp_msg.obj
 0002:0000aaf0       ??_C@_0BB@HNCIFCOG@PTModuleFunction?$AA@ 10083af0     rtsp_msg.obj
 0002:0000ab04       ??_C@_0L@FGKAAPAF@Aud_Enable?$AA@ 10083b04     rtsp_msg.obj
 0002:0000ab10       ??_C@_0L@DOFKNENC@HDMIEnable?$AA@ 10083b10     rtsp_msg.obj
 0002:0000ab1c       ??_C@_0P@NFFBIJMP@NearLimitSetup?$AA@ 10083b1c     rtsp_msg.obj
 0002:0000ab2c       ??_C@_0BC@NGELBIBN@ShutterSpeedSetup?$AA@ 10083b2c     rtsp_msg.obj
 0002:0000ab40       ??_C@_0BC@HCOBIACD@ExposureModeSetup?$AA@ 10083b40     rtsp_msg.obj
 0002:0000ab54       ??_C@_0N@KNCCGNPJ@DayNightMode?$AA@ 10083b54     rtsp_msg.obj
 0002:0000ab64       ??_C@_07EGLKIEEN@Auc_ctl?$AA@ 10083b64     rtsp_msg.obj
 0002:0000ab6c       ??_C@_09DAPGLLEF@Direction?$AA@ 10083b6c     rtsp_msg.obj
 0002:0000ab78       ??_C@_0L@HHCABMIP@PresetCall?$AA@ 10083b78     rtsp_msg.obj
 0002:0000ab84       ??_C@_0L@IKJHOOJC@PresetSetl?$AA@ 10083b84     rtsp_msg.obj
 0002:0000ab90       ??_C@_07CBLNIOAD@NtpMode?$AA@ 10083b90     rtsp_msg.obj
 0002:0000ab98       ??_C@_0M@KDKGMKOH@TimeDisplay?$AA@ 10083b98     rtsp_msg.obj
 0002:0000aba4       ??_C@_0N@BOBCMCPF@TitleDisplay?$AA@ 10083ba4     rtsp_msg.obj
 0002:0000abb4       ??_C@_0BB@KEDJJIFI@WWW?9Authenticate?$AA@ 10083bb4     rtsp_msg.obj
 0002:0000abc8       ??_C@_09LOBALFEM@Transport?$AA@ 10083bc8     rtsp_msg.obj
 0002:0000abd4       ??_C@_07FFOFCADM@Session?$AA@ 10083bd4     rtsp_msg.obj
 0002:0000abdc       ??_C@_05MAGIBEFI@Scale?$AA@ 10083bdc     rtsp_msg.obj
 0002:0000abe4       ??_C@_08CMPMPKDA@RTP?9Info?$AA@ 10083be4     rtsp_msg.obj
 0002:0000abf0       ??_C@_05CFMCGLCK@Range?$AA@ 10083bf0     rtsp_msg.obj
 0002:0000abf8       ??_C@_06IBHNPBBJ@Public?$AA@ 10083bf8     rtsp_msg.obj
 0002:0000ac00       ??_C@_08KDOEBHGA@Location?$AA@ 10083c00     rtsp_msg.obj
 0002:0000ac0c       ??_C@_04IHAOMLEL@CSeq?$AA@ 10083c0c     rtsp_msg.obj
 0002:0000ac14       ??_C@_0N@MIBOGJKL@Content?9Base?$AA@ 10083c14     rtsp_msg.obj
 0002:0000ac24       ??_C@_0N@LAFFMKKA@Content?9Type?$AA@ 10083c24     rtsp_msg.obj
 0002:0000ac34       ??_C@_0P@HOJGPHBA@Content?9Length?$AA@ 10083c34     rtsp_msg.obj
 0002:0000ac44       ??_C@_09LPCHGGLO@Bandwidth?$AA@ 10083c44     rtsp_msg.obj
 0002:0000ac50       ??_C@_0O@NAFGPKMI@Authorization?$AA@ 10083c50     rtsp_msg.obj
 0002:0000ac60       ??_C@_06MDEHPNLG@Accept?$AA@ 10083c60     rtsp_msg.obj
 0002:0000ac68       ??_C@_07KDKMIPIP@OPTIONS?$AA@ 10083c68     rtsp_msg.obj
 0002:0000ac70       ??_C@_0O@GCENIMNJ@GET_PARAMETER?$AA@ 10083c70     rtsp_msg.obj
 0002:0000ac80       ??_C@_0O@BNFDDPKO@SET_PARAMETER?$AA@ 10083c80     rtsp_msg.obj
 0002:0000ac90       ??_C@_08JNACAMMP@TEARDOWN?$AA@ 10083c90     rtsp_msg.obj
 0002:0000ac9c       ??_C@_05DIAHPDGL@PAUSE?$AA@ 10083c9c     rtsp_msg.obj
 0002:0000aca4       ??_C@_04MKCNCBEG@PLAY?$AA@ 10083ca4     rtsp_msg.obj
 0002:0000acac       ??_C@_05MAJHNKMG@SETUP?$AA@ 10083cac     rtsp_msg.obj
 0002:0000acb4       ??_C@_08DKNLJHMJ@DESCRIBE?$AA@ 10083cb4     rtsp_msg.obj
 0002:0000acc0       ??_C@_08HKGMJBDL@?$CFs?3?5?$CFs?$AN?6?$AA@ 10083cc0     rtsp_msg.obj
 0002:0000acd0       ??_C@_0EI@OFGNNOIE@?$CFs?3?5Digest?5username?$DN?$CC?$CFs?$CC?0realm?$DN?$CC@ 10083cd0     rtsp_msg.obj
 0002:0000ad18       ??_C@_08LHKCPOBN@?$CFs?3?5?$CFd?$AN?6?$AA@ 10083d18     rtsp_msg.obj
 0002:0000ad24       ??_C@_0BA@EDPCFNIG@text?1parameters?$AA@ 10083d24     rtsp_msg.obj
 0002:0000ad34       ??_C@_09EEOKBMAP@?$CFs?3?5?$CFs?1?$AN?6?$AA@ 10083d34     rtsp_msg.obj
 0002:0000ad40       ??_C@_05KBEOJPB@?$CFd?4?$CFd?$AA@ 10083d40     rtsp_msg.obj
 0002:0000ad48       ??_C@_0BE@LHMCNPKN@Range?3?5npt?$DN0?4000?9?$AN?6?$AA@ 10083d48     rtsp_msg.obj
 0002:0000ad5c       ??_C@_0CL@JEPMAECE@?$CFs?3?5url?$DN?$CFs?1trackID?$DN?$CFu?$DLseq?$DN?$CFhu?$DLrt@ 10083d5c     rtsp_msg.obj
 0002:0000ad88       ??_C@_0FA@IIOJBNKN@?$CFs?3?5url?$DN?$CFs?1trackID?$DN?$CFu?$DLseq?$DN?$CFhu?$DLrt@ 10083d88     rtsp_msg.obj
 0002:0000add8       ??_C@_0P@PBELGCHP@?$CFs?3?5?9?$CFu?4?$CF04u?$AN?6?$AA@ 10083dd8     rtsp_msg.obj
 0002:0000ade8       ??_C@_0O@IEALMLLI@?$CFs?3?5?$CFu?4?$CF04u?$AN?6?$AA@ 10083de8     rtsp_msg.obj
 0002:0000adf8       ??_C@_0BL@DEOAMPFB@ptHead?9?$DOtSessionID?4pch?$DN?$CFs?6?$AA@ 10083df8     rtsp_msg.obj
 0002:0000ae14       ??_C@_0M@BLMAJMLK@destination?$AA@ 10083e14     rtsp_msg.obj
 0002:0000ae20       ??_C@_06OEKOLKIL@source?$AA@ 10083e20     rtsp_msg.obj
 0002:0000ae28       ??_C@_0M@FJAHMBHH@server?9port?$AA@ 10083e28     rtsp_msg.obj
 0002:0000ae34       ??_C@_04OHIABJNF@ssrc?$AA@ 10083e34     rtsp_msg.obj
 0002:0000ae3c       ??_C@_0CG@CKBFEFFF@?$CFs?3?5RTP?1AVP?1TCP?$DL?$CFs?$DLinterleaved?$DN?$CF@ 10083e3c     rtsp_msg.obj
 0002:0000ae64       ??_C@_0BA@NNEDCPGC@?$CFs?3?5RTP?1AVP?$DL?$CFs?$DL?$AA@ 10083e64     rtsp_msg.obj
 0002:0000ae74       ??_C@_0BA@GDABOLMC@destination?$DN?$CFs?$DL?$AA@ 10083e74     rtsp_msg.obj
 0002:0000ae84       ??_C@_0L@MBCKOHPA@source?$DN?$CFs?$DL?$AA@ 10083e84     rtsp_msg.obj
 0002:0000ae90       ??_C@_0BD@EAEMJKEB@client_port?$DN?$CFd?9?$CFd?$DL?$AA@ 10083e90     rtsp_msg.obj
 0002:0000aea4       ??_C@_0BD@OAAPFDOF@server_port?$DN?$CFd?9?$CFd?$DL?$AA@ 10083ea4     rtsp_msg.obj
 0002:0000aeb8       ??_C@_08KDMICEMO@ssrc?$DN?$CFs?$DL?$AA@ 10083eb8     rtsp_msg.obj
 0002:0000aec4       ??_C@_0L@FAFADBEA@pchStr?$DN?$CFs?6?$AA@ 10083ec4     rtsp_msg.obj
 0002:0000aed0       ??_C@_05NIKDGMHP@Basic?$AA@ 10083ed0     rtsp_msg.obj
 0002:0000aed8       ??_C@_07FOAALMCN@pchStr?6?$AA@ 10083ed8     rtsp_msg.obj
 0002:0000aee0       ??_C@_06PFDABONH@basic?6?$AA@ 10083ee0     rtsp_msg.obj
 0002:0000aee8       ??_C@_06MHCCOJOO@Digest?$AA@ 10083ee8     rtsp_msg.obj
 0002:0000aef0       ??_C@_07LNJKAFBM@Digest?6?$AA@ 10083ef0     rtsp_msg.obj
 0002:0000aef8       ??_C@_08LDENPILD@?$CFs?3?$CFs?3?$CFs?$AA@ 10083ef8     rtsp_msg.obj
 0002:0000af04       ??_C@_05CCMOGDN@?$CFs?3?$CFs?$AA@ 10083f04     rtsp_msg.obj
 0002:0000af10       ??_C@_0EB@NFPJKBDG@ABCDEFGHIJKLMNOPQRSTUVWXYZabcdef@ 10083f10     publicfun.obj
 0002:0000af54       ??_C@_0N@KKFMGPNL@response?$DN?$CFs?6?$AA@ 10083f54     rtsp_msg.obj
 0002:0000af64       ??_C@_0BL@GGKIABBK@Authorization?3?5Basic?5?$CFs?5?$AN?6?$AA@ 10083f64     rtsp_msg.obj
 0002:0000af80       ??_C@_08INLAJGJI@line?$DN?$CFs?6?$AA@ 10083f80     rtsp_msg.obj
 0002:0000af90       ??_C@_0FH@KANEGNIK@Authorization?3?5Digest?5username?$DN?$CC@ 10083f90     rtsp_msg.obj
 0002:0000afe8       ??_C@_0CH@EJANLECO@ptHead?9?$DOachuser?$DN?$CFs?0ptHead?9?$DOachpa@ 10083fe8     rtsp_msg.obj
 0002:0000b010       ??_C@_02BFICIOJL@ON?$AA@   10084010     rtsp_msg.obj
 0002:0000b014       ??_C@_03MPPIHBHJ@OFF?$AA@  10084014     rtsp_msg.obj
 0002:0000b018       ??_C@_05PLKILNHI@White?$AA@ 10084018     rtsp_msg.obj
 0002:0000b020       ??_C@_0M@OCFGOPFL@TitleAttrib?$AA@ 10084020     rtsp_msg.obj
 0002:0000b02c       ??_C@_0BA@GCANPEFJ@?$CFs?3?5?$CFs?0?5?$CFd?0?$CFd?$AN?6?$AA@ 1008402c     rtsp_msg.obj
 0002:0000b03c       ??_C@_09NFKCOGEA@TitleChar?$AA@ 1008403c     rtsp_msg.obj
 0002:0000b048       ??_C@_0L@EKADBKBI@YYYY?9MM?9DD?$AA@ 10084048     rtsp_msg.obj
 0002:0000b054       ??_C@_0L@NCKLHLHL@TimeFormat?$AA@ 10084054     rtsp_msg.obj
 0002:0000b060       ??_C@_08NPMGHEME@TimeMode?$AA@ 10084060     rtsp_msg.obj
 0002:0000b06c       ??_C@_0L@OLKMOBKL@TimeAttrib?$AA@ 1008406c     rtsp_msg.obj
 0002:0000b078       ??_C@_09EJEOJAEA@NtpServer?$AA@ 10084078     rtsp_msg.obj
 0002:0000b084       ??_C@_07DBBMCABH@DstZone?$AA@ 10084084     rtsp_msg.obj
 0002:0000b08c       ??_C@_07KJABHPPD@DstTime?$AA@ 1008408c     rtsp_msg.obj
 0002:0000b094       ??_C@_0BI@GKLBJAIL@?$CFs?3?5?$CFd?9?$CFd?9?$CFd?5?$CFd?3?$CFd?3?$CFd?$AN?6?$AA@ 10084094     rtsp_msg.obj
 0002:0000b0ac       ??_C@_04LLEBNMDN@?$CFs?$AN?6?$AA@ 100840ac     rtsp_msg.obj
 0002:0000b0b4       ??_C@_09LGCDFDGI@PresetSet?$AA@ 100840b4     rtsp_msg.obj
 0002:0000b0c0       ??_C@_0M@MNHCOJOI@?$CFs?3?5?$CFs?0?$CFd?$AN?6?$AA@ 100840c0     rtsp_msg.obj
 0002:0000b0cc       ??_C@_02HNLLPFKA@up?$AA@   100840cc     rtsp_msg.obj
 0002:0000b0d0       ??_C@_04JMOKAGMG@down?$AA@ 100840d0     rtsp_msg.obj
 0002:0000b0d8       ??_C@_07DJLFPIMG@left?9up?$AA@ 100840d8     rtsp_msg.obj
 0002:0000b0e0       ??_C@_08IBLOKGGP@right?9up?$AA@ 100840e0     rtsp_msg.obj
 0002:0000b0ec       ??_C@_09NBPMPCFE@left?9down?$AA@ 100840ec     rtsp_msg.obj
 0002:0000b0f8       ??_C@_0L@CCOKDBAM@right?9down?$AA@ 100840f8     rtsp_msg.obj
 0002:0000b104       ??_C@_04GADAOEHK@tele?$AA@ 10084104     rtsp_msg.obj
 0002:0000b10c       ??_C@_04HKCCIOCO@zoom?$AA@ 1008410c     rtsp_msg.obj
 0002:0000b114       ??_C@_04GDFFHAKK@wide?$AA@ 10084114     rtsp_msg.obj
 0002:0000b11c       ??_C@_04EHDLHMJM@near?$AA@ 1008411c     rtsp_msg.obj
 0002:0000b124       ??_C@_03JEOKDCFP@far?$AA@  10084124     rtsp_msg.obj
 0002:0000b128       ??_C@_04LBDCJOFB@Auto?$AA@ 10084128     rtsp_msg.obj
 0002:0000b130       ??_C@_06HOFJPEPJ@Manual?$AA@ 10084130     rtsp_msg.obj
 0002:0000b138       ??_C@_08PFCPBLHH@DayNight?$AA@ 10084138     rtsp_msg.obj
 0002:0000b144       ??_C@_0BC@CHJJDOHA@Aperture?5priority?$AA@ 10084144     rtsp_msg.obj
 0002:0000b158       ??_C@_0BB@IMBEAPPE@Shuuter?5priority?$AA@ 10084158     rtsp_msg.obj
 0002:0000b16c       ??_C@_0N@EFPPDLIG@AGC?5priority?$AA@ 1008416c     rtsp_msg.obj
 0002:0000b17c       ??_C@_0L@LBGOPBGN@Prpgram?5AE?$AA@ 1008417c     rtsp_msg.obj
 0002:0000b188       ??_C@_0M@EFMCIOHN@Prpgram?5AE?$CL?$AA@ 10084188     rtsp_msg.obj
 0002:0000b194       ??_C@_0M@LLDPEMMC@Prpgram?5AER?$AA@ 10084194     rtsp_msg.obj
 0002:0000b1a0       ??_C@_0N@DKBGBLJ@Prpgram?5AER?$CL?$AA@ 100841a0     rtsp_msg.obj
 0002:0000b1b0       ??_C@_0L@ILBINJPL@?$CFs?3?51?1?$CFd?$AN?6?$AA@ 100841b0     rtsp_msg.obj
 0002:0000b1bc       ??_C@_0L@GIJNMHIL@?$CFs?3?5?$CFdmm?$AN?6?$AA@ 100841bc     rtsp_msg.obj
 0002:0000b1c8       ??_C@_0M@GAJPHBCN@AudioVolume?$AA@ 100841c8     rtsp_msg.obj
 0002:0000b1d4       ??_C@_0P@PFFEDMMD@Aud_SampleRate?$AA@ 100841d4     rtsp_msg.obj
 0002:0000b1e4       ??_C@_0P@BEOPNLI@Aud_EncodeType?$AA@ 100841e4     rtsp_msg.obj
 0002:0000b1f4       ??_C@_0M@LKGAMGMB@Aud_BitRate?$AA@ 100841f4     rtsp_msg.obj
 0002:0000b200       ??_C@_07EEEBIHMJ@?$CFs_?$CFd?$AN?6?$AA@ 10084200     rtsp_msg.obj
 0002:0000b208       ??_C@_0O@HCAOBPDF@EncResolution?$AA@ 10084208     rtsp_msg.obj
 0002:0000b218       ??_C@_0L@PGLJKCMO@EncBitRate?$AA@ 10084218     rtsp_msg.obj
 0002:0000b224       ??_C@_0N@DBKPAIBE@EncFrameRate?$AA@ 10084224     rtsp_msg.obj
 0002:0000b234       ??_C@_06FPHCOOMF@EncGOP?$AA@ 10084234     rtsp_msg.obj
 0002:0000b23c       ??_C@_0N@DEFJFFFB@GOPStructure?$AA@ 1008423c     rtsp_msg.obj
 0002:0000b24c       ??_C@_0BA@GJEMACKO@FirmWareVersion?$AA@ 1008424c     rtsp_msg.obj
 0002:0000b25c       ??_C@_09NMGEIOBE@CamModule?$AA@ 1008425c     rtsp_msg.obj
 0002:0000b268       ??_C@_08PMGHJHHA@Aperture?$AA@ 10084268     rtsp_msg.obj
 0002:0000b274       ??_C@_07BJNICJDI@Shutter?$AA@ 10084274     rtsp_msg.obj
 0002:0000b27c       ??_C@_03FDJCJIDI@AGC?$AA@  1008427c     rtsp_msg.obj
 0002:0000b280       ??_C@_0BA@MBDLMGFI@?$CFs?5?$CFs?5RTSP?1?$CFs?$AN?6?$AA@ 10084280     rtsp_msg.obj
 0002:0000b290       ??_C@_06NPGDLJKE@rtpmap?$AA@ 10084290     rtsp_msg.obj
 0002:0000b298       ??_C@_07MMBOFDEG@control?$AA@ 10084298     rtsp_msg.obj
 0002:0000b2a0       ??_C@_05KNIAAKIP@audio?$AA@ 100842a0     rtsp_msg.obj
 0002:0000b2a8       ??_C@_0M@MBDKLJIJ@application?$AA@ 100842a8     rtsp_msg.obj
 0002:0000b2b4       ??_C@_0BG@PBBNDDH@len?3?$CFud?5?$DOwBigSize?3?$CFu?6?$AA@ 100842b4     rtsp_msg.obj
 0002:0000b2d0       ??_C@_0EB@MEONBCBP@?9?9?9?9?9?9?9?9?9?9?9?9?9?9?9?9?9?$CL?$CL?$CL?$CL?5rs_sdp_par@ 100842d0     rtsp_msg.obj
 0002:0000b318       ??_C@_0EP@MOBNPKNI@aaaaaaaaaaaaaaaaaaaaaa?5?$CL?$CL?5?5rs_sd@ 10084318     rtsp_msg.obj
 0002:0000b368       ??_C@_0EK@CDNFLCK@aaaaaaaaaaaaaaaaaaaa?5?$CL?$CL?5rs_sdp_p@ 10084368     rtsp_msg.obj
 0002:0000b3b8       ??_C@_0EG@EELBHKPH@mmmmmmmmmmmmmmmmmmmmmmm?5?5?$CL?$CL?$CL?$CL?5rs@ 100843b8     rtsp_msg.obj
 0002:0000b400       ??_C@_0HI@DMFKCGGC@mmmmmmmmmmmmmmmmmmmmmmm?5?5?$CL?$CL?$CL?$CL?5rs@ 10084400     rtsp_msg.obj
 0002:0000b478       ??_C@_0DG@BOECGKKL@?9?9?9?9?9?9?9?9?9?9?9?9?9?9?9?9?9sdp?5msg?5parse?5e@ 10084478     rtsp_msg.obj
 0002:0000b4b0       ??_C@_0DJ@FAJLPPIH@?9?9?9?9?9?9?9?9?9?9?9?9?9?9?9?9?9?$CL?$CL?$CL?$CL?$CL?5?5rs_rsp_p@ 100844b0     rtsp_msg.obj
 0002:0000b4ec       ??_C@_02DKCKHKLB@v?$DN?$AA@ 100844ec     rtsp_msg.obj
 0002:0000b4f0       ??_C@_0DK@DGDLEOLO@?9?9?9?9?9?9?9?9?9?9?9?9?9?9?9?9?9?$CL?$CL?$CL?$CL?5rs_sdp_par@ 100844f0     rtsp_msg.obj
 0002:0000b52c       ??_C@_0DH@OKHANAHO@?9?9?9?9?9?9?9?9?9?9?9?9?9?9?9?9?9?$CL?$CL?$CL?$CL?5rs_sdp_par@ 1008452c     rtsp_msg.obj
 0002:0000b564       ??_C@_0DF@INGNEMEE@?9?9?9?9?9?9?9?9?9?9?9?9?9?9?9?9?9?$CL?$CL?$CL?$CL?5rs_rsp_par@ 10084564     rtsp_msg.obj
 0002:0000b59c       ??_C@_0CE@HBOFHJIK@error?3?5getpeername?5failed?4?5nRet?5@ 1008459c     rtsp_msg.obj
 0002:0000b5c0       ??_C@_07KGHAPMJG@rtsp?3?1?1?$AA@ 100845c0     rtsp_msg.obj
 0002:0000b5c8       ??_C@_07FGNGINGO@RTSP?3?1?1?$AA@ 100845c8     rtsp_msg.obj
 0002:0000b5d0       ??_C@_0BG@DOHBHLPO@req_line_gen?5pUrl?$DN?$CFs?6?$AA@ 100845d0     rtsp_msg.obj
 0002:0000b5e8       ??_C@_09KJIEJLOF@rtsp?3?1?1?$CFs?$AA@ 100845e8     rtsp_msg.obj
 0002:0000b5f4       ??_C@_09JPOCPNJG@parm?5err?6?$AA@ 100845f4     rtsp_msg.obj
 0002:0000b600       ??_C@_0BF@GENAJLHD@rs_req_send?5pbuf?$DN?$CFs?6?$AA@ 10084600     rtsp_msg.obj
 0002:0000b618       ??_C@_0BF@EGNMBIKB@session?3?$CFs?0nRet?3?5?$CFd?6?$AA@ 10084618     rtsp_msg.obj
 0002:0000b630       ??_C@_0BG@KAMJHNMI@2session?3?$CFs?0nRet?3?5?$CFd?6?$AA@ 10084630     rtsp_msg.obj
 0002:0000b648       ??_C@_0CI@DNJBGFPC@?5set?5socket?5in?5nonblocking?5mode?5@ 10084648     rtsp_sock.obj
 0002:0000b670       ??_C@_0BI@KNAHLHBA@?5connect?5successfully?$CB?6?$AA@ 10084670     rtsp_sock.obj
 0002:0000b688       ??_C@_08CHNBOJOA@timeout?6?$AA@ 10084688     rtsp_sock.obj
 0002:0000b694       ??_C@_0BD@GFOPJAMM@?5connect?5timeout?$CB?6?$AA@ 10084694     rtsp_sock.obj
 0002:0000b6a8       ??_C@_0BH@HEADHJA@?5connect?5failed?5?$FL?$CFs?$FN?$CB?6?$AA@ 100846a8     rtsp_sock.obj
 0002:0000b6c0       ??_C@_0CF@MALPHEFI@?5set?5socket?5in?5blocking?5mode?5err@ 100846c0     rtsp_sock.obj
 0002:0000b6e8       ??_C@_0BK@NJJKHHDL@rs_close?5close?5socket?5?$CFd?6?$AA@ 100846e8     rtsp_sock.obj
 0002:0000b704       ??_C@_0BP@GDDJDMNJ@create?5socket?5error?4?5?$FL?$CFd?$FN?3?5?$CFs?6?$AA@ 10084704     rtsp_sock.obj
 0002:0000b724       ??_C@_0BI@FHBEPLJE@?$FLrs_check_msg?$FN?5bSDP?5?$CFd?6?$AA@ 10084724     rtsp_sock.obj
 0002:0000b73c       ??_C@_08BIGFLAFE@pBuf?5?$CFs?6?$AA@ 1008473c     rtsp_sock.obj
 0002:0000b748       ??_C@_07GFHPFMDF@TEST?51?6?$AA@ 10084748     rtsp_sock.obj
 0002:0000b750       ??_C@_07GHDJOCGM@TEST?52?6?$AA@ 10084750     rtsp_sock.obj
 0002:0000b758       ??_C@_06DAENNINM@200?5OK?$AA@ 10084758     rtsp_sock.obj
 0002:0000b760       ??_C@_07GGPLIIFL@TEST?53?6?$AA@ 10084760     rtsp_sock.obj
 0002:0000b768       ??_C@_0BD@HPNCPBKE@test?5next_line?5?$CFs?6?$AA@ 10084768     rtsp_sock.obj
 0002:0000b77c       ??_C@_0BC@DFABDFJL@TEST?5nota?5200?5OK?6?$AA@ 1008477c     rtsp_sock.obj
 0002:0000b790       ??_C@_0BE@NDMPKBGO@test?5next_line3?5?$CFs?6?$AA@ 10084790     rtsp_sock.obj
 0002:0000b7a4       ??_C@_07GCHGPEOJ@TEST?55?6?$AA@ 100847a4     rtsp_sock.obj
 0002:0000b7ac       ??_C@_0CA@NEBPCLMJ@TEST?5I?5?5will?5get?5a?5DESCRBE?5RSP?6?$AA@ 100847ac     rtsp_sock.obj
 0002:0000b7cc       ??_C@_0BO@CELIDPOD@TEST?5I?5?5will?5get?5a?5OTHER?5RSP?6?$AA@ 100847cc     rtsp_sock.obj
 0002:0000b7ec       ??_C@_0BI@BAEFGHGI@recv?5ret?5?$CFd?5dwIndex?5?$CFd?6?$AA@ 100847ec     rtsp_sock.obj
 0002:0000b804       ??_C@_0DK@BOPOECMM@recv?$CI?$CJ?5return?5?$CFd?0?5so?5consider?5th@ 10084804     rtsp_sock.obj
 0002:0000b840       ??_C@_0BC@MDLMMNLA@get?5the?5rn?5flag?5?6?$AA@ 10084840     rtsp_sock.obj
 0002:0000b854       ??_C@_04OLCAMBAB@RTSP?$AA@ 10084854     rtsp_sock.obj
 0002:0000b85c       ??_C@_0BD@HKBDMKHK@get?5the?5rtsp?5flag?6?$AA@ 1008485c     rtsp_sock.obj
 0002:0000b870       ??_C@_0BE@CMIKALEH@can?8t?5get?5rn?5flag?5?6?$AA@ 10084870     rtsp_sock.obj
 0002:0000b884       ??_C@_0BI@NNHNOCHM@try?5count?5?$CFd?5return?5?91?6?$AA@ 10084884     rtsp_sock.obj
 0002:0000b89c       ??_C@_0CD@JIPMENCK@dwIndex?5?$CFd?$DORECV_BUF_LEN?5return?5?9@ 1008489c     rtsp_sock.obj
 0002:0000b8c0       ??_C@_0DE@BALPKBBG@?$FLrs_recv?$FN?5wCh0?5?$DN?5?$CFd?5?0wCh1?5?$DN?5?$CFd?0w@ 100848c0     rtsp_sock.obj
 0002:0000b8f4       ??_C@_0BH@CGOOADPL@rs_msg_recv?5return?5?$CFd?6?$AA@ 100848f4     rtsp_sock.obj
 0002:0000b90c       ??_C@_0CD@PPHNPFC@recv?$CI?$CJ?5return?5?$CFd?0?5that?5socket?5?$CFd@ 1008490c     rtsp_sock.obj
 0002:0000b930       ??_C@_0BD@DNAJPDIF@recv?$CI?$CJ?5return?5?$CFs?5?6?$AA@ 10084930     rtsp_sock.obj
 0002:0000b944       ??_C@_0M@JIFGDLDO@__LINE__?$CFd?6?$AA@ 10084944     rtsp_sock.obj
 0002:0000b950       ??_C@_0EG@KKLDAIEG@recv?$CI?$CJ?5return?5?$CFd?0?5?5consider?5that@ 10084950     rtsp_sock.obj
 0002:0000b998       ??_C@_0BL@PFEBMDKC@?$FLrs_recv?$FN?5close?5socket?5?$CFd?6?$AA@ 10084998     rtsp_sock.obj
 0002:0000b9b4       ??_C@_0BH@IOPPKCCN@recv?5nRet?$DN?$CFd?0nSock?$DN?$CFd?6?$AA@ 100849b4     rtsp_sock.obj
 0002:0000b9cc       ??_C@_0CA@DFKEHGEM@errno?$DN?$CFd?0recv?5nRet?$DN?$CFd?0nSock?$DN?$CFd?6?$AA@ 100849cc     rtsp_sock.obj
 0002:0000b9ec       ??_C@_0L@BHGLGLC@mode?53?5?$CFs?6?$AA@ 100849ec     rtsp_sock.obj
 0002:0000b9f8       ??_C@_0BC@ELOMPPOI@dwLen?3?$CFd?5msg?3?$CFs?5?6?$AA@ 100849f8     rtsp_sock.obj
 0002:0000ba0c       ??_C@_0CL@LMIFDKAD@?$CK?$CK?$CK?$CK?$CK?$CK?$CK?$CK?$CK?$CK?$CK?$CK?5nRet?3?$CFd?5pBuf?$FL?$CFd?$FN?3?$CFx@ 10084a0c     rtsp_sock.obj
 0002:0000ba38       ??_C@_0DD@OFEHHOIO@?$FLrtsp_deal_rtp?$FN?5this?5is?5not?5a?5IN@ 10084a38     rtsp_sock.obj
 0002:0000ba6c       ??_C@_0DC@NPPDBBIF@?$FLrtsp_deal_rtp?$FN?5this?5is?5not?5a?5IN@ 10084a6c     rtsp_sock.obj
 0002:0000baa0       ??_C@_0DJ@PFIAKIPA@?$FL?$FN?5?$CL?$CL?$CL?$CL?$CL?5interlance?5?$DN?5?$CFd?5wPt?5?$DN?5?$CF@ 10084aa0     rtsp_sock.obj
 0002:0000badc       ??_C@_0DC@MBPMCMAL@?$FLmetadata?5rtsp_deal_rtp?$FN?5wPt?5?$DN?5?$CF@ 10084adc     rtsp_sock.obj
 0002:0000bb10       ??_C@_0DD@OHABMANH@?$FLrtsp_deal_rtp?$FN?5this?5is?5not?5a?5IN@ 10084b10     rtsp_sock.obj
 0002:0000bb44       ??_C@_0DC@GLPHCNPM@consider?5that?5socket?5?$CFd?5is?5close@ 10084b44     rtsp_sock.obj
 0002:0000bb78       ??_C@_0BD@CMFBOIOI@send?$CI?$CFd?$CJ?5?$CFd?5bytes?6?$AA@ 10084b78     rtsp_sock.obj
 0002:0000bb8c       ??_C@_0BI@MOLGLNHN@mediasock?5create?5faild?6?$AA@ 10084b8c     rtsp_sock.obj
 0002:0000bba4       ??_C@_0BE@CGGBFJBG@RTSP?5?$LL?X?$LE?$KL?$LC?N?J?$PN?$LE?m?N?s?$KD?$KB?$AA@ 10084ba4     rtspwraper.obj
 0002:0000bbb8       ??_C@_01KMDKNFGN@?1?$AA@   10084bb8     rtspwraper.obj
 0002:0000bbc0       ??_C@_0EO@PFCCGPDB@RTSP?$CIRTSP_EVENT_DESCRIBE_RSP?$CJ?3rt@ 10084bc0     rtspwraper.obj
 0002:0000bc10       ??_C@_0EL@ONBJPKDB@RTSP?$CIRTSP_EVENT_SETUP_RSP?$CJ?3rtsp_@ 10084c10     rtspwraper.obj
 0002:0000bc60       ??_C@_0EA@KGEAPLFC@RTSP?$CIRTSP_EVENT_SETUP_RSP?$CJ?3rtsp_@ 10084c60     rtspwraper.obj
 0002:0000bca4       ??_7CRtspWrapper@@6B@      10084ca4     rtspwraper.obj
 0002:0000bcac       ??_7CRtspWrapperMeta@@6B@  10084cac     rtspwrapermeta.obj
 0002:0000bcb0       ??_C@_0BD@KBPEGPIF@begingthread?5faild?$AA@ 10084cb0     threadbase.obj
 0002:0000bcc4       ??_C@_0CC@HGGPBDAB@CBaseThread?3?3Pause?$CI?$CJ?5Handle?5?$DN?$DN?5?$CF@ 10084cc4     threadbase.obj
 0002:0000bce8       ??_C@_0CD@MOKHNAOG@CBaseThread?3?3Resume?$CI?$CJ?5Handle?5?$DN?$DN?5@ 10084ce8     threadbase.obj
 0002:0000bd0c       ??_C@_0CJ@CLHIAECD@CBaseThread?3?3Exit?$CI?$CJ?5m_hTheadHand@ 10084d0c     threadbase.obj
 0002:0000bd38       ??_C@_0CI@DPAFDFJD@CBaseThread?3?3Exit?$CI?$CJ?5m_hExitHandl@ 10084d38     threadbase.obj
 0002:0000bd60       ??_C@_0CI@BDBEJDMH@CBaseThread?3?3Exit?$CI?$CJ?5m_hStopHandl@ 10084d60     threadbase.obj
 0002:0000bd88       ??_C@_0BC@GADPHFAH@?$LE?r?$LP?$KK?I?$PN?$LM?$LG?N?D?$LM?$PO?J?$KH?$LA?$NM?$CB?$AA@ 10084d88     uploadsys.obj
 0002:0000bd9c       ??_C@_0BN@FEEODBHK@?$LG?A?H?$KB?I?$PN?$LM?$LG?N?D?$LM?$PO?G?$LA192?$LI?v?W?V?$LN?Z?J?$KH?$LA?$NM?$CB?$AA@ 10084d9c     uploadsys.obj
 0002:0000bdbc       ??_C@_0BP@OGHKIDDN@?$LH?$KC?K?M?P?$KD?Q?i?I?$PN?$LM?$LG?$LA?$PM?G?$LA192?$LI?v?W?V?$LN?Z?J?$KH?$LA?$NM?$CB?$AA@ 10084dbc     uploadsys.obj
 0002:0000bddc       ??_C@_0CC@KFEJELKJ@cgixml?3?3analyze?5DeviceInfo?5faile@ 10084ddc     uploadsys.obj
 0002:0000be00       ??_C@_0BN@IPLJLBMG@cgisystem?3?3bPrepared?5succeed?$AA@ 10084e00     uploadsys.obj
 0002:0000be20       ??_C@_0CL@HFGDGELK@?O?$LF?M?$LD?I?$PN?$LM?$LGSysUpGradeThreadProc?3?W?$LM?$LB@ 10084e20     uploadsys.obj
 0002:0000be4c       ??_C@_0CK@HPFGGEBB@?1?1kdsapi?1?1system?1?1upgrade?1?1uploa@ 10084e4c     uploadsys.obj
 0002:0000be78       ??_C@_0CK@LOHKFLPI@cginormal?3?3Build_HttpHeader_Uplo@ 10084e78     uploadsys.obj
 0002:0000bea4       ??_C@_0CH@LOBPIOND@?I?$PN?$LM?$LG?$LA?$PM?I?O?$LE?$KL?$LD?I?$LJ?$KG?$CB?I?h?$LB?$LI?U?$PN?T?Z?V?X?F?t?0?G?k?I?T@ 10084ea4     uploadsys.obj
 0002:0000becc       ??_C@_0CH@LLOBIHI@?I?$PN?$LM?$LG?$LA?$PM?I?O?$LE?$KL?J?$KH?$LA?$NM?$CB?I?h?$LB?$LI?U?$PN?T?Z?V?X?F?t?0?G?k?I?T@ 10084ecc     uploadsys.obj
 0002:0000bef4       ??_C@_0CF@LHIKLOH@?O?$LF?M?$LD?I?$PN?$LM?$LG?J?$KH?$LA?$NM?$CB?I?h?$LB?$LI?U?$PN?T?Z?V?X?F?t?0?G?k?I?T?$LK?r@ 10084ef4     uploadsys.obj
 0002:0000bf1c       ??_C@_0CF@LONJDNEM@?O?$LF?M?$LD?I?$PN?$LM?$LG?$LD?I?$LJ?$KG?$CB?I?h?$LB?$LI?U?$PN?T?Z?V?X?F?t?0?G?k?I?T?$LK?r@ 10084f1c     uploadsys.obj
 0002:0000bf44       ??_C@_07CNJAEGEJ@7?41?43?41?$AA@ 10084f44     vermanager.obj
 0002:0000bf50       __real@3fe0000000000000    10084f50      CIL library: CIL module
 0002:0000bf58       __real@4059000000000000    10084f58      CIL library: CIL module
 0002:0000bf60       __real@41f0000000000000    10084f60      CIL library: CIL module
 0002:0000bf68       __real@4f800000            10084f68      CIL library: CIL module
 0002:0000bf70       __load_config_used         10084f70     MSVCRT:loadcfg.obj
 0002:0000c038       ??_R4type_info@@6B@        10085038     MSVCRT:ti_inst.obj
 0002:0000c04c       ??_R3type_info@@8          1008504c     MSVCRT:ti_inst.obj
 0002:0000c05c       ??_R2type_info@@8          1008505c     MSVCRT:ti_inst.obj
 0002:0000c064       ??_R1A@?0A@EA@type_info@@8 10085064     MSVCRT:ti_inst.obj
 0002:0000c080       ??_R4CCriticalLock@@6B@    10085080     aucmanager.obj
 0002:0000c094       ??_R3CCriticalLock@@8      10085094     aucmanager.obj
 0002:0000c0a4       ??_R2CCriticalLock@@8      100850a4     aucmanager.obj
 0002:0000c0ac       ??_R1A@?0A@EA@CCriticalLock@@8 100850ac     aucmanager.obj
 0002:0000c0c8       ??_R4out_of_range@std@@6B@ 100850c8     aucmanager.obj
 0002:0000c0dc       ??_R3out_of_range@std@@8   100850dc     aucmanager.obj
 0002:0000c0ec       ??_R2out_of_range@std@@8   100850ec     aucmanager.obj
 0002:0000c0fc       ??_R1A@?0A@EA@out_of_range@std@@8 100850fc     aucmanager.obj
 0002:0000c118       ??_R4length_error@std@@6B@ 10085118     aucmanager.obj
 0002:0000c12c       ??_R3length_error@std@@8   1008512c     aucmanager.obj
 0002:0000c13c       ??_R2length_error@std@@8   1008513c     aucmanager.obj
 0002:0000c14c       ??_R1A@?0A@EA@length_error@std@@8 1008514c     aucmanager.obj
 0002:0000c168       ??_R4logic_error@std@@6B@  10085168     aucmanager.obj
 0002:0000c17c       ??_R3logic_error@std@@8    1008517c     aucmanager.obj
 0002:0000c18c       ??_R2logic_error@std@@8    1008518c     aucmanager.obj
 0002:0000c198       ??_R1A@?0A@EA@logic_error@std@@8 10085198     aucmanager.obj
 0002:0000c1b4       ??_R4bad_alloc@std@@6B@    100851b4     aucmanager.obj
 0002:0000c1c8       ??_R3bad_alloc@std@@8      100851c8     aucmanager.obj
 0002:0000c1d8       ??_R2bad_alloc@std@@8      100851d8     aucmanager.obj
 0002:0000c1e4       ??_R1A@?0A@EA@exception@std@@8 100851e4     aucmanager.obj
 0002:0000c200       ??_R3exception@std@@8      10085200     aucmanager.obj
 0002:0000c210       ??_R2exception@std@@8      10085210     aucmanager.obj
 0002:0000c218       ??_R1A@?0A@EA@bad_alloc@std@@8 10085218     aucmanager.obj
 0002:0000c234       ??_R4parse_error@rapidxml@@6B@ 10085234     cgipro_normal.obj
 0002:0000c248       ??_R3parse_error@rapidxml@@8 10085248     cgipro_normal.obj
 0002:0000c258       ??_R2parse_error@rapidxml@@8 10085258     cgipro_normal.obj
 0002:0000c264       ??_R1A@?0A@EA@parse_error@rapidxml@@8 10085264     cgipro_normal.obj
 0002:0000c280       ??_R4CRtspWrapper@@6B@     10085280     rtspwraper.obj
 0002:0000c294       ??_R3CRtspWrapper@@8       10085294     rtspwraper.obj
 0002:0000c2a4       ??_R2CRtspWrapper@@8       100852a4     rtspwraper.obj
 0002:0000c2ac       ??_R1A@?0A@EA@CRtspWrapper@@8 100852ac     rtspwraper.obj
 0002:0000c2c8       ??_R4CRtspWrapperMeta@@6B@ 100852c8     rtspwrapermeta.obj
 0002:0000c2dc       ??_R3CRtspWrapperMeta@@8   100852dc     rtspwrapermeta.obj
 0002:0000c2ec       ??_R2CRtspWrapperMeta@@8   100852ec     rtspwrapermeta.obj
 0002:0000c2f4       ??_R1A@?0A@EA@CRtspWrapperMeta@@8 100852f4     rtspwrapermeta.obj
 0002:0000c310       ___safe_se_handler_table   10085310     <linker-defined>
 0002:0000c550       ___rtc_iaa                 10085550     MSVCRT:_initsect_.obj
 0002:0000c554       ___rtc_izz                 10085554     MSVCRT:_initsect_.obj
 0002:0000c558       ___rtc_taa                 10085558     MSVCRT:_initsect_.obj
 0002:0000c55c       ___rtc_tzz                 1008555c     MSVCRT:_initsect_.obj
 0002:0000c604       __CT??_R0?AVexception@std@@@8??0exception@std@@QAE@ABV01@@Z12 10085604     aucmanager.obj
 0002:0000c620       __CT??_R0?AVout_of_range@std@@@8??0out_of_range@std@@QAE@ABV01@@Z40 10085620     aucmanager.obj
 0002:0000c63c       __CT??_R0?AVlogic_error@std@@@8??0logic_error@std@@QAE@ABV01@@Z40 1008563c     aucmanager.obj
 0002:0000c658       __CTA3?AVout_of_range@std@@ 10085658     aucmanager.obj
 0002:0000c668       __TI3?AVout_of_range@std@@ 10085668     aucmanager.obj
 0002:0000c678       __CT??_R0?AVlength_error@std@@@8??0length_error@std@@QAE@ABV01@@Z40 10085678     aucmanager.obj
 0002:0000c694       __CTA3?AVlength_error@std@@ 10085694     aucmanager.obj
 0002:0000c6a4       __TI3?AVlength_error@std@@ 100856a4     aucmanager.obj
 0002:0000c6b4       __CT??_R0?AVbad_alloc@std@@@8??0bad_alloc@std@@QAE@ABV01@@Z12 100856b4     aucmanager.obj
 0002:0000c6d0       __CTA2?AVbad_alloc@std@@   100856d0     aucmanager.obj
 0002:0000c6dc       __TI2?AVbad_alloc@std@@    100856dc     aucmanager.obj
 0002:0000c6ec       __CT??_R0?AVCAtlException@ATL@@@84 100856ec     cgipro_normal.obj
 0002:0000c708       __CTA1?AVCAtlException@ATL@@ 10085708     cgipro_normal.obj
 0002:0000c710       __TI1?AVCAtlException@ATL@@ 10085710     cgipro_normal.obj
 0002:0000c720       __CT??_R0?AVparse_error@rapidxml@@@8??0parse_error@rapidxml@@QAE@ABV01@@Z20 10085720     cgipro_normal.obj
 0002:0000c73c       __CTA2?AVparse_error@rapidxml@@ 1008573c     cgipro_normal.obj
 0002:0000c748       __TI2?AVparse_error@rapidxml@@ 10085748     cgipro_normal.obj
 0002:0000e508       __IMPORT_DESCRIPTOR_WS2_32 10087508     Ws2_32:WS2_32.dll
 0002:0000e51c       __IMPORT_DESCRIPTOR_KERNEL32 1008751c     kernel32:KERNEL32.dll
 0002:0000e530       __IMPORT_DESCRIPTOR_USER32 10087530     user32:USER32.dll
 0002:0000e544       __IMPORT_DESCRIPTOR_MSVCP90 10087544     msvcprt:MSVCP90.dll
 0002:0000e558       __IMPORT_DESCRIPTOR_MSVCR90 10087558     MSVCRT:MSVCR90.dll
 0002:0000e56c       __NULL_IMPORT_DESCRIPTOR   1008756c     Ws2_32:WS2_32.dll
 0003:00000004       ??_R0?AVtype_info@@@8      1008b004     MSVCRT:ti_inst.obj
 0003:0000001c       ___security_cookie         1008b01c     MSVCRT:gs_cookie.obj
 0003:00000020       ___security_cookie_complement 1008b020     MSVCRT:gs_cookie.obj
 0003:00000024       ___native_dllmain_reason   1008b024     MSVCRT:natstart.obj
 0003:00000028       ___native_vcclrit_reason   1008b028     MSVCRT:natstart.obj
 0003:0000002c       ??_R0?AVCCriticalLock@@@8  1008b02c     aucmanager.obj
 0003:00000068       ?g_rs_meth@@3PAPADA        1008b068     rtsp_msg.obj
 0003:00000088       ?g_rs_head@@3PAPADA        1008b088     rtsp_msg.obj
 0003:000000c4       ?g_rs_head_parse_op@@3PAURsHeadParseOp@@A 1008b0c4     rtsp_msg.obj
 0003:00000100       ?g_rs_parm_head@@3PAPADA   1008b100     rtsp_msg.obj
 0003:00000140       ?g_rs_head_add_op@@3PAURsHeadAddOp@@A 1008b140     rtsp_msg.obj
 0003:00000180       ?g_rs_addparm_op@@3PAURsSetParmOp@@A 1008b180     rtsp_msg.obj
 0003:000001c0       ?g_rs_parseparm_op@@3PAURsParmParseOp@@A 1008b1c0     rtsp_msg.obj
 0003:00000204       ?g_rtsp_debug_level@@3KA   1008b204     rtsp_common.obj
 0003:00000208       ?g_rtsp_debug_type@@3KA    1008b208     rtsp_common.obj
 0003:00000210       ?g_nPingSock@@3HA          1008b210     rtsp_c.obj
 0003:00000214       ?g_hRecvHandle@@3PAXA      1008b214     rtsp_c.obj
 0003:00000290       ?PADDING@@3PAEA            1008b290     md5.obj
 0003:000002d4       ?gs_bOutScreen@@3HA        1008b2d4     log.obj
 0003:00000304       ?m_dwHandleID@CAucManager@@2KA 1008b304     aucmanager.obj
 0003:00000308       ??_R0?AVexception@std@@@8  1008b308     aucmanager.obj
 0003:00000324       ??_R0?AVout_of_range@std@@@8 1008b324     aucmanager.obj
 0003:00000344       ??_R0?AVlogic_error@std@@@8 1008b344     aucmanager.obj
 0003:00000364       ??_R0?AVlength_error@std@@@8 1008b364     aucmanager.obj
 0003:00000384       ??_R0?AVbad_alloc@std@@@8  1008b384     aucmanager.obj
 0003:000003a0       ??_R0?AVCAtlException@ATL@@@8 1008b3a0     cgipro_normal.obj
 0003:000003c0       ??_R0?AVparse_error@rapidxml@@@8 1008b3c0     cgipro_normal.obj
 0003:0000046c       ??_R0?AVCRtspWrapper@@@8   1008b46c     rtspwraper.obj
 0003:00000488       ??_R0?AVCRtspWrapperMeta@@@8 1008b488     rtspwrapermeta.obj
 0003:000007dc       ?__type_info_root_node@@3U__type_info_node@@A 1008b7dc     MSVCRT:tncleanup.obj
 0003:000007e8       ?m_cs@CAucManager@@2U_RTL_CRITICAL_SECTION@@A 1008b7e8     aucmanager.obj
 0003:00000808       ?ahRegModule@@3PAPAUHINSTANCE__@@A 1008b808     ospteleserver.obj
 0003:0001e058       ?g_rs_fdset@@3URsfdset@@A  100a9058     rtsp_c.obj
 0003:0001e260       ?g_atRsSession@@3PAUtagRtspSession@@A 100a9260     rtsp_c.obj
 0003:03066be0       ?g_pps_tmp@@3PAEA          130f1be0     rtsp_msg.obj
 0003:03066c60       ?g_sps_tmp@@3PAEA          130f1c60     rtsp_msg.obj
 0003:03066ce0       ?m_cs@CRtspWrapper@@1U_RTL_CRITICAL_SECTION@@A 130f1ce0     rtspwraper.obj
 0003:03066cf8       ?m_cs@CRtspWrapperMeta@@1U_RTL_CRITICAL_SECTION@@A 130f1cf8     rtspwrapermeta.obj
 0003:03066d10       ?g_pcAucMgr@@3PAVCAucManager@@A 130f1d10     aucmanager.obj
 0003:03066d14       ?m_nA1Size@@3HA            130f1d14     cgipro_normal.obj
 0003:03066d18       ?g_cConnectMgr@@3PAVCConnectMgr@@A 130f1d18     connectmgr.obj
 0003:03066d1c       ?m_bStartup@CHttpPro@@2_NA 130f1d1c     httppro.obj
 0003:03066d1d       ?gs_byDebugLevel@@3EA      130f1d1d     log.obj
 0003:03066d1e       ?m_bInit@CMemeryManager@@2_NA 130f1d1e     memerymanager.obj
 0003:03066d1f       ?g_playflag@@3EA           130f1d1f     rtsp_c.obj
 0003:03066d20       ?bIsInit@@3HA              130f1d20     ipcsdk.obj
 0003:03066d28       ?m_aHugeBuf@CMemeryManager@@2PAPADA 130f1d28     memerymanager.obj
 0003:03066d68       ?m_aLargBuf@CMemeryManager@@2PAPADA 130f1d68     memerymanager.obj
 0003:03066e68       ?m_aNormalBuf@CMemeryManager@@2PAPADA 130f1e68     memerymanager.obj
 0003:03067268       ?m_abHugeBufUse@CMemeryManager@@2PAHA 130f2268     memerymanager.obj
 0003:030672a8       ?m_abLargBufUse@CMemeryManager@@2PAHA 130f22a8     memerymanager.obj
 0003:030673a8       ?m_abNormalBufUse@CMemeryManager@@2PAHA 130f23a8     memerymanager.obj
 0003:030677a8       ?g_tTelSrv@@3UTTelServer@@A 130f27a8     ospteleserver.obj
 0003:03068141       ?m_bRtspInited@CRtspWrapper@@1_NA 130f3141     rtspwraper.obj
 0003:03068142       ?m_bRtspInited@CRtspWrapperMeta@@1_NA 130f3142     rtspwrapermeta.obj
 0003:03068180       ?g_osptimer_proc_state@@3KA 130f3180     osptimer.obj
 0003:03068184       ?g_osptimer_api_state@@3KA 130f3184     osptimer.obj
 0003:03068188       ?g_osptimer_timer_func@@3KA 130f3188     osptimer.obj
 0003:0306818c       ?g_tThreadInfoMgr@@3UTOspThreadInfoMgr@@A 130f318c     osputil.obj
 0003:030681b0       ?g_pPuCtrlNormal@CPuCtrl_Normal@@2PAV1@A 130f31b0     puctrl_normal.obj
 0003:030681b4       ?g_pfunRtspCB@@3P6AXUtagRtspMsg@@PAEGPAX@ZA 130f31b4     rtsp_c.obj
 0003:030681b8       ?g_devlisthead@@3PAUtagRTSPDevList@@A 130f31b8     rtsp_c.obj
 0003:030681bc       ?g_RTSPDevNum@@3KA         130f31bc     rtsp_c.obj
 0003:030681c4       ?m_mapUploadThread@CUploadSysThread@@2PAV?$map@KPAVCUploadSysThread@@U?$less@K@std@@V?$allocator@U?$pair@$$CBKPAVCUploadSysThread@@@std@@@3@@std@@A 130f31c4     uploadsys.obj
 0003:030681c8       ?g_frame@@3PAEA            130f31c8     rtsp_media.obj
 0003:030881c8       ?m_nVersionMgrNum@CVersionMgr@@2HA 131131c8     vermanager.obj
 0003:030881cc       ?theCBMgr@@3VCCallBackMgr@@A 131131cc     callbackmgr.obj
 0003:030881d0       ?m_lstException@CExceptionSdk@@2V?$list@V?$basic_string@DU?$char_traits@D@std@@V?$allocator@D@2@@std@@V?$allocator@V?$basic_string@DU?$char_traits@D@std@@V?$allocator@D@2@@std@@@2@@std@@A 131131d0     exceptionsdk.obj
 0003:030881ec       ?m_mapRtsp2RtspWrapper@CRtspWrapper@@1V?$map@KKU?$less@K@std@@V?$allocator@U?$pair@$$CBKK@std@@@2@@std@@A 131131ec     rtspwraper.obj
 0003:0308820c       ?m_mapRtsp2RtspWrapper@CRtspWrapperMeta@@1V?$map@KKU?$less@K@std@@V?$allocator@U?$pair@$$CBKK@std@@@2@@std@@A 1311320c     rtspwrapermeta.obj
 0003:0308822c       ?m_mapVersionMgr@CVersionMgr@@2V?$map@KPAVCVersionMgr@@U?$less@K@std@@V?$allocator@U?$pair@$$CBKPAVCVersionMgr@@@std@@@3@@std@@A 1311322c     vermanager.obj
 0003:0308824c       ?zero@?1??nullstr@?$xml_base@D@rapidxml@@KAPADXZ@4DA 1311324c     cgipro_normal.obj
 0003:03088298       __adjust_fdiv              13113298     <common>
 0003:0308829c       ___native_startup_state    1311329c     <common>
 0003:030882a0       ___native_startup_lock     131132a0     <common>
 0003:030882a4       ___dyn_tls_init_callback   131132a4     <common>
 0003:030882a8       ___onexitend               131132a8     <common>
 0003:030882ac       ___onexitbegin             131132ac     <common>

 entry point at        0001:00074cf5

 Static symbols

 0001:00002188       __catch$?_Buynode@?$_Tree@V?$_Tmap_traits@KV?$basic_string@DU?$char_traits@D@std@@V?$allocator@D@2@@std@@U?$less@K@2@V?$allocator@U?$pair@$$CBKV?$basic_string@DU?$char_traits@D@std@@V?$allocator@D@2@@std@@@std@@@2@$0A@@std@@@std@@IAEPAU_Node@?$_Tree_nod@V?$_Tmap_traits@KV?$basic_string@DU?$char_traits@D@std@@V?$allocator@D@2@@std@@U?$less@K@2@V?$allocator@U?$pair@$$CBKV?$basic_string@DU?$char_traits@D@std@@V?$allocator@D@2@@std@@@std@@@2@$0A@@std@@@2@PAU342@00ABU?$pair@$$CBKV?$basic_string@DU?$char_traits@D@std@@V?$allocator@D@2@@std@@@2@D@Z$0 10003188 f i  CIL library: CIL module
 0001:000435e0       ?telProc@@YAPAXPAX@Z       100445e0 f    CIL library: CIL module
 0001:00043670       ?telSelect@@YAGXZ          10044670 f    CIL library: CIL module
 0001:00043820       ?telClientRecv@@YAGXZ      10044820 f    CIL library: CIL module
 0001:00043b60       ?telClientSend@@YAGXZ      10044b60 f    CIL library: CIL module
 0001:00043c60       ?telClientClose@@YAGXZ     10044c60 f    CIL library: CIL module
 0001:00043c80       ?telAccept@@YAGXZ          10044c80 f    CIL library: CIL module
 0001:00043e10       ?remove_iac@@YADE@Z        10044e10 f    CIL library: CIL module
 0001:00043f40       ?RunCmd@@YAXPAD@Z          10044f40 f    CIL library: CIL module
 0001:000443c0       ?CmdParse@@YAXPADK@Z       100453c0 f    CIL library: CIL module
 0001:00044480       ?GetBaseModName@@YAPADPAD@Z 10045480 f    CIL library: CIL module
 0001:000444c0       ?PromptShow@@YAXXZ         100454c0 f    CIL library: CIL module
 0001:00044700       ?OsApi_ShellStart@@YAXXZ   10045700 f    CIL library: CIL module
 0001:00044c40       ?timerEnd@@YAGXZ           10045c40 f    CIL library: CIL module
 0001:00044d20       ?TimerProc@@YAPAXPAX@Z     10045d20 f    CIL library: CIL module
 0001:00044dd0       ?timerInit@@YAGK@Z         10045dd0 f    CIL library: CIL module
 0001:00044f20       ?timerNew@@YAGPAPAUtagOspTimer@@@Z 10045f20 f    CIL library: CIL module
 0001:00044f80       ?timerSet@@YAGPAUtagOspTimer@@KP6AHPAX1@Z1@Z 10045f80 f    CIL library: CIL module
 0001:000450d0       ?timerStop@@YAGPAUtagOspTimer@@@Z 100460d0 f    CIL library: CIL module
 0001:00045160       ?timerDelete@@YAGPAUtagOspTimer@@@Z 10046160 f    CIL library: CIL module
 0001:000451f0       ?timerCheck@@YAG_K@Z       100461f0 f    CIL library: CIL module
 0001:00045280       ?getTimeInMilliseconds@@YA_KXZ 10046280 f    CIL library: CIL module
 0001:000452e0       ?timerSelect@@YAXXZ        100462e0 f    CIL library: CIL module
 0001:00045560       ?RegCommands@@YAXXZ        10046560 f    CIL library: CIL module
 0001:00045a80       ?ThreadInfoInit@@YAHK@Z    10046a80 f    CIL library: CIL module
 0001:00045b30       ?ThreadInfoQuit@@YAHXZ     10046b30 f    CIL library: CIL module
 0001:00046810       ?Decode@@YAXPAIPBEI@Z      10047810 f    CIL library: CIL module
 0001:00046850       ?MD5Transform@@YAXQAIQBE@Z 10047850 f    CIL library: CIL module
 0001:0007496a       _pre_c_init                1007596a f   MSVCRT:crtdll.obj
 0001:00074bdf       ___DllMainCRTStartup       10075bdf f   MSVCRT:crtdll.obj
 0001:00075270       __unwindfunclet$??0logic_error@std@@QAE@ABV01@@Z$0 10076270 f    CIL library: CIL module
 0001:00075279       __ehhandler$??0logic_error@std@@QAE@ABV01@@Z 10076279 f    CIL library: CIL module
 0001:000752a0       __unwindfunclet$??0logic_error@std@@QAE@ABV?$basic_string@DU?$char_traits@D@std@@V?$allocator@D@2@@1@@Z$0 100762a0 f    CIL library: CIL module
 0001:000752a9       __ehhandler$??0logic_error@std@@QAE@ABV?$basic_string@DU?$char_traits@D@std@@V?$allocator@D@2@@1@@Z 100762a9 f    CIL library: CIL module
 0001:000752d0       __unwindfunclet$??0?$list@V?$basic_string@DU?$char_traits@D@std@@V?$allocator@D@2@@std@@V?$allocator@V?$basic_string@DU?$char_traits@D@std@@V?$allocator@D@2@@std@@@2@@std@@QAE@XZ$0 100762d0 f    CIL library: CIL module
 0001:000752d0       __unwindfunclet$??1?$list@V?$basic_string@DU?$char_traits@D@std@@V?$allocator@D@2@@std@@V?$allocator@V?$basic_string@DU?$char_traits@D@std@@V?$allocator@D@2@@std@@@2@@std@@QAE@XZ$0 100762d0 f    CIL library: CIL module
 0001:000752d5       __ehhandler$??1?$list@V?$basic_string@DU?$char_traits@D@std@@V?$allocator@D@2@@std@@V?$allocator@V?$basic_string@DU?$char_traits@D@std@@V?$allocator@D@2@@std@@@2@@std@@QAE@XZ 100762d5 f    CIL library: CIL module
 0001:000752d5       __ehhandler$??0?$list@V?$basic_string@DU?$char_traits@D@std@@V?$allocator@D@2@@std@@V?$allocator@V?$basic_string@DU?$char_traits@D@std@@V?$allocator@D@2@@std@@@2@@std@@QAE@XZ 100762d5 f    CIL library: CIL module
 0001:000752f0       __unwindfunclet$?Build_PuPicData@cgivideo@@YA_NAAPADPAD@Z$0 100762f0 f    CIL library: CIL module
 0001:000752f9       __unwindfunclet$?Build_PuPicData@cgivideo@@YA_NAAPADPAD@Z$1 100762f9 f    CIL library: CIL module
 0001:00075302       __unwindfunclet$?Build_PuPicData@cgivideo@@YA_NAAPADPAD@Z$2 10076302 f    CIL library: CIL module
 0001:0007530b       __ehhandler$?Build_PuPicData@cgivideo@@YA_NAAPADPAD@Z 1007630b f    CIL library: CIL module
 0001:00075340       __unwindfunclet$?_Buynode@?$_Tree@V?$_Tmap_traits@KV?$basic_string@DU?$char_traits@D@std@@V?$allocator@D@2@@std@@U?$less@K@2@V?$allocator@U?$pair@$$CBKV?$basic_string@DU?$char_traits@D@std@@V?$allocator@D@2@@std@@@std@@@2@$0A@@std@@@std@@IAEPAU_Node@?$_Tree_nod@V?$_Tmap_traits@KV?$basic_string@DU?$char_traits@D@std@@V?$allocator@D@2@@std@@U?$less@K@2@V?$allocator@U?$pair@$$CBKV?$basic_string@DU?$char_traits@D@std@@V?$allocator@D@2@@std@@@std@@@2@$0A@@std@@@2@PAU342@00ABU?$pair@$$CBKV?$basic_string@DU?$char_traits@D@std@@V?$allocator@D@2@@std@@@2@D@Z$2 10076340 f    CIL library: CIL module
 0001:00075345       __ehhandler$?_Buynode@?$_Tree@V?$_Tmap_traits@KV?$basic_string@DU?$char_traits@D@std@@V?$allocator@D@2@@std@@U?$less@K@2@V?$allocator@U?$pair@$$CBKV?$basic_string@DU?$char_traits@D@std@@V?$allocator@D@2@@std@@@std@@@2@$0A@@std@@@std@@IAEPAU_Node@?$_Tree_nod@V?$_Tmap_traits@KV?$basic_string@DU?$char_traits@D@std@@V?$allocator@D@2@@std@@U?$less@K@2@V?$allocator@U?$pair@$$CBKV?$basic_string@DU?$char_traits@D@std@@V?$allocator@D@2@@std@@@std@@@2@$0A@@std@@@2@PAU342@00ABU?$pair@$$CBKV?$basic_string@DU?$char_traits@D@std@@V?$allocator@D@2@@std@@@2@D@Z 10076345 f    CIL library: CIL module
 0001:00075360       __unwindfunclet$??0?$_Tree@V?$_Tmap_traits@KUtagConnectInfo@@U?$less@K@std@@V?$allocator@U?$pair@$$CBKUtagConnectInfo@@@std@@@3@$0A@@std@@@std@@QAE@ABU?$less@K@1@ABV?$allocator@U?$pair@$$CBKUtagConnectInfo@@@std@@@1@@Z$0 10076360 f    CIL library: CIL module
 0001:00075360       __unwindfunclet$??0?$_Tree@V?$_Tmap_traits@KKU?$less@K@std@@V?$allocator@U?$pair@$$CBKK@std@@@2@$0A@@std@@@std@@QAE@ABU?$less@K@1@ABV?$allocator@U?$pair@$$CBKK@std@@@1@@Z$0 10076360 f    CIL library: CIL module
 0001:00075360       __unwindfunclet$??1?$map@KV?$basic_string@DU?$char_traits@D@std@@V?$allocator@D@2@@std@@U?$less@K@2@V?$allocator@U?$pair@$$CBKV?$basic_string@DU?$char_traits@D@std@@V?$allocator@D@2@@std@@@std@@@2@@std@@QAE@XZ$1 10076360 f    CIL library: CIL module
 0001:00075360       __unwindfunclet$??0?$_Tree@V?$_Tmap_traits@KPAUtagHandleParam@@U?$less@K@std@@V?$allocator@U?$pair@$$CBKPAUtagHandleParam@@@std@@@3@$0A@@std@@@std@@QAE@ABU?$less@K@1@ABV?$allocator@U?$pair@$$CBKPAUtagHandleParam@@@std@@@1@@Z$0 10076360 f    CIL library: CIL module
 0001:00075360       __unwindfunclet$??0?$_Tree@V?$_Tmap_traits@KV?$basic_string@DU?$char_traits@D@std@@V?$allocator@D@2@@std@@U?$less@K@2@V?$allocator@U?$pair@$$CBKV?$basic_string@DU?$char_traits@D@std@@V?$allocator@D@2@@std@@@std@@@2@$0A@@std@@@std@@QAE@ABU?$less@K@1@ABV?$allocator@U?$pair@$$CBKV?$basic_string@DU?$char_traits@D@std@@V?$allocator@D@2@@std@@@std@@@1@@Z$0 10076360 f    CIL library: CIL module
 0001:00075360       __unwindfunclet$??0?$_Tree@V?$_Tmap_traits@KPAVCUploadSysThread@@U?$less@K@std@@V?$allocator@U?$pair@$$CBKPAVCUploadSysThread@@@std@@@3@$0A@@std@@@std@@QAE@ABU?$less@K@1@ABV?$allocator@U?$pair@$$CBKPAVCUploadSysThread@@@std@@@1@@Z$0 10076360 f    CIL library: CIL module
 0001:00075368       __ehhandler$??0?$_Tree@V?$_Tmap_traits@KPAUtagHandleParam@@U?$less@K@std@@V?$allocator@U?$pair@$$CBKPAUtagHandleParam@@@std@@@3@$0A@@std@@@std@@QAE@ABU?$less@K@1@ABV?$allocator@U?$pair@$$CBKPAUtagHandleParam@@@std@@@1@@Z 10076368 f    CIL library: CIL module
 0001:00075368       __ehhandler$??0?$_Tree@V?$_Tmap_traits@KPAVCUploadSysThread@@U?$less@K@std@@V?$allocator@U?$pair@$$CBKPAVCUploadSysThread@@@std@@@3@$0A@@std@@@std@@QAE@ABU?$less@K@1@ABV?$allocator@U?$pair@$$CBKPAVCUploadSysThread@@@std@@@1@@Z 10076368 f    CIL library: CIL module
 0001:00075368       __ehhandler$??0?$_Tree@V?$_Tmap_traits@KUtagConnectInfo@@U?$less@K@std@@V?$allocator@U?$pair@$$CBKUtagConnectInfo@@@std@@@3@$0A@@std@@@std@@QAE@ABU?$less@K@1@ABV?$allocator@U?$pair@$$CBKUtagConnectInfo@@@std@@@1@@Z 10076368 f    CIL library: CIL module
 0001:00075368       __ehhandler$??0?$_Tree@V?$_Tmap_traits@KKU?$less@K@std@@V?$allocator@U?$pair@$$CBKK@std@@@2@$0A@@std@@@std@@QAE@ABU?$less@K@1@ABV?$allocator@U?$pair@$$CBKK@std@@@1@@Z 10076368 f    CIL library: CIL module
 0001:00075368       __ehhandler$??0?$_Tree@V?$_Tmap_traits@KV?$basic_string@DU?$char_traits@D@std@@V?$allocator@D@2@@std@@U?$less@K@2@V?$allocator@U?$pair@$$CBKV?$basic_string@DU?$char_traits@D@std@@V?$allocator@D@2@@std@@@std@@@2@$0A@@std@@@std@@QAE@ABU?$less@K@1@ABV?$allocator@U?$pair@$$CBKV?$basic_string@DU?$char_traits@D@std@@V?$allocator@D@2@@std@@@std@@@1@@Z 10076368 f    CIL library: CIL module
 0001:00075368       __ehhandler$??1?$map@KV?$basic_string@DU?$char_traits@D@std@@V?$allocator@D@2@@std@@U?$less@K@2@V?$allocator@U?$pair@$$CBKV?$basic_string@DU?$char_traits@D@std@@V?$allocator@D@2@@std@@@std@@@2@@std@@QAE@XZ 10076368 f    CIL library: CIL module
 0001:00075390       __unwindfunclet$?erase@?$_Tree@V?$_Tmap_traits@KKU?$less@K@std@@V?$allocator@U?$pair@$$CBKK@std@@@2@$0A@@std@@@std@@QAE?AViterator@12@Vconst_iterator@12@@Z$0 10076390 f    CIL library: CIL module
 0001:00075390       __unwindfunclet$?erase@?$_Tree@V?$_Tmap_traits@KUtagConnectInfo@@U?$less@K@std@@V?$allocator@U?$pair@$$CBKUtagConnectInfo@@@std@@@3@$0A@@std@@@std@@QAE?AViterator@12@Vconst_iterator@12@@Z$0 10076390 f    CIL library: CIL module
 0001:00075390       __unwindfunclet$?_Insert@?$_Tree@V?$_Tmap_traits@KPAVCUploadSysThread@@U?$less@K@std@@V?$allocator@U?$pair@$$CBKPAVCUploadSysThread@@@std@@@3@$0A@@std@@@std@@IAE?AViterator@12@_NPAU_Node@?$_Tree_nod@V?$_Tmap_traits@KPAVCUploadSysThread@@U?$less@K@std@@V?$allocator@U?$pair@$$CBKPAVCUploadSysThread@@@std@@@3@$0A@@std@@@2@ABU?$pair@$$CBKPAVCUploadSysThread@@@2@@Z$0 10076390 f    CIL library: CIL module
 0001:00075390       __unwindfunclet$?_Insert@?$_Tree@V?$_Tmap_traits@KKU?$less@K@std@@V?$allocator@U?$pair@$$CBKK@std@@@2@$0A@@std@@@std@@IAE?AViterator@12@_NPAU_Node@?$_Tree_nod@V?$_Tmap_traits@KKU?$less@K@std@@V?$allocator@U?$pair@$$CBKK@std@@@2@$0A@@std@@@2@ABU?$pair@$$CBKK@2@@Z$0 10076390 f    CIL library: CIL module
 0001:00075390       __unwindfunclet$?erase@?$_Tree@V?$_Tmap_traits@KPAUtagHandleParam@@U?$less@K@std@@V?$allocator@U?$pair@$$CBKPAUtagHandleParam@@@std@@@3@$0A@@std@@@std@@QAE?AViterator@12@Vconst_iterator@12@@Z$0 10076390 f    CIL library: CIL module
 0001:00075390       __unwindfunclet$?erase@?$_Tree@V?$_Tmap_traits@KPAVCUploadSysThread@@U?$less@K@std@@V?$allocator@U?$pair@$$CBKPAVCUploadSysThread@@@std@@@3@$0A@@std@@@std@@QAE?AViterator@12@Vconst_iterator@12@@Z$0 10076390 f    CIL library: CIL module
 0001:00075390       __unwindfunclet$?_Insert@?$_Tree@V?$_Tmap_traits@KPAUtagHandleParam@@U?$less@K@std@@V?$allocator@U?$pair@$$CBKPAUtagHandleParam@@@std@@@3@$0A@@std@@@std@@IAE?AViterator@12@_NPAU_Node@?$_Tree_nod@V?$_Tmap_traits@KPAUtagHandleParam@@U?$less@K@std@@V?$allocator@U?$pair@$$CBKPAUtagHandleParam@@@std@@@3@$0A@@std@@@2@ABU?$pair@$$CBKPAUtagHandleParam@@@2@@Z$0 10076390 f    CIL library: CIL module
 0001:00075390       __unwindfunclet$?erase@?$_Tree@V?$_Tmap_traits@KV?$basic_string@DU?$char_traits@D@std@@V?$allocator@D@2@@std@@U?$less@K@2@V?$allocator@U?$pair@$$CBKV?$basic_string@DU?$char_traits@D@std@@V?$allocator@D@2@@std@@@std@@@2@$0A@@std@@@std@@QAE?AViterator@12@Vconst_iterator@12@@Z$0 10076390 f    CIL library: CIL module
 0001:00075399       __ehhandler$?erase@?$_Tree@V?$_Tmap_traits@KPAVCUploadSysThread@@U?$less@K@std@@V?$allocator@U?$pair@$$CBKPAVCUploadSysThread@@@std@@@3@$0A@@std@@@std@@QAE?AViterator@12@Vconst_iterator@12@@Z 10076399 f    CIL library: CIL module
 0001:00075399       __ehhandler$?erase@?$_Tree@V?$_Tmap_traits@KPAUtagHandleParam@@U?$less@K@std@@V?$allocator@U?$pair@$$CBKPAUtagHandleParam@@@std@@@3@$0A@@std@@@std@@QAE?AViterator@12@Vconst_iterator@12@@Z 10076399 f    CIL library: CIL module
 0001:00075399       __ehhandler$?erase@?$_Tree@V?$_Tmap_traits@KKU?$less@K@std@@V?$allocator@U?$pair@$$CBKK@std@@@2@$0A@@std@@@std@@QAE?AViterator@12@Vconst_iterator@12@@Z 10076399 f    CIL library: CIL module
 0001:00075399       __ehhandler$?erase@?$_Tree@V?$_Tmap_traits@KUtagConnectInfo@@U?$less@K@std@@V?$allocator@U?$pair@$$CBKUtagConnectInfo@@@std@@@3@$0A@@std@@@std@@QAE?AViterator@12@Vconst_iterator@12@@Z 10076399 f    CIL library: CIL module
 0001:00075399       __ehhandler$?_Insert@?$_Tree@V?$_Tmap_traits@KKU?$less@K@std@@V?$allocator@U?$pair@$$CBKK@std@@@2@$0A@@std@@@std@@IAE?AViterator@12@_NPAU_Node@?$_Tree_nod@V?$_Tmap_traits@KKU?$less@K@std@@V?$allocator@U?$pair@$$CBKK@std@@@2@$0A@@std@@@2@ABU?$pair@$$CBKK@2@@Z 10076399 f    CIL library: CIL module
 0001:00075399       __ehhandler$?erase@?$_Tree@V?$_Tmap_traits@KV?$basic_string@DU?$char_traits@D@std@@V?$allocator@D@2@@std@@U?$less@K@2@V?$allocator@U?$pair@$$CBKV?$basic_string@DU?$char_traits@D@std@@V?$allocator@D@2@@std@@@std@@@2@$0A@@std@@@std@@QAE?AViterator@12@Vconst_iterator@12@@Z 10076399 f    CIL library: CIL module
 0001:00075399       __ehhandler$?_Insert@?$_Tree@V?$_Tmap_traits@KPAUtagHandleParam@@U?$less@K@std@@V?$allocator@U?$pair@$$CBKPAUtagHandleParam@@@std@@@3@$0A@@std@@@std@@IAE?AViterator@12@_NPAU_Node@?$_Tree_nod@V?$_Tmap_traits@KPAUtagHandleParam@@U?$less@K@std@@V?$allocator@U?$pair@$$CBKPAUtagHandleParam@@@std@@@3@$0A@@std@@@2@ABU?$pair@$$CBKPAUtagHandleParam@@@2@@Z 10076399 f    CIL library: CIL module
 0001:00075399       __ehhandler$?_Insert@?$_Tree@V?$_Tmap_traits@KPAVCUploadSysThread@@U?$less@K@std@@V?$allocator@U?$pair@$$CBKPAVCUploadSysThread@@@std@@@3@$0A@@std@@@std@@IAE?AViterator@12@_NPAU_Node@?$_Tree_nod@V?$_Tmap_traits@KPAVCUploadSysThread@@U?$less@K@std@@V?$allocator@U?$pair@$$CBKPAVCUploadSysThread@@@std@@@3@$0A@@std@@@2@ABU?$pair@$$CBKPAVCUploadSysThread@@@2@@Z 10076399 f    CIL library: CIL module
 0001:000753c0       __unwindfunclet$?Build_GetAudioEec@cgivideo@@YA_NAAPADAAPBDEE@Z$0 100763c0 f    CIL library: CIL module
 0001:000753c0       __unwindfunclet$?Build_SetAudioDec@cgivideo@@YA_NAAPADAAPBDPAXH@Z$0 100763c0 f    CIL library: CIL module
 0001:000753c0       __unwindfunclet$?Build_SetSmartIR@cgiimage@@YA_NAAPADAAPBDPAXH@Z$0 100763c0 f    CIL library: CIL module
 0001:000753c0       __unwindfunclet$?Build_SetGamma@cgiimage@@YA_NAAPADAAPBDPAXH@Z$0 100763c0 f    CIL library: CIL module
 0001:000753c0       __unwindfunclet$?Build_SetMulitVideoMode@cgivideo@@YA_NAAPADAAPBDPAXH@Z$0 100763c0 f    CIL library: CIL module
 0001:000753c0       __unwindfunclet$?Build_SetOsd@cgivideo@@YA_NAAPADAAPBDPAXH@Z$0 100763c0 f    CIL library: CIL module
 0001:000753c0       __unwindfunclet$?Build_GetFillLight@cgiimage@@YA_NAAPADAAPBD@Z$0 100763c0 f    CIL library: CIL module
 0001:000753c0       __unwindfunclet$?Build_SetFogThough@cgiimage@@YA_NAAPADAAPBDPAXH@Z$0 100763c0 f    CIL library: CIL module
 0001:000753c0       __unwindfunclet$?Build_GetMTCF@cgiimage@@YA_NAAPADAAPBD@Z$0 100763c0 f    CIL library: CIL module
 0001:000753c0       __unwindfunclet$?Build_SetColor@cgiimage@@YA_NAAPADAAPBDPAXH@Z$0 100763c0 f    CIL library: CIL module
 0001:000753c0       __unwindfunclet$?Build_SetHlc@cgiimage@@YA_NAAPADAAPBDPAXH@Z$0 100763c0 f    CIL library: CIL module
 0001:000753c0       __unwindfunclet$?Build_SetOsdList@cgivideo@@YA_NAAPADAAPBDPAXH@Z$0 100763c0 f    CIL library: CIL module
 0001:000753c0       __unwindfunclet$?Build_SetWdr@cgiimage@@YA_NAAPADAAPBDPAXH@Z$0 100763c0 f    CIL library: CIL module
 0001:000753c0       __unwindfunclet$?Build_SetCorrido@cgiimage@@YA_NAAPADAAPBDPAXH@Z$0 100763c0 f    CIL library: CIL module
 0001:000753c0       __unwindfunclet$?Build_SendXml_TransData@cginormal@@YA_NPADPBD00H@Z$0 100763c0 f    CIL library: CIL module
 0001:000753c0       __unwindfunclet$?Build_SetPowerLineFrequency@cgiimage@@YA_NAAPADAAPBDPAXH@Z$0 100763c0 f    CIL library: CIL module
 0001:000753c0       __unwindfunclet$?Build_GetVideoEnc@cgivideo@@YA_NAAPADAAPBDEE@Z$0 100763c0 f    CIL library: CIL module
 0001:000753c0       __unwindfunclet$?Build_SetImageMode@cgiimage@@YA_NAAPADAAPBDPAXH@Z$0 100763c0 f    CIL library: CIL module
 0001:000753c0       __unwindfunclet$?Build_GetAssMalfInfo@cgiimage@@YA_NAAPADAAPBD@Z$0 100763c0 f    CIL library: CIL module
 0001:000753c0       __unwindfunclet$?Build_SetLocalEcho@cgiimage@@YA_NAAPADAAPBDPAXH@Z$0 100763c0 f    CIL library: CIL module
 0001:000753c0       __unwindfunclet$?Build_GetAssTeleZoomInfo@cgiimage@@YA_NAAPADAAPBD@Z$0 100763c0 f    CIL library: CIL module
 0001:000753c0       __unwindfunclet$?Build_SetNoiseReduce2D@cgiimage@@YA_NAAPADAAPBDPAXH@Z$0 100763c0 f    CIL library: CIL module
 0001:000753c0       __unwindfunclet$?Build_SetNoiseReduce3D@cgiimage@@YA_NAAPADAAPBDPAXH@Z$0 100763c0 f    CIL library: CIL module
 0001:000753c0       __unwindfunclet$?Build_GetAudioDec@cgivideo@@YA_NAAPADAAPBDEE@Z$0 100763c0 f    CIL library: CIL module
 0001:000753c0       __unwindfunclet$?Build_SendXml_FomatProgress@cgistorage@@YA_NPADPBD@Z$0 100763c0 f    CIL library: CIL module
 0001:000753cc       __unwindfunclet$?Build_SetNoiseReduce2D@cgiimage@@YA_NAAPADAAPBDPAXH@Z$1 100763cc f    CIL library: CIL module
 0001:000753cc       __unwindfunclet$?Build_SetNoiseReduce3D@cgiimage@@YA_NAAPADAAPBDPAXH@Z$1 100763cc f    CIL library: CIL module
 0001:000753cc       __unwindfunclet$?Build_GetVideoEnc@cgivideo@@YA_NAAPADAAPBDEE@Z$1 100763cc f    CIL library: CIL module
 0001:000753cc       __unwindfunclet$?Build_GetAssTeleZoomInfo@cgiimage@@YA_NAAPADAAPBD@Z$1 100763cc f    CIL library: CIL module
 0001:000753cc       __unwindfunclet$?Build_SendXml_FomatProgress@cgistorage@@YA_NPADPBD@Z$1 100763cc f    CIL library: CIL module
 0001:000753cc       __unwindfunclet$?Build_SetLocalEcho@cgiimage@@YA_NAAPADAAPBDPAXH@Z$1 100763cc f    CIL library: CIL module
 0001:000753cc       __unwindfunclet$?Build_SetOsdList@cgivideo@@YA_NAAPADAAPBDPAXH@Z$1 100763cc f    CIL library: CIL module
 0001:000753cc       __unwindfunclet$?Build_SetImageMode@cgiimage@@YA_NAAPADAAPBDPAXH@Z$1 100763cc f    CIL library: CIL module
 0001:000753cc       __unwindfunclet$?Build_GetAssMalfInfo@cgiimage@@YA_NAAPADAAPBD@Z$1 100763cc f    CIL library: CIL module
 0001:000753cc       __unwindfunclet$?Build_SetPowerLineFrequency@cgiimage@@YA_NAAPADAAPBDPAXH@Z$1 100763cc f    CIL library: CIL module
 0001:000753cc       __unwindfunclet$?Build_SendXml_TransData@cginormal@@YA_NPADPBD00H@Z$1 100763cc f    CIL library: CIL module
 0001:000753cc       __unwindfunclet$?Build_SetCorrido@cgiimage@@YA_NAAPADAAPBDPAXH@Z$1 100763cc f    CIL library: CIL module
 0001:000753cc       __unwindfunclet$?Build_GetAudioDec@cgivideo@@YA_NAAPADAAPBDEE@Z$1 100763cc f    CIL library: CIL module
 0001:000753cc       __unwindfunclet$?Build_SetWdr@cgiimage@@YA_NAAPADAAPBDPAXH@Z$1 100763cc f    CIL library: CIL module
 0001:000753cc       __unwindfunclet$?Build_GetMTCF@cgiimage@@YA_NAAPADAAPBD@Z$1 100763cc f    CIL library: CIL module
 0001:000753cc       __unwindfunclet$?Build_SetSmartIR@cgiimage@@YA_NAAPADAAPBDPAXH@Z$1 100763cc f    CIL library: CIL module
 0001:000753cc       __unwindfunclet$?Build_SetColor@cgiimage@@YA_NAAPADAAPBDPAXH@Z$1 100763cc f    CIL library: CIL module
 0001:000753cc       __unwindfunclet$?Build_SetHlc@cgiimage@@YA_NAAPADAAPBDPAXH@Z$1 100763cc f    CIL library: CIL module
 0001:000753cc       __unwindfunclet$?Build_GetAudioEec@cgivideo@@YA_NAAPADAAPBDEE@Z$1 100763cc f    CIL library: CIL module
 0001:000753cc       __unwindfunclet$?Build_GetFillLight@cgiimage@@YA_NAAPADAAPBD@Z$1 100763cc f    CIL library: CIL module
 0001:000753cc       __unwindfunclet$?Build_SetMulitVideoMode@cgivideo@@YA_NAAPADAAPBDPAXH@Z$1 100763cc f    CIL library: CIL module
 0001:000753cc       __unwindfunclet$?Build_SetFogThough@cgiimage@@YA_NAAPADAAPBDPAXH@Z$1 100763cc f    CIL library: CIL module
 0001:000753cc       __unwindfunclet$?Build_SetAudioDec@cgivideo@@YA_NAAPADAAPBDPAXH@Z$1 100763cc f    CIL library: CIL module
 0001:000753cc       __unwindfunclet$?Build_SetOsd@cgivideo@@YA_NAAPADAAPBDPAXH@Z$1 100763cc f    CIL library: CIL module
 0001:000753cc       __unwindfunclet$?Build_SetGamma@cgiimage@@YA_NAAPADAAPBDPAXH@Z$1 100763cc f    CIL library: CIL module
 0001:000753d7       __unwindfunclet$?Build_SetAudioDec@cgivideo@@YA_NAAPADAAPBDPAXH@Z$2 100763d7 f    CIL library: CIL module
 0001:000753d7       __unwindfunclet$?Build_SetGamma@cgiimage@@YA_NAAPADAAPBDPAXH@Z$2 100763d7 f    CIL library: CIL module
 0001:000753d7       __unwindfunclet$?Build_SetFogThough@cgiimage@@YA_NAAPADAAPBDPAXH@Z$2 100763d7 f    CIL library: CIL module
 0001:000753d7       __unwindfunclet$?Build_SetMulitVideoMode@cgivideo@@YA_NAAPADAAPBDPAXH@Z$2 100763d7 f    CIL library: CIL module
 0001:000753d7       __unwindfunclet$?Build_SetOsd@cgivideo@@YA_NAAPADAAPBDPAXH@Z$2 100763d7 f    CIL library: CIL module
 0001:000753d7       __unwindfunclet$?Build_GetFillLight@cgiimage@@YA_NAAPADAAPBD@Z$2 100763d7 f    CIL library: CIL module
 0001:000753d7       __unwindfunclet$?Build_GetAudioDec@cgivideo@@YA_NAAPADAAPBDEE@Z$2 100763d7 f    CIL library: CIL module
 0001:000753d7       __unwindfunclet$?Build_SetHlc@cgiimage@@YA_NAAPADAAPBDPAXH@Z$2 100763d7 f    CIL library: CIL module
 0001:000753d7       __unwindfunclet$?Build_SetColor@cgiimage@@YA_NAAPADAAPBDPAXH@Z$2 100763d7 f    CIL library: CIL module
 0001:000753d7       __unwindfunclet$?Build_GetAudioEec@cgivideo@@YA_NAAPADAAPBDEE@Z$2 100763d7 f    CIL library: CIL module
 0001:000753d7       __unwindfunclet$?Build_GetMTCF@cgiimage@@YA_NAAPADAAPBD@Z$2 100763d7 f    CIL library: CIL module
 0001:000753d7       __unwindfunclet$?Build_SetWdr@cgiimage@@YA_NAAPADAAPBDPAXH@Z$2 100763d7 f    CIL library: CIL module
 0001:000753d7       __unwindfunclet$?Build_SendXml_TransData@cginormal@@YA_NPADPBD00H@Z$2 100763d7 f    CIL library: CIL module
 0001:000753d7       __unwindfunclet$?Build_SetSmartIR@cgiimage@@YA_NAAPADAAPBDPAXH@Z$2 100763d7 f    CIL library: CIL module
 0001:000753d7       __unwindfunclet$?Build_SetPowerLineFrequency@cgiimage@@YA_NAAPADAAPBDPAXH@Z$2 100763d7 f    CIL library: CIL module
 0001:000753d7       __unwindfunclet$?Build_GetAssMalfInfo@cgiimage@@YA_NAAPADAAPBD@Z$2 100763d7 f    CIL library: CIL module
 0001:000753d7       __unwindfunclet$?Build_SetCorrido@cgiimage@@YA_NAAPADAAPBDPAXH@Z$2 100763d7 f    CIL library: CIL module
 0001:000753d7       __unwindfunclet$?Build_SetOsdList@cgivideo@@YA_NAAPADAAPBDPAXH@Z$2 100763d7 f    CIL library: CIL module
 0001:000753d7       __unwindfunclet$?Build_SetLocalEcho@cgiimage@@YA_NAAPADAAPBDPAXH@Z$2 100763d7 f    CIL library: CIL module
 0001:000753d7       __unwindfunclet$?Build_SetImageMode@cgiimage@@YA_NAAPADAAPBDPAXH@Z$2 100763d7 f    CIL library: CIL module
 0001:000753d7       __unwindfunclet$?Build_GetAssTeleZoomInfo@cgiimage@@YA_NAAPADAAPBD@Z$2 100763d7 f    CIL library: CIL module
 0001:000753d7       __unwindfunclet$?Build_GetVideoEnc@cgivideo@@YA_NAAPADAAPBDEE@Z$2 100763d7 f    CIL library: CIL module
 0001:000753d7       __unwindfunclet$?Build_SendXml_FomatProgress@cgistorage@@YA_NPADPBD@Z$2 100763d7 f    CIL library: CIL module
 0001:000753d7       __unwindfunclet$?Build_SetNoiseReduce3D@cgiimage@@YA_NAAPADAAPBDPAXH@Z$2 100763d7 f    CIL library: CIL module
 0001:000753d7       __unwindfunclet$?Build_SetNoiseReduce2D@cgiimage@@YA_NAAPADAAPBDPAXH@Z$2 100763d7 f    CIL library: CIL module
 0001:000753e2       __unwindfunclet$?Build_GetAssTeleZoomInfo@cgiimage@@YA_NAAPADAAPBD@Z$3 100763e2 f    CIL library: CIL module
 0001:000753e2       __unwindfunclet$?Build_SetSmartIR@cgiimage@@YA_NAAPADAAPBDPAXH@Z$3 100763e2 f    CIL library: CIL module
 0001:000753e2       __unwindfunclet$?Build_GetAssMalfInfo@cgiimage@@YA_NAAPADAAPBD@Z$3 100763e2 f    CIL library: CIL module
 0001:000753e2       __unwindfunclet$?Build_GetMTCF@cgiimage@@YA_NAAPADAAPBD@Z$3 100763e2 f    CIL library: CIL module
 0001:000753e2       __unwindfunclet$?Build_GetFillLight@cgiimage@@YA_NAAPADAAPBD@Z$3 100763e2 f    CIL library: CIL module
 0001:000753e2       __unwindfunclet$?Build_SetGamma@cgiimage@@YA_NAAPADAAPBDPAXH@Z$3 100763e2 f    CIL library: CIL module
 0001:000753e2       __unwindfunclet$?Build_SetFogThough@cgiimage@@YA_NAAPADAAPBDPAXH@Z$3 100763e2 f    CIL library: CIL module
 0001:000753e2       __unwindfunclet$?Build_SetHlc@cgiimage@@YA_NAAPADAAPBDPAXH@Z$3 100763e2 f    CIL library: CIL module
 0001:000753e2       __unwindfunclet$?Build_SetWdr@cgiimage@@YA_NAAPADAAPBDPAXH@Z$3 100763e2 f    CIL library: CIL module
 0001:000753e2       __unwindfunclet$?Build_SetPowerLineFrequency@cgiimage@@YA_NAAPADAAPBDPAXH@Z$3 100763e2 f    CIL library: CIL module
 0001:000753e2       __unwindfunclet$?Build_SetLocalEcho@cgiimage@@YA_NAAPADAAPBDPAXH@Z$3 100763e2 f    CIL library: CIL module
 0001:000753e2       __unwindfunclet$?Build_SetNoiseReduce2D@cgiimage@@YA_NAAPADAAPBDPAXH@Z$3 100763e2 f    CIL library: CIL module
 0001:000753e2       __unwindfunclet$?Build_SetImageMode@cgiimage@@YA_NAAPADAAPBDPAXH@Z$3 100763e2 f    CIL library: CIL module
 0001:000753e2       __unwindfunclet$?Build_SetCorrido@cgiimage@@YA_NAAPADAAPBDPAXH@Z$3 100763e2 f    CIL library: CIL module
 0001:000753e2       __unwindfunclet$?Build_SetColor@cgiimage@@YA_NAAPADAAPBDPAXH@Z$3 100763e2 f    CIL library: CIL module
 0001:000753e2       __unwindfunclet$?Build_SetOsd@cgivideo@@YA_NAAPADAAPBDPAXH@Z$3 100763e2 f    CIL library: CIL module
 0001:000753e2       __unwindfunclet$?Build_GetAudioDec@cgivideo@@YA_NAAPADAAPBDEE@Z$3 100763e2 f    CIL library: CIL module
 0001:000753e2       __unwindfunclet$?Build_SetMulitVideoMode@cgivideo@@YA_NAAPADAAPBDPAXH@Z$3 100763e2 f    CIL library: CIL module
 0001:000753e2       __unwindfunclet$?Build_SetAudioDec@cgivideo@@YA_NAAPADAAPBDPAXH@Z$3 100763e2 f    CIL library: CIL module
 0001:000753e2       __unwindfunclet$?Build_SendXml_TransData@cginormal@@YA_NPADPBD00H@Z$3 100763e2 f    CIL library: CIL module
 0001:000753e2       __unwindfunclet$?Build_GetAudioEec@cgivideo@@YA_NAAPADAAPBDEE@Z$3 100763e2 f    CIL library: CIL module
 0001:000753e2       __unwindfunclet$?Build_SetOsdList@cgivideo@@YA_NAAPADAAPBDPAXH@Z$3 100763e2 f    CIL library: CIL module
 0001:000753e2       __unwindfunclet$?Build_SendXml_FomatProgress@cgistorage@@YA_NPADPBD@Z$3 100763e2 f    CIL library: CIL module
 0001:000753e2       __unwindfunclet$?Build_SetNoiseReduce3D@cgiimage@@YA_NAAPADAAPBDPAXH@Z$3 100763e2 f    CIL library: CIL module
 0001:000753e2       __unwindfunclet$?Build_GetVideoEnc@cgivideo@@YA_NAAPADAAPBDEE@Z$3 100763e2 f    CIL library: CIL module
 0001:000753ee       __ehhandler$?Build_SetFogThough@cgiimage@@YA_NAAPADAAPBDPAXH@Z 100763ee f    CIL library: CIL module
 0001:000753ee       __ehhandler$?Build_GetAudioDec@cgivideo@@YA_NAAPADAAPBDEE@Z 100763ee f    CIL library: CIL module
 0001:000753ee       __ehhandler$?Build_GetAudioEec@cgivideo@@YA_NAAPADAAPBDEE@Z 100763ee f    CIL library: CIL module
 0001:000753ee       __ehhandler$?Build_GetVideoEnc@cgivideo@@YA_NAAPADAAPBDEE@Z 100763ee f    CIL library: CIL module
 0001:000753ee       __ehhandler$?Build_GetAssTeleZoomInfo@cgiimage@@YA_NAAPADAAPBD@Z 100763ee f    CIL library: CIL module
 0001:000753ee       __ehhandler$?Build_SetColor@cgiimage@@YA_NAAPADAAPBDPAXH@Z 100763ee f    CIL library: CIL module
 0001:000753ee       __ehhandler$?Build_SetCorrido@cgiimage@@YA_NAAPADAAPBDPAXH@Z 100763ee f    CIL library: CIL module
 0001:000753ee       __ehhandler$?Build_SetImageMode@cgiimage@@YA_NAAPADAAPBDPAXH@Z 100763ee f    CIL library: CIL module
 0001:000753ee       __ehhandler$?Build_SetNoiseReduce2D@cgiimage@@YA_NAAPADAAPBDPAXH@Z 100763ee f    CIL library: CIL module
 0001:000753ee       __ehhandler$?Build_SetNoiseReduce3D@cgiimage@@YA_NAAPADAAPBDPAXH@Z 100763ee f    CIL library: CIL module
 0001:000753ee       __ehhandler$?Build_SetLocalEcho@cgiimage@@YA_NAAPADAAPBDPAXH@Z 100763ee f    CIL library: CIL module
 0001:000753ee       __ehhandler$?Build_SetHlc@cgiimage@@YA_NAAPADAAPBDPAXH@Z 100763ee f    CIL library: CIL module
 0001:000753ee       __ehhandler$?Build_SetSmartIR@cgiimage@@YA_NAAPADAAPBDPAXH@Z 100763ee f    CIL library: CIL module
 0001:000753ee       __ehhandler$?Build_SetPowerLineFrequency@cgiimage@@YA_NAAPADAAPBDPAXH@Z 100763ee f    CIL library: CIL module
 0001:000753ee       __ehhandler$?Build_SetWdr@cgiimage@@YA_NAAPADAAPBDPAXH@Z 100763ee f    CIL library: CIL module
 0001:000753ee       __ehhandler$?Build_SendXml_TransData@cginormal@@YA_NPADPBD00H@Z 100763ee f    CIL library: CIL module
 0001:000753ee       __ehhandler$?Build_SetAudioDec@cgivideo@@YA_NAAPADAAPBDPAXH@Z 100763ee f    CIL library: CIL module
 0001:000753ee       __ehhandler$?Build_SetOsdList@cgivideo@@YA_NAAPADAAPBDPAXH@Z 100763ee f    CIL library: CIL module
 0001:000753ee       __ehhandler$?Build_GetAssMalfInfo@cgiimage@@YA_NAAPADAAPBD@Z 100763ee f    CIL library: CIL module
 0001:000753ee       __ehhandler$?Build_GetMTCF@cgiimage@@YA_NAAPADAAPBD@Z 100763ee f    CIL library: CIL module
 0001:000753ee       __ehhandler$?Build_GetFillLight@cgiimage@@YA_NAAPADAAPBD@Z 100763ee f    CIL library: CIL module
 0001:000753ee       __ehhandler$?Build_SetOsd@cgivideo@@YA_NAAPADAAPBDPAXH@Z 100763ee f    CIL library: CIL module
 0001:000753ee       __ehhandler$?Build_SetMulitVideoMode@cgivideo@@YA_NAAPADAAPBDPAXH@Z 100763ee f    CIL library: CIL module
 0001:000753ee       __ehhandler$?Build_SendXml_FomatProgress@cgistorage@@YA_NPADPBD@Z 100763ee f    CIL library: CIL module
 0001:000753ee       __ehhandler$?Build_SetGamma@cgiimage@@YA_NAAPADAAPBDPAXH@Z 100763ee f    CIL library: CIL module
 0001:00075420       __unwindfunclet$?Analvze_StorageNum@cgistorage@@YA_NPADAAH@Z$0 10076420 f    CIL library: CIL module
 0001:0007542b       __ehhandler$?Analvze_StorageNum@cgistorage@@YA_NPADAAH@Z 1007642b f    CIL library: CIL module
 0001:00075460       __unwindfunclet$?Build_SendXml_AddUser@cgisecurity@@YA_NPADPBDPAXH@Z$0 10076460 f    CIL library: CIL module
 0001:00075460       __unwindfunclet$?Build_SendXml_UpdateUser@cgisecurity@@YA_NPADPBDPAXH@Z$0 10076460 f    CIL library: CIL module
 0001:0007546c       __unwindfunclet$?Build_SendXml_AddUser@cgisecurity@@YA_NPADPBDPAXH@Z$1 1007646c f    CIL library: CIL module
 0001:0007546c       __unwindfunclet$?Build_SendXml_UpdateUser@cgisecurity@@YA_NPADPBDPAXH@Z$1 1007646c f    CIL library: CIL module
 0001:00075477       __unwindfunclet$?Build_SendXml_UpdateUser@cgisecurity@@YA_NPADPBDPAXH@Z$2 10076477 f    CIL library: CIL module
 0001:00075477       __unwindfunclet$?Build_SendXml_AddUser@cgisecurity@@YA_NPADPBDPAXH@Z$2 10076477 f    CIL library: CIL module
 0001:00075483       __ehhandler$?Build_SendXml_UpdateUser@cgisecurity@@YA_NPADPBDPAXH@Z 10076483 f    CIL library: CIL module
 0001:00075483       __ehhandler$?Build_SendXml_AddUser@cgisecurity@@YA_NPADPBDPAXH@Z 10076483 f    CIL library: CIL module
 0001:000754c0       __unwindfunclet$?Build_SendXml_SetLedFind@cgisystem@@YA_NPADPBDPAXH@Z$0 100764c0 f    CIL library: CIL module
 0001:000754c0       __unwindfunclet$?Build_SendXml_SetPreUploadSys@cgisystem@@YA_NPADPBDHH0H@Z$0 100764c0 f    CIL library: CIL module
 0001:000754c0       __unwindfunclet$?Build_SendXml_DelUser@cgisecurity@@YA_NPADPBDPAXH@Z$0 100764c0 f    CIL library: CIL module
 0001:000754c0       __unwindfunclet$?Build_SendXml_SetAdvance@cgisystem@@YA_NPADPBDPAXH@Z$0 100764c0 f    CIL library: CIL module
 0001:000754c0       __unwindfunclet$?Build_SendXml_RecoverFactory@cgisystem@@YA_NPADPBDPAXH@Z$0 100764c0 f    CIL library: CIL module
 0001:000754c0       __unwindfunclet$?Build_SendXml_SetRSInfo@cgisystem@@YA_NPADPBDPAXH@Z$0 100764c0 f    CIL library: CIL module
 0001:000754c0       __unwindfunclet$?Build_SendXml_SetUploadCfg@cgisystem@@YA_NPADPBDPAXHH@Z$0 100764c0 f    CIL library: CIL module
 0001:000754cc       __unwindfunclet$?Build_SendXml_DelUser@cgisecurity@@YA_NPADPBDPAXH@Z$1 100764cc f    CIL library: CIL module
 0001:000754cc       __unwindfunclet$?Build_SendXml_SetLedFind@cgisystem@@YA_NPADPBDPAXH@Z$1 100764cc f    CIL library: CIL module
 0001:000754cc       __unwindfunclet$?Build_SendXml_SetRSInfo@cgisystem@@YA_NPADPBDPAXH@Z$1 100764cc f    CIL library: CIL module
 0001:000754cc       __unwindfunclet$?Build_SendXml_SetUploadCfg@cgisystem@@YA_NPADPBDPAXHH@Z$1 100764cc f    CIL library: CIL module
 0001:000754cc       __unwindfunclet$?Build_SendXml_SetAdvance@cgisystem@@YA_NPADPBDPAXH@Z$1 100764cc f    CIL library: CIL module
 0001:000754cc       __unwindfunclet$?Build_SendXml_SetPreUploadSys@cgisystem@@YA_NPADPBDHH0H@Z$1 100764cc f    CIL library: CIL module
 0001:000754cc       __unwindfunclet$?Build_SendXml_RecoverFactory@cgisystem@@YA_NPADPBDPAXH@Z$1 100764cc f    CIL library: CIL module
 0001:000754d7       __unwindfunclet$?Build_SendXml_SetAdvance@cgisystem@@YA_NPADPBDPAXH@Z$2 100764d7 f    CIL library: CIL module
 0001:000754d7       __unwindfunclet$?Build_SendXml_SetLedFind@cgisystem@@YA_NPADPBDPAXH@Z$2 100764d7 f    CIL library: CIL module
 0001:000754d7       __unwindfunclet$?Build_SendXml_SetPreUploadSys@cgisystem@@YA_NPADPBDHH0H@Z$2 100764d7 f    CIL library: CIL module
 0001:000754d7       __unwindfunclet$?Build_SendXml_DelUser@cgisecurity@@YA_NPADPBDPAXH@Z$2 100764d7 f    CIL library: CIL module
 0001:000754d7       __unwindfunclet$?Build_SendXml_SetRSInfo@cgisystem@@YA_NPADPBDPAXH@Z$2 100764d7 f    CIL library: CIL module
 0001:000754d7       __unwindfunclet$?Build_SendXml_SetUploadCfg@cgisystem@@YA_NPADPBDPAXHH@Z$2 100764d7 f    CIL library: CIL module
 0001:000754d7       __unwindfunclet$?Build_SendXml_RecoverFactory@cgisystem@@YA_NPADPBDPAXH@Z$2 100764d7 f    CIL library: CIL module
 0001:000754e3       __ehhandler$?Build_SendXml_SetRSInfo@cgisystem@@YA_NPADPBDPAXH@Z 100764e3 f    CIL library: CIL module
 0001:000754e3       __ehhandler$?Build_SendXml_SetLedFind@cgisystem@@YA_NPADPBDPAXH@Z 100764e3 f    CIL library: CIL module
 0001:000754e3       __ehhandler$?Build_SendXml_DelUser@cgisecurity@@YA_NPADPBDPAXH@Z 100764e3 f    CIL library: CIL module
 0001:000754e3       __ehhandler$?Build_SendXml_SetAdvance@cgisystem@@YA_NPADPBDPAXH@Z 100764e3 f    CIL library: CIL module
 0001:000754e3       __ehhandler$?Build_SendXml_SetUploadCfg@cgisystem@@YA_NPADPBDPAXHH@Z 100764e3 f    CIL library: CIL module
 0001:000754e3       __ehhandler$?Build_SendXml_RecoverFactory@cgisystem@@YA_NPADPBDPAXH@Z 100764e3 f    CIL library: CIL module
 0001:000754e3       __ehhandler$?Build_SendXml_SetPreUploadSys@cgisystem@@YA_NPADPBDHH0H@Z 100764e3 f    CIL library: CIL module
 0001:00075520       __unwindfunclet$?Build_SendXml_UserActive@cgisystem@@YA_NPADPAXH@Z$0 10076520 f    CIL library: CIL module
 0001:0007552b       __unwindfunclet$?Build_SendXml_UserActive@cgisystem@@YA_NPADPAXH@Z$1 1007652b f    CIL library: CIL module
 0001:00075537       __ehhandler$?Build_SendXml_UserActive@cgisystem@@YA_NPADPAXH@Z 10076537 f    CIL library: CIL module
 0001:00075570       __unwindfunclet$?Build_SendXml_SetDST@cgisystem@@YA_NPADPBDPAXH@Z$0 10076570 f    CIL library: CIL module
 0001:0007557c       __unwindfunclet$?Build_SendXml_SetDST@cgisystem@@YA_NPADPBDPAXH@Z$1 1007657c f    CIL library: CIL module
 0001:00075587       __unwindfunclet$?Build_SendXml_SetDST@cgisystem@@YA_NPADPBDPAXH@Z$2 10076587 f    CIL library: CIL module
 0001:00075593       __ehhandler$?Build_SendXml_SetDST@cgisystem@@YA_NPADPBDPAXH@Z 10076593 f    CIL library: CIL module
 0001:000755d0       __unwindfunclet$?Build_AucInfo@cgiauc@@YA_NAAV?$basic_string@DU?$char_traits@D@std@@V?$allocator@D@2@@std@@PAD111@Z$0 100765d0 f    CIL library: CIL module
 0001:000755db       __unwindfunclet$?Build_AucInfo@cgiauc@@YA_NAAV?$basic_string@DU?$char_traits@D@std@@V?$allocator@D@2@@std@@PAD111@Z$1 100765db f    CIL library: CIL module
 0001:000755e6       __unwindfunclet$?Build_AucInfo@cgiauc@@YA_NAAV?$basic_string@DU?$char_traits@D@std@@V?$allocator@D@2@@std@@PAD111@Z$2 100765e6 f    CIL library: CIL module
 0001:000755f2       __ehhandler$?Build_AucInfo@cgiauc@@YA_NAAV?$basic_string@DU?$char_traits@D@std@@V?$allocator@D@2@@std@@PAD111@Z 100765f2 f    CIL library: CIL module
 0001:00075620       __unwindfunclet$?Analvze_AucId@cgiauc@@YA_NPAD0@Z$0 10076620 f    CIL library: CIL module
 0001:0007562c       __unwindfunclet$?Analvze_AucId@cgiauc@@YA_NPAD0@Z$1 1007662c f    CIL library: CIL module
 0001:00075637       __ehhandler$?Analvze_AucId@cgiauc@@YA_NPAD0@Z 10076637 f    CIL library: CIL module
 0001:00075670       __unwindfunclet$?Build_GetGain@cgiimage@@YA_NAAPADAAPBDE@Z$0 10076670 f    CIL library: CIL module
 0001:00075670       __unwindfunclet$?Build_GetShutter@cgiimage@@YA_NAAPADAAPBDE@Z$0 10076670 f    CIL library: CIL module
 0001:00075670       __unwindfunclet$?Build_GetInfrared@cgiimage@@YA_NAAPADAAPBDE@Z$0 10076670 f    CIL library: CIL module
 0001:00075670       __unwindfunclet$?Build_GetLaser@cgiimage@@YA_NAAPADAAPBDE@Z$0 10076670 f    CIL library: CIL module
 0001:00075670       __unwindfunclet$?Build_GetIris@cgiimage@@YA_NAAPADAAPBDE@Z$0 10076670 f    CIL library: CIL module
 0001:00075670       __unwindfunclet$?Build_GetFocus@cgiimage@@YA_NAAPADAAPBDE@Z$0 10076670 f    CIL library: CIL module
 0001:00075670       __unwindfunclet$?Build_GetIrcutFilter@cgiimage@@YA_NAAPADAAPBDE@Z$0 10076670 f    CIL library: CIL module
 0001:00075670       __unwindfunclet$?Build_GetWhiteBlance@cgiimage@@YA_NAAPADAAPBDE@Z$0 10076670 f    CIL library: CIL module
 0001:0007567c       __unwindfunclet$?Build_GetIris@cgiimage@@YA_NAAPADAAPBDE@Z$1 1007667c f    CIL library: CIL module
 0001:0007567c       __unwindfunclet$?Build_GetLaser@cgiimage@@YA_NAAPADAAPBDE@Z$1 1007667c f    CIL library: CIL module
 0001:0007567c       __unwindfunclet$?Build_GetFocus@cgiimage@@YA_NAAPADAAPBDE@Z$1 1007667c f    CIL library: CIL module
 0001:0007567c       __unwindfunclet$?Build_GetShutter@cgiimage@@YA_NAAPADAAPBDE@Z$1 1007667c f    CIL library: CIL module
 0001:0007567c       __unwindfunclet$?Build_GetInfrared@cgiimage@@YA_NAAPADAAPBDE@Z$1 1007667c f    CIL library: CIL module
 0001:0007567c       __unwindfunclet$?Build_GetGain@cgiimage@@YA_NAAPADAAPBDE@Z$1 1007667c f    CIL library: CIL module
 0001:0007567c       __unwindfunclet$?Build_GetWhiteBlance@cgiimage@@YA_NAAPADAAPBDE@Z$1 1007667c f    CIL library: CIL module
 0001:0007567c       __unwindfunclet$?Build_GetIrcutFilter@cgiimage@@YA_NAAPADAAPBDE@Z$1 1007667c f    CIL library: CIL module
 0001:00075687       __unwindfunclet$?Build_GetFocus@cgiimage@@YA_NAAPADAAPBDE@Z$2 10076687 f    CIL library: CIL module
 0001:00075687       __unwindfunclet$?Build_GetInfrared@cgiimage@@YA_NAAPADAAPBDE@Z$2 10076687 f    CIL library: CIL module
 0001:00075687       __unwindfunclet$?Build_GetWhiteBlance@cgiimage@@YA_NAAPADAAPBDE@Z$2 10076687 f    CIL library: CIL module
 0001:00075687       __unwindfunclet$?Build_GetShutter@cgiimage@@YA_NAAPADAAPBDE@Z$2 10076687 f    CIL library: CIL module
 0001:00075687       __unwindfunclet$?Build_GetIris@cgiimage@@YA_NAAPADAAPBDE@Z$2 10076687 f    CIL library: CIL module
 0001:00075687       __unwindfunclet$?Build_GetIrcutFilter@cgiimage@@YA_NAAPADAAPBDE@Z$2 10076687 f    CIL library: CIL module
 0001:00075687       __unwindfunclet$?Build_GetGain@cgiimage@@YA_NAAPADAAPBDE@Z$2 10076687 f    CIL library: CIL module
 0001:00075687       __unwindfunclet$?Build_GetLaser@cgiimage@@YA_NAAPADAAPBDE@Z$2 10076687 f    CIL library: CIL module
 0001:00075693       __ehhandler$?Build_GetIris@cgiimage@@YA_NAAPADAAPBDE@Z 10076693 f    CIL library: CIL module
 0001:00075693       __ehhandler$?Build_GetWhiteBlance@cgiimage@@YA_NAAPADAAPBDE@Z 10076693 f    CIL library: CIL module
 0001:00075693       __ehhandler$?Build_GetInfrared@cgiimage@@YA_NAAPADAAPBDE@Z 10076693 f    CIL library: CIL module
 0001:00075693       __ehhandler$?Build_GetShutter@cgiimage@@YA_NAAPADAAPBDE@Z 10076693 f    CIL library: CIL module
 0001:00075693       __ehhandler$?Build_GetFocus@cgiimage@@YA_NAAPADAAPBDE@Z 10076693 f    CIL library: CIL module
 0001:00075693       __ehhandler$?Build_GetIrcutFilter@cgiimage@@YA_NAAPADAAPBDE@Z 10076693 f    CIL library: CIL module
 0001:00075693       __ehhandler$?Build_GetGain@cgiimage@@YA_NAAPADAAPBDE@Z 10076693 f    CIL library: CIL module
 0001:00075693       __ehhandler$?Build_GetLaser@cgiimage@@YA_NAAPADAAPBDE@Z 10076693 f    CIL library: CIL module
 0001:000756d0       __unwindfunclet$?Build_Setrecdownloadspeed@cgivideo@@YA_NAAPADAAPBD@Z$0 100766d0 f    CIL library: CIL module
 0001:000756d0       __unwindfunclet$?Build_SetFaceDetect@cgievent@@YA_NAAPADAAPBDPAXH@Z$0 100766d0 f    CIL library: CIL module
 0001:000756d0       __unwindfunclet$?Build_SendXml_SystemReboot@cgisystem@@YA_NPADPBDPAXH@Z$0 100766d0 f    CIL library: CIL module
 0001:000756d0       __unwindfunclet$?Build_SetMTCF@cgiimage@@YA_NAAPADAAPBDPAXH@Z$0 100766d0 f    CIL library: CIL module
 0001:000756d0       __unwindfunclet$?Build_CGIVer@cginormal@@YA_NPADPBD@Z$0 100766d0 f    CIL library: CIL module
 0001:000756d0       __unwindfunclet$?Build_SetDynPluginState@cgiimage@@YA_NAAPADAAPBDPAXH@Z$0 100766d0 f    CIL library: CIL module
 0001:000756d0       __unwindfunclet$?Build_KeyFrameQur_RTCP@cgivideo@@YA_NAAPADAAPBDK@Z$0 100766d0 f    CIL library: CIL module
 0001:000756d0       __unwindfunclet$?Build_SendXml_AuthMode@cginet@@YA_NAAPADPBD@Z$0 100766d0 f    CIL library: CIL module
 0001:000756d0       __unwindfunclet$?Build_SendXml_Dpss@cginet@@YA_NPADPBD@Z$0 100766d0 f    CIL library: CIL module
 0001:000756d0       __unwindfunclet$?Build_StartStream@cgivideo@@YA_NAAPADAAPBDK@Z$0 100766d0 f    CIL library: CIL module
 0001:000756d0       __unwindfunclet$?Build_Getrecplaystate@cgivideo@@YA_NAAPADAAPBDK@Z$0 100766d0 f    CIL library: CIL module
 0001:000756d0       __unwindfunclet$?Build_StopCall_Rtcp@cgivideo@@YA_NAAPADAAPBDK@Z$0 100766d0 f    CIL library: CIL module
 0001:000756d0       __unwindfunclet$?Build_StopVideo_Rtcp@cgivideo@@YA_NAAPADAAPBDK@Z$0 100766d0 f    CIL library: CIL module
 0001:000756d0       __unwindfunclet$?Build_GetRecordNext@cgivideo@@YA_NAAPADAAPBDKKH@Z$0 100766d0 f    CIL library: CIL module
 0001:000756dc       __unwindfunclet$?Build_StartStream@cgivideo@@YA_NAAPADAAPBDK@Z$1 100766dc f    CIL library: CIL module
 0001:000756dc       __unwindfunclet$?Build_Getrecplaystate@cgivideo@@YA_NAAPADAAPBDK@Z$1 100766dc f    CIL library: CIL module
 0001:000756dc       __unwindfunclet$?Build_Setrecdownloadspeed@cgivideo@@YA_NAAPADAAPBD@Z$1 100766dc f    CIL library: CIL module
 0001:000756dc       __unwindfunclet$?Build_SetMTCF@cgiimage@@YA_NAAPADAAPBDPAXH@Z$1 100766dc f    CIL library: CIL module
 0001:000756dc       __unwindfunclet$?Build_SendXml_Dpss@cginet@@YA_NPADPBD@Z$1 100766dc f    CIL library: CIL module
 0001:000756dc       __unwindfunclet$?Build_StopVideo_Rtcp@cgivideo@@YA_NAAPADAAPBDK@Z$1 100766dc f    CIL library: CIL module
 0001:000756dc       __unwindfunclet$?Build_CGIVer@cginormal@@YA_NPADPBD@Z$1 100766dc f    CIL library: CIL module
 0001:000756dc       __unwindfunclet$?Build_StopCall_Rtcp@cgivideo@@YA_NAAPADAAPBDK@Z$1 100766dc f    CIL library: CIL module
 0001:000756dc       __unwindfunclet$?Build_SetDynPluginState@cgiimage@@YA_NAAPADAAPBDPAXH@Z$1 100766dc f    CIL library: CIL module
 0001:000756dc       __unwindfunclet$?Build_SendXml_SystemReboot@cgisystem@@YA_NPADPBDPAXH@Z$1 100766dc f    CIL library: CIL module
 0001:000756dc       __unwindfunclet$?Build_KeyFrameQur_RTCP@cgivideo@@YA_NAAPADAAPBDK@Z$1 100766dc f    CIL library: CIL module
 0001:000756dc       __unwindfunclet$?Build_SetFaceDetect@cgievent@@YA_NAAPADAAPBDPAXH@Z$1 100766dc f    CIL library: CIL module
 0001:000756dc       __unwindfunclet$?Build_GetRecordNext@cgivideo@@YA_NAAPADAAPBDKKH@Z$1 100766dc f    CIL library: CIL module
 0001:000756dc       __unwindfunclet$?Build_SendXml_AuthMode@cginet@@YA_NAAPADPBD@Z$1 100766dc f    CIL library: CIL module
 0001:000756e7       __unwindfunclet$?Build_SetDynPluginState@cgiimage@@YA_NAAPADAAPBDPAXH@Z$2 100766e7 f    CIL library: CIL module
 0001:000756e7       __unwindfunclet$?Build_Getrecplaystate@cgivideo@@YA_NAAPADAAPBDK@Z$2 100766e7 f    CIL library: CIL module
 0001:000756e7       __unwindfunclet$?Build_SendXml_AuthMode@cginet@@YA_NAAPADPBD@Z$2 100766e7 f    CIL library: CIL module
 0001:000756e7       __unwindfunclet$?Build_StartStream@cgivideo@@YA_NAAPADAAPBDK@Z$2 100766e7 f    CIL library: CIL module
 0001:000756e7       __unwindfunclet$?Build_SendXml_SystemReboot@cgisystem@@YA_NPADPBDPAXH@Z$2 100766e7 f    CIL library: CIL module
 0001:000756e7       __unwindfunclet$?Build_KeyFrameQur_RTCP@cgivideo@@YA_NAAPADAAPBDK@Z$2 100766e7 f    CIL library: CIL module
 0001:000756e7       __unwindfunclet$?Build_Setrecdownloadspeed@cgivideo@@YA_NAAPADAAPBD@Z$2 100766e7 f    CIL library: CIL module
 0001:000756e7       __unwindfunclet$?Build_GetRecordNext@cgivideo@@YA_NAAPADAAPBDKKH@Z$2 100766e7 f    CIL library: CIL module
 0001:000756e7       __unwindfunclet$?Build_SendXml_Dpss@cginet@@YA_NPADPBD@Z$2 100766e7 f    CIL library: CIL module
 0001:000756e7       __unwindfunclet$?Build_StopCall_Rtcp@cgivideo@@YA_NAAPADAAPBDK@Z$2 100766e7 f    CIL library: CIL module
 0001:000756e7       __unwindfunclet$?Build_CGIVer@cginormal@@YA_NPADPBD@Z$2 100766e7 f    CIL library: CIL module
 0001:000756e7       __unwindfunclet$?Build_StopVideo_Rtcp@cgivideo@@YA_NAAPADAAPBDK@Z$2 100766e7 f    CIL library: CIL module
 0001:000756e7       __unwindfunclet$?Build_SetFaceDetect@cgievent@@YA_NAAPADAAPBDPAXH@Z$2 100766e7 f    CIL library: CIL module
 0001:000756e7       __unwindfunclet$?Build_SetMTCF@cgiimage@@YA_NAAPADAAPBDPAXH@Z$2 100766e7 f    CIL library: CIL module
 0001:000756f3       __ehhandler$?Build_CGIVer@cginormal@@YA_NPADPBD@Z 100766f3 f    CIL library: CIL module
 0001:000756f3       __ehhandler$?Build_SetMTCF@cgiimage@@YA_NAAPADAAPBDPAXH@Z 100766f3 f    CIL library: CIL module
 0001:000756f3       __ehhandler$?Build_StartStream@cgivideo@@YA_NAAPADAAPBDK@Z 100766f3 f    CIL library: CIL module
 0001:000756f3       __ehhandler$?Build_SendXml_AuthMode@cginet@@YA_NAAPADPBD@Z 100766f3 f    CIL library: CIL module
 0001:000756f3       __ehhandler$?Build_KeyFrameQur_RTCP@cgivideo@@YA_NAAPADAAPBDK@Z 100766f3 f    CIL library: CIL module
 0001:000756f3       __ehhandler$?Build_SendXml_Dpss@cginet@@YA_NPADPBD@Z 100766f3 f    CIL library: CIL module
 0001:000756f3       __ehhandler$?Build_SetFaceDetect@cgievent@@YA_NAAPADAAPBDPAXH@Z 100766f3 f    CIL library: CIL module
 0001:000756f3       __ehhandler$?Build_StopCall_Rtcp@cgivideo@@YA_NAAPADAAPBDK@Z 100766f3 f    CIL library: CIL module
 0001:000756f3       __ehhandler$?Build_Setrecdownloadspeed@cgivideo@@YA_NAAPADAAPBD@Z 100766f3 f    CIL library: CIL module
 0001:000756f3       __ehhandler$?Build_Getrecplaystate@cgivideo@@YA_NAAPADAAPBDK@Z 100766f3 f    CIL library: CIL module
 0001:000756f3       __ehhandler$?Build_StopVideo_Rtcp@cgivideo@@YA_NAAPADAAPBDK@Z 100766f3 f    CIL library: CIL module
 0001:000756f3       __ehhandler$?Build_SendXml_SystemReboot@cgisystem@@YA_NPADPBDPAXH@Z 100766f3 f    CIL library: CIL module
 0001:000756f3       __ehhandler$?Build_GetRecordNext@cgivideo@@YA_NAAPADAAPBDKKH@Z 100766f3 f    CIL library: CIL module
 0001:000756f3       __ehhandler$?Build_SetDynPluginState@cgiimage@@YA_NAAPADAAPBDPAXH@Z 100766f3 f    CIL library: CIL module
 0001:00075730       __unwindfunclet$?Analvze_GetRecMonthInfo@cgivideo@@YA_NPADPAXAAH@Z$0 10076730 f    CIL library: CIL module
 0001:0007573b       __ehhandler$?Analvze_GetRecMonthInfo@cgivideo@@YA_NPADPAXAAH@Z 1007673b f    CIL library: CIL module
 0001:00075770       __unwindfunclet$?Build_PuSnapShop@cgivideo@@YA_NAAPADAAPBDE@Z$0 10076770 f    CIL library: CIL module
 0001:0007577c       __unwindfunclet$?Build_PuSnapShop@cgivideo@@YA_NAAPADAAPBDE@Z$1 1007677c f    CIL library: CIL module
 0001:00075787       __unwindfunclet$?Build_PuSnapShop@cgivideo@@YA_NAAPADAAPBDE@Z$2 10076787 f    CIL library: CIL module
 0001:00075793       __ehhandler$?Build_PuSnapShop@cgivideo@@YA_NAAPADAAPBDE@Z 10076793 f    CIL library: CIL module
 0001:000757d0       __unwindfunclet$?Analvze_cap@cginormal@@YA_NPADGQAPADQAK@Z$2 100767d0 f    CIL library: CIL module
 0001:000757db       __ehhandler$?Analvze_cap@cginormal@@YA_NPADGQAPADQAK@Z 100767db f    CIL library: CIL module
 0001:00075810       __unwindfunclet$?Removeall@CAucManager@@SAKXZ$0 10076810 f    CIL library: CIL module
 0001:00075818       __ehhandler$?Removeall@CAucManager@@SAKXZ 10076818 f    CIL library: CIL module
 0001:00075840       __unwindfunclet$?_Insert@?$_Tree@V?$_Tmap_traits@KPAVCVersionMgr@@U?$less@K@std@@V?$allocator@U?$pair@$$CBKPAVCVersionMgr@@@std@@@3@$0A@@std@@@std@@IAE?AViterator@12@_NPAU_Node@?$_Tree_nod@V?$_Tmap_traits@KPAVCVersionMgr@@U?$less@K@std@@V?$allocator@U?$pair@$$CBKPAVCVersionMgr@@@std@@@3@$0A@@std@@@2@ABU?$pair@$$CBKPAVCVersionMgr@@@2@@Z$0 10076840 f    CIL library: CIL module
 0001:00075840       __unwindfunclet$?erase@?$_Tree@V?$_Tmap_traits@KPAVCVersionMgr@@U?$less@K@std@@V?$allocator@U?$pair@$$CBKPAVCVersionMgr@@@std@@@3@$0A@@std@@@std@@QAE?AViterator@12@Vconst_iterator@12@@Z$0 10076840 f    CIL library: CIL module
 0001:00075840       __unwindfunclet$?_Insert@?$_Tree@V?$_Tmap_traits@KV?$basic_string@DU?$char_traits@D@std@@V?$allocator@D@2@@std@@U?$less@K@2@V?$allocator@U?$pair@$$CBKV?$basic_string@DU?$char_traits@D@std@@V?$allocator@D@2@@std@@@std@@@2@$0A@@std@@@std@@IAE?AViterator@12@_NPAU_Node@?$_Tree_nod@V?$_Tmap_traits@KV?$basic_string@DU?$char_traits@D@std@@V?$allocator@D@2@@std@@U?$less@K@2@V?$allocator@U?$pair@$$CBKV?$basic_string@DU?$char_traits@D@std@@V?$allocator@D@2@@std@@@std@@@2@$0A@@std@@@2@ABU?$pair@$$CBKV?$basic_string@DU?$char_traits@D@std@@V?$allocator@D@2@@std@@@2@@Z$0 10076840 f    CIL library: CIL module
 0001:00075840       __unwindfunclet$?_Insert@?$_Tree@V?$_Tmap_traits@KUtagConnectInfo@@U?$less@K@std@@V?$allocator@U?$pair@$$CBKUtagConnectInfo@@@std@@@3@$0A@@std@@@std@@IAE?AViterator@12@_NPAU_Node@?$_Tree_nod@V?$_Tmap_traits@KUtagConnectInfo@@U?$less@K@std@@V?$allocator@U?$pair@$$CBKUtagConnectInfo@@@std@@@3@$0A@@std@@@2@ABU?$pair@$$CBKUtagConnectInfo@@@2@@Z$0 10076840 f    CIL library: CIL module
 0001:00075849       __ehhandler$?_Insert@?$_Tree@V?$_Tmap_traits@KV?$basic_string@DU?$char_traits@D@std@@V?$allocator@D@2@@std@@U?$less@K@2@V?$allocator@U?$pair@$$CBKV?$basic_string@DU?$char_traits@D@std@@V?$allocator@D@2@@std@@@std@@@2@$0A@@std@@@std@@IAE?AViterator@12@_NPAU_Node@?$_Tree_nod@V?$_Tmap_traits@KV?$basic_string@DU?$char_traits@D@std@@V?$allocator@D@2@@std@@U?$less@K@2@V?$allocator@U?$pair@$$CBKV?$basic_string@DU?$char_traits@D@std@@V?$allocator@D@2@@std@@@std@@@2@$0A@@std@@@2@ABU?$pair@$$CBKV?$basic_string@DU?$char_traits@D@std@@V?$allocator@D@2@@std@@@2@@Z 10076849 f    CIL library: CIL module
 0001:00075849       __ehhandler$?erase@?$_Tree@V?$_Tmap_traits@KPAVCVersionMgr@@U?$less@K@std@@V?$allocator@U?$pair@$$CBKPAVCVersionMgr@@@std@@@3@$0A@@std@@@std@@QAE?AViterator@12@Vconst_iterator@12@@Z 10076849 f    CIL library: CIL module
 0001:00075849       __ehhandler$?_Insert@?$_Tree@V?$_Tmap_traits@KUtagConnectInfo@@U?$less@K@std@@V?$allocator@U?$pair@$$CBKUtagConnectInfo@@@std@@@3@$0A@@std@@@std@@IAE?AViterator@12@_NPAU_Node@?$_Tree_nod@V?$_Tmap_traits@KUtagConnectInfo@@U?$less@K@std@@V?$allocator@U?$pair@$$CBKUtagConnectInfo@@@std@@@3@$0A@@std@@@2@ABU?$pair@$$CBKUtagConnectInfo@@@2@@Z 10076849 f    CIL library: CIL module
 0001:00075849       __ehhandler$?_Insert@?$_Tree@V?$_Tmap_traits@KPAVCVersionMgr@@U?$less@K@std@@V?$allocator@U?$pair@$$CBKPAVCVersionMgr@@@std@@@3@$0A@@std@@@std@@IAE?AViterator@12@_NPAU_Node@?$_Tree_nod@V?$_Tmap_traits@KPAVCVersionMgr@@U?$less@K@std@@V?$allocator@U?$pair@$$CBKPAVCVersionMgr@@@std@@@3@$0A@@std@@@2@ABU?$pair@$$CBKPAVCVersionMgr@@@2@@Z 10076849 f    CIL library: CIL module
 0001:00075870       __unwindfunclet$?Build_SetPtzPatternEvt@cgiptz@@YA_NAAPADAAPBDPAXH@Z$0 10076870 f    CIL library: CIL module
 0001:0007587c       __unwindfunclet$?Build_SetPtzPatternEvt@cgiptz@@YA_NAAPADAAPBDPAXH@Z$1 1007687c f    CIL library: CIL module
 0001:00075887       __unwindfunclet$?Build_SetPtzPatternEvt@cgiptz@@YA_NAAPADAAPBDPAXH@Z$2 10076887 f    CIL library: CIL module
 0001:00075893       __unwindfunclet$?Build_SetPtzPatternEvt@cgiptz@@YA_NAAPADAAPBDPAXH@Z$3 10076893 f    CIL library: CIL module
 0001:0007589f       __unwindfunclet$?Build_SetPtzPatternEvt@cgiptz@@YA_NAAPADAAPBDPAXH@Z$4 1007689f f    CIL library: CIL module
 0001:000758ab       __unwindfunclet$?Build_SetPtzPatternEvt@cgiptz@@YA_NAAPADAAPBDPAXH@Z$5 100768ab f    CIL library: CIL module
 0001:000758b7       __unwindfunclet$?Build_SetPtzPatternEvt@cgiptz@@YA_NAAPADAAPBDPAXH@Z$6 100768b7 f    CIL library: CIL module
 0001:000758c3       __ehhandler$?Build_SetPtzPatternEvt@cgiptz@@YA_NAAPADAAPBDPAXH@Z 100768c3 f    CIL library: CIL module
 0001:00075900       __unwindfunclet$?Build_SetPtzRatio@cgiptz@@YA_NAAPADAAPBDPAXH@Z$0 10076900 f    CIL library: CIL module
 0001:0007590c       __unwindfunclet$?Build_SetPtzRatio@cgiptz@@YA_NAAPADAAPBDPAXH@Z$1 1007690c f    CIL library: CIL module
 0001:00075917       __unwindfunclet$?Build_SetPtzRatio@cgiptz@@YA_NAAPADAAPBDPAXH@Z$2 10076917 f    CIL library: CIL module
 0001:00075923       __ehhandler$?Build_SetPtzRatio@cgiptz@@YA_NAAPADAAPBDPAXH@Z 10076923 f    CIL library: CIL module
 0001:00075960       __unwindfunclet$?Build_SetPtzCoorDinateEvt@cgiptz@@YA_NAAPADAAPBDPAXH@Z$0 10076960 f    CIL library: CIL module
 0001:0007596c       __unwindfunclet$?Build_SetPtzCoorDinateEvt@cgiptz@@YA_NAAPADAAPBDPAXH@Z$1 1007696c f    CIL library: CIL module
 0001:00075977       __unwindfunclet$?Build_SetPtzCoorDinateEvt@cgiptz@@YA_NAAPADAAPBDPAXH@Z$2 10076977 f    CIL library: CIL module
 0001:00075983       __ehhandler$?Build_SetPtzCoorDinateEvt@cgiptz@@YA_NAAPADAAPBDPAXH@Z 10076983 f    CIL library: CIL module
 0001:000759c0       __unwindfunclet$?Analvze_PtzCoorDinate@cgiptz@@YA_NPADPAXH0AAH@Z$0 100769c0 f    CIL library: CIL module
 0001:000759cb       __ehhandler$?Analvze_PtzCoorDinate@cgiptz@@YA_NPADPAXH0AAH@Z 100769cb f    CIL library: CIL module
 0001:00075a00       __unwindfunclet$?Analvze_TimeTask@cgiptz@@YA_NPADPAXH1HH0AAH@Z$0 10076a00 f    CIL library: CIL module
 0001:00075a0b       __ehhandler$?Analvze_TimeTask@cgiptz@@YA_NPADPAXH1HH0AAH@Z 10076a0b f    CIL library: CIL module
 0001:00075a40       __unwindfunclet$?Build_SetAlarmOut@cgievent@@YA_NAAPADAAPBDPAXH@Z$0 10076a40 f    CIL library: CIL module
 0001:00075a40       __unwindfunclet$?Build_SetPtzWatchOn@cgiptz@@YA_NAAPADAAPBDPAXH@Z$0 10076a40 f    CIL library: CIL module
 0001:00075a40       __unwindfunclet$?Build_SetPtzMove@cgiptz@@YA_NAAPADAAPBDPAXH@Z$0 10076a40 f    CIL library: CIL module
 0001:00075a40       __unwindfunclet$?Build_SetPtzBase@cgiptz@@YA_NAAPADAAPBDPAXH@Z$0 10076a40 f    CIL library: CIL module
 0001:00075a40       __unwindfunclet$?Build_SetPtzPathCruiseEvent@cgiptz@@YA_NAAPADAAPBDPAXH@Z$0 10076a40 f    CIL library: CIL module
 0001:00075a40       __unwindfunclet$?Build_SetRecSchedule@cgistorage@@YA_NAAPADAAPBDPAXH@Z$0 10076a40 f    CIL library: CIL module
 0001:00075a40       __unwindfunclet$?Build_SetSnapEvent@cgistorage@@YA_NAAPADAAPBDPAXH@Z$0 10076a40 f    CIL library: CIL module
 0001:00075a40       __unwindfunclet$?Build_SetPtzRefactory@cgiptz@@YA_NAAPADAAPBDPAXH@Z$0 10076a40 f    CIL library: CIL module
 0001:00075a40       __unwindfunclet$?Build_SetPtzWiper@cgiptz@@YA_NAAPADAAPBDPAXH@Z$0 10076a40 f    CIL library: CIL module
 0001:00075a40       __unwindfunclet$?Build_SetSnapPicConfig@cgistorage@@YA_NAAPADAAPBDPAXH@Z$0 10076a40 f    CIL library: CIL module
 0001:00075a40       __unwindfunclet$?Build_SetPtzPreset@cgiptz@@YA_NAAPADAAPBDPAXH@Z$0 10076a40 f    CIL library: CIL module
 0001:00075a4c       __unwindfunclet$?Build_SetPtzPreset@cgiptz@@YA_NAAPADAAPBDPAXH@Z$1 10076a4c f    CIL library: CIL module
 0001:00075a4c       __unwindfunclet$?Build_SetPtzBase@cgiptz@@YA_NAAPADAAPBDPAXH@Z$1 10076a4c f    CIL library: CIL module
 0001:00075a4c       __unwindfunclet$?Build_SetRecSchedule@cgistorage@@YA_NAAPADAAPBDPAXH@Z$1 10076a4c f    CIL library: CIL module
 0001:00075a4c       __unwindfunclet$?Build_SetSnapPicConfig@cgistorage@@YA_NAAPADAAPBDPAXH@Z$1 10076a4c f    CIL library: CIL module
 0001:00075a4c       __unwindfunclet$?Build_SetPtzRefactory@cgiptz@@YA_NAAPADAAPBDPAXH@Z$1 10076a4c f    CIL library: CIL module
 0001:00075a4c       __unwindfunclet$?Build_SetSnapEvent@cgistorage@@YA_NAAPADAAPBDPAXH@Z$1 10076a4c f    CIL library: CIL module
 0001:00075a4c       __unwindfunclet$?Build_SetPtzWatchOn@cgiptz@@YA_NAAPADAAPBDPAXH@Z$1 10076a4c f    CIL library: CIL module
 0001:00075a4c       __unwindfunclet$?Build_SetPtzWiper@cgiptz@@YA_NAAPADAAPBDPAXH@Z$1 10076a4c f    CIL library: CIL module
 0001:00075a4c       __unwindfunclet$?Build_SetPtzMove@cgiptz@@YA_NAAPADAAPBDPAXH@Z$1 10076a4c f    CIL library: CIL module
 0001:00075a4c       __unwindfunclet$?Build_SetAlarmOut@cgievent@@YA_NAAPADAAPBDPAXH@Z$1 10076a4c f    CIL library: CIL module
 0001:00075a4c       __unwindfunclet$?Build_SetPtzPathCruiseEvent@cgiptz@@YA_NAAPADAAPBDPAXH@Z$1 10076a4c f    CIL library: CIL module
 0001:00075a57       __unwindfunclet$?Build_SetPtzMove@cgiptz@@YA_NAAPADAAPBDPAXH@Z$2 10076a57 f    CIL library: CIL module
 0001:00075a57       __unwindfunclet$?Build_SetAlarmOut@cgievent@@YA_NAAPADAAPBDPAXH@Z$2 10076a57 f    CIL library: CIL module
 0001:00075a57       __unwindfunclet$?Build_SetPtzWatchOn@cgiptz@@YA_NAAPADAAPBDPAXH@Z$2 10076a57 f    CIL library: CIL module
 0001:00075a57       __unwindfunclet$?Build_SetSnapEvent@cgistorage@@YA_NAAPADAAPBDPAXH@Z$2 10076a57 f    CIL library: CIL module
 0001:00075a57       __unwindfunclet$?Build_SetRecSchedule@cgistorage@@YA_NAAPADAAPBDPAXH@Z$2 10076a57 f    CIL library: CIL module
 0001:00075a57       __unwindfunclet$?Build_SetSnapPicConfig@cgistorage@@YA_NAAPADAAPBDPAXH@Z$2 10076a57 f    CIL library: CIL module
 0001:00075a57       __unwindfunclet$?Build_SetPtzBase@cgiptz@@YA_NAAPADAAPBDPAXH@Z$2 10076a57 f    CIL library: CIL module
 0001:00075a57       __unwindfunclet$?Build_SetPtzPreset@cgiptz@@YA_NAAPADAAPBDPAXH@Z$2 10076a57 f    CIL library: CIL module
 0001:00075a57       __unwindfunclet$?Build_SetPtzWiper@cgiptz@@YA_NAAPADAAPBDPAXH@Z$2 10076a57 f    CIL library: CIL module
 0001:00075a57       __unwindfunclet$?Build_SetPtzRefactory@cgiptz@@YA_NAAPADAAPBDPAXH@Z$2 10076a57 f    CIL library: CIL module
 0001:00075a57       __unwindfunclet$?Build_SetPtzPathCruiseEvent@cgiptz@@YA_NAAPADAAPBDPAXH@Z$2 10076a57 f    CIL library: CIL module
 0001:00075a63       __ehhandler$?Build_SetSnapEvent@cgistorage@@YA_NAAPADAAPBDPAXH@Z 10076a63 f    CIL library: CIL module
 0001:00075a63       __ehhandler$?Build_SetPtzBase@cgiptz@@YA_NAAPADAAPBDPAXH@Z 10076a63 f    CIL library: CIL module
 0001:00075a63       __ehhandler$?Build_SetSnapPicConfig@cgistorage@@YA_NAAPADAAPBDPAXH@Z 10076a63 f    CIL library: CIL module
 0001:00075a63       __ehhandler$?Build_SetRecSchedule@cgistorage@@YA_NAAPADAAPBDPAXH@Z 10076a63 f    CIL library: CIL module
 0001:00075a63       __ehhandler$?Build_SetPtzRefactory@cgiptz@@YA_NAAPADAAPBDPAXH@Z 10076a63 f    CIL library: CIL module
 0001:00075a63       __ehhandler$?Build_SetPtzWatchOn@cgiptz@@YA_NAAPADAAPBDPAXH@Z 10076a63 f    CIL library: CIL module
 0001:00075a63       __ehhandler$?Build_SetAlarmOut@cgievent@@YA_NAAPADAAPBDPAXH@Z 10076a63 f    CIL library: CIL module
 0001:00075a63       __ehhandler$?Build_SetPtzPathCruiseEvent@cgiptz@@YA_NAAPADAAPBDPAXH@Z 10076a63 f    CIL library: CIL module
 0001:00075a63       __ehhandler$?Build_SetPtzWiper@cgiptz@@YA_NAAPADAAPBDPAXH@Z 10076a63 f    CIL library: CIL module
 0001:00075a63       __ehhandler$?Build_SetPtzPreset@cgiptz@@YA_NAAPADAAPBDPAXH@Z 10076a63 f    CIL library: CIL module
 0001:00075a63       __ehhandler$?Build_SetPtzMove@cgiptz@@YA_NAAPADAAPBDPAXH@Z 10076a63 f    CIL library: CIL module
 0001:00075aa0       __unwindfunclet$?Build_SetPtzPathCruise@cgiptz@@YA_NAAPADAAPBDEPAXH@Z$0 10076aa0 f    CIL library: CIL module
 0001:00075aac       __unwindfunclet$?Build_SetPtzPathCruise@cgiptz@@YA_NAAPADAAPBDEPAXH@Z$1 10076aac f    CIL library: CIL module
 0001:00075ab7       __unwindfunclet$?Build_SetPtzPathCruise@cgiptz@@YA_NAAPADAAPBDEPAXH@Z$2 10076ab7 f    CIL library: CIL module
 0001:00075ac2       __unwindfunclet$?Build_SetPtzPathCruise@cgiptz@@YA_NAAPADAAPBDEPAXH@Z$3 10076ac2 f    CIL library: CIL module
 0001:00075ace       __ehhandler$?Build_SetPtzPathCruise@cgiptz@@YA_NAAPADAAPBDEPAXH@Z 10076ace f    CIL library: CIL module
 0001:00075b00       __unwindfunclet$?Analvze_PtzPathCruise@cgiptz@@YA_NPADEPAXAAH@Z$0 10076b00 f    CIL library: CIL module
 0001:00075b00       __unwindfunclet$?Analvze_GetOsd@cgivideo@@YA_NPADPAXAAH02@Z$0 10076b00 f    CIL library: CIL module
 0001:00075b0b       __ehhandler$?Analvze_GetOsd@cgivideo@@YA_NPADPAXAAH02@Z 10076b0b f    CIL library: CIL module
 0001:00075b0b       __ehhandler$?Analvze_PtzPathCruise@cgiptz@@YA_NPADEPAXAAH@Z 10076b0b f    CIL library: CIL module
 0001:00075b40       __unwindfunclet$?Analvze_PtzWatchOn@cgiptz@@YA_NPADPAXH0AAH@Z$0 10076b40 f    CIL library: CIL module
 0001:00075b4b       __ehhandler$?Analvze_PtzWatchOn@cgiptz@@YA_NPADPAXH0AAH@Z 10076b4b f    CIL library: CIL module
 0001:00075b80       __unwindfunclet$?Build_SetSnapTime@cgistorage@@YA_NAAPADAAPBDPAXH@Z$0 10076b80 f    CIL library: CIL module
 0001:00075b80       __unwindfunclet$?Build_SetPtzMainTain@cgiptz@@YA_NAAPADAAPBDPAXH@Z$0 10076b80 f    CIL library: CIL module
 0001:00075b80       __unwindfunclet$?Build_SetPtzZoneZoom@cgiptz@@YA_NAAPADAAPBDPAXH@Z$0 10076b80 f    CIL library: CIL module
 0001:00075b80       __unwindfunclet$?Build_SetPtzGotoPoint@cgiptz@@YA_NAAPADAAPBDPAXH@Z$0 10076b80 f    CIL library: CIL module
 0001:00075b8c       __unwindfunclet$?Build_SetPtzGotoPoint@cgiptz@@YA_NAAPADAAPBDPAXH@Z$1 10076b8c f    CIL library: CIL module
 0001:00075b8c       __unwindfunclet$?Build_SetSnapTime@cgistorage@@YA_NAAPADAAPBDPAXH@Z$1 10076b8c f    CIL library: CIL module
 0001:00075b8c       __unwindfunclet$?Build_SetPtzZoneZoom@cgiptz@@YA_NAAPADAAPBDPAXH@Z$1 10076b8c f    CIL library: CIL module
 0001:00075b8c       __unwindfunclet$?Build_SetPtzMainTain@cgiptz@@YA_NAAPADAAPBDPAXH@Z$1 10076b8c f    CIL library: CIL module
 0001:00075b97       __unwindfunclet$?Build_SetSnapTime@cgistorage@@YA_NAAPADAAPBDPAXH@Z$2 10076b97 f    CIL library: CIL module
 0001:00075b97       __unwindfunclet$?Build_SetPtzGotoPoint@cgiptz@@YA_NAAPADAAPBDPAXH@Z$2 10076b97 f    CIL library: CIL module
 0001:00075b97       __unwindfunclet$?Build_SetPtzZoneZoom@cgiptz@@YA_NAAPADAAPBDPAXH@Z$2 10076b97 f    CIL library: CIL module
 0001:00075b97       __unwindfunclet$?Build_SetPtzMainTain@cgiptz@@YA_NAAPADAAPBDPAXH@Z$2 10076b97 f    CIL library: CIL module
 0001:00075ba3       __ehhandler$?Build_SetSnapTime@cgistorage@@YA_NAAPADAAPBDPAXH@Z 10076ba3 f    CIL library: CIL module
 0001:00075ba3       __ehhandler$?Build_SetPtzGotoPoint@cgiptz@@YA_NAAPADAAPBDPAXH@Z 10076ba3 f    CIL library: CIL module
 0001:00075ba3       __ehhandler$?Build_SetPtzMainTain@cgiptz@@YA_NAAPADAAPBDPAXH@Z 10076ba3 f    CIL library: CIL module
 0001:00075ba3       __ehhandler$?Build_SetPtzZoneZoom@cgiptz@@YA_NAAPADAAPBDPAXH@Z 10076ba3 f    CIL library: CIL module
 0001:00075be0       __unwindfunclet$?Analvze_Except@cgievent@@YA_NPAD0PAXH0AAH@Z$0 10076be0 f    CIL library: CIL module
 0001:00075beb       __ehhandler$?Analvze_Except@cgievent@@YA_NPAD0PAXH0AAH@Z 10076beb f    CIL library: CIL module
 0001:00075c20       __unwindfunclet$?Build_GetImageMode@cgiimage@@YA_NAAPADAAPBDE@Z$0 10076c20 f    CIL library: CIL module
 0001:00075c20       __unwindfunclet$?Build_SendXml_AlarmOut@cgievent@@YA_NAAPBDPAD@Z$0 10076c20 f    CIL library: CIL module
 0001:00075c20       __unwindfunclet$?Build_GetColor@cgiimage@@YA_NAAPADAAPBDE@Z$0 10076c20 f    CIL library: CIL module
 0001:00075c20       __unwindfunclet$?Build_GetVideoRoi@cgivideo@@YA_NAAPADAAPBDE@Z$0 10076c20 f    CIL library: CIL module
 0001:00075c20       __unwindfunclet$?Build_GetOsdStateQuery@cgivideo@@YA_NAAPADAAPBDE@Z$0 10076c20 f    CIL library: CIL module
 0001:00075c20       __unwindfunclet$?Build_GetOsdCap@cgivideo@@YA_NAAPADAAPBDE@Z$0 10076c20 f    CIL library: CIL module
 0001:00075c20       __unwindfunclet$?Build_SendXml_AlarmIn@cgievent@@YA_NAAPBDPAD1@Z$0 10076c20 f    CIL library: CIL module
 0001:00075c20       __unwindfunclet$?Build_GetBlc@cgiimage@@YA_NAAPADAAPBDE@Z$0 10076c20 f    CIL library: CIL module
 0001:00075c20       __unwindfunclet$?Build_GetHlc@cgiimage@@YA_NAAPADAAPBDE@Z$0 10076c20 f    CIL library: CIL module
 0001:00075c20       __unwindfunclet$?Build_GetSmartIR@cgiimage@@YA_NAAPADAAPBDE@Z$0 10076c20 f    CIL library: CIL module
 0001:00075c20       __unwindfunclet$?Build_SendXml_Except@cgievent@@YA_NAAPBDPAD1@Z$0 10076c20 f    CIL library: CIL module
 0001:00075c20       __unwindfunclet$?Build_GetVideoEncCut@cgivideo@@YA_NAAPADAAPBDE@Z$0 10076c20 f    CIL library: CIL module
 0001:00075c20       __unwindfunclet$?Build_GetFogThough@cgiimage@@YA_NAAPADAAPBDE@Z$0 10076c20 f    CIL library: CIL module
 0001:00075c20       __unwindfunclet$?Build_GetWdr@cgiimage@@YA_NAAPADAAPBDE@Z$0 10076c20 f    CIL library: CIL module
 0001:00075c20       __unwindfunclet$?Build_GetOsd@cgivideo@@YA_NAAPADAAPBDE@Z$0 10076c20 f    CIL library: CIL module
 0001:00075c20       __unwindfunclet$?Build_GetOsdList@cgivideo@@YA_NAAPADAAPBDE@Z$0 10076c20 f    CIL library: CIL module
 0001:00075c20       __unwindfunclet$?Build_GetMulitVideoMode@cgivideo@@YA_NAAPADAAPBDE@Z$0 10076c20 f    CIL library: CIL module
 0001:00075c20       __unwindfunclet$?Build_GetVideoShield@cgivideo@@YA_NAAPADAAPBDE@Z$0 10076c20 f    CIL library: CIL module
 0001:00075c20       __unwindfunclet$?Build_GetPowerLineFrequency@cgiimage@@YA_NAAPADAAPBDE@Z$0 10076c20 f    CIL library: CIL module
 0001:00075c20       __unwindfunclet$?Build_GetNoiseReduce2D@cgiimage@@YA_NAAPADAAPBDE@Z$0 10076c20 f    CIL library: CIL module
 0001:00075c20       __unwindfunclet$?Build_RecoveryDef@cgiimage@@YA_NAAPADAAPBDPAXH@Z$0 10076c20 f    CIL library: CIL module
 0001:00075c20       __unwindfunclet$?Build_GetGamma@cgiimage@@YA_NAAPADAAPBDE@Z$0 10076c20 f    CIL library: CIL module
 0001:00075c20       __unwindfunclet$?Build_GetNoiseReduce3D@cgiimage@@YA_NAAPADAAPBDE@Z$0 10076c20 f    CIL library: CIL module
 0001:00075c20       __unwindfunclet$?Build_GetLocalEcho@cgiimage@@YA_NAAPADAAPBDE@Z$0 10076c20 f    CIL library: CIL module
 0001:00075c20       __unwindfunclet$?Build_SetVideoEncCut@cgivideo@@YA_NAAPADAAPBDPAXH@Z$0 10076c20 f    CIL library: CIL module
 0001:00075c20       __unwindfunclet$?Build_GetCorrido@cgiimage@@YA_NAAPADAAPBDE@Z$0 10076c20 f    CIL library: CIL module
 0001:00075c2c       __unwindfunclet$?Build_RecoveryDef@cgiimage@@YA_NAAPADAAPBDPAXH@Z$1 10076c2c f    CIL library: CIL module
 0001:00075c2c       __unwindfunclet$?Build_GetNoiseReduce3D@cgiimage@@YA_NAAPADAAPBDE@Z$1 10076c2c f    CIL library: CIL module
 0001:00075c2c       __unwindfunclet$?Build_GetLocalEcho@cgiimage@@YA_NAAPADAAPBDE@Z$1 10076c2c f    CIL library: CIL module
 0001:00075c2c       __unwindfunclet$?Build_GetOsdCap@cgivideo@@YA_NAAPADAAPBDE@Z$1 10076c2c f    CIL library: CIL module
 0001:00075c2c       __unwindfunclet$?Build_GetVideoEncCut@cgivideo@@YA_NAAPADAAPBDE@Z$1 10076c2c f    CIL library: CIL module
 0001:00075c2c       __unwindfunclet$?Build_GetPowerLineFrequency@cgiimage@@YA_NAAPADAAPBDE@Z$1 10076c2c f    CIL library: CIL module
 0001:00075c2c       __unwindfunclet$?Build_GetColor@cgiimage@@YA_NAAPADAAPBDE@Z$1 10076c2c f    CIL library: CIL module
 0001:00075c2c       __unwindfunclet$?Build_GetMulitVideoMode@cgivideo@@YA_NAAPADAAPBDE@Z$1 10076c2c f    CIL library: CIL module
 0001:00075c2c       __unwindfunclet$?Build_GetVideoShield@cgivideo@@YA_NAAPADAAPBDE@Z$1 10076c2c f    CIL library: CIL module
 0001:00075c2c       __unwindfunclet$?Build_GetCorrido@cgiimage@@YA_NAAPADAAPBDE@Z$1 10076c2c f    CIL library: CIL module
 0001:00075c2c       __unwindfunclet$?Build_GetWdr@cgiimage@@YA_NAAPADAAPBDE@Z$1 10076c2c f    CIL library: CIL module
 0001:00075c2c       __unwindfunclet$?Build_GetBlc@cgiimage@@YA_NAAPADAAPBDE@Z$1 10076c2c f    CIL library: CIL module
 0001:00075c2c       __unwindfunclet$?Build_GetOsd@cgivideo@@YA_NAAPADAAPBDE@Z$1 10076c2c f    CIL library: CIL module
 0001:00075c2c       __unwindfunclet$?Build_SendXml_AlarmIn@cgievent@@YA_NAAPBDPAD1@Z$1 10076c2c f    CIL library: CIL module
 0001:00075c2c       __unwindfunclet$?Build_GetNoiseReduce2D@cgiimage@@YA_NAAPADAAPBDE@Z$1 10076c2c f    CIL library: CIL module
 0001:00075c2c       __unwindfunclet$?Build_GetOsdStateQuery@cgivideo@@YA_NAAPADAAPBDE@Z$1 10076c2c f    CIL library: CIL module
 0001:00075c2c       __unwindfunclet$?Build_GetFogThough@cgiimage@@YA_NAAPADAAPBDE@Z$1 10076c2c f    CIL library: CIL module
 0001:00075c2c       __unwindfunclet$?Build_GetSmartIR@cgiimage@@YA_NAAPADAAPBDE@Z$1 10076c2c f    CIL library: CIL module
 0001:00075c2c       __unwindfunclet$?Build_SendXml_AlarmOut@cgievent@@YA_NAAPBDPAD@Z$1 10076c2c f    CIL library: CIL module
 0001:00075c2c       __unwindfunclet$?Build_GetImageMode@cgiimage@@YA_NAAPADAAPBDE@Z$1 10076c2c f    CIL library: CIL module
 0001:00075c2c       __unwindfunclet$?Build_SetVideoEncCut@cgivideo@@YA_NAAPADAAPBDPAXH@Z$1 10076c2c f    CIL library: CIL module
 0001:00075c2c       __unwindfunclet$?Build_GetVideoRoi@cgivideo@@YA_NAAPADAAPBDE@Z$1 10076c2c f    CIL library: CIL module
 0001:00075c2c       __unwindfunclet$?Build_SendXml_Except@cgievent@@YA_NAAPBDPAD1@Z$1 10076c2c f    CIL library: CIL module
 0001:00075c2c       __unwindfunclet$?Build_GetHlc@cgiimage@@YA_NAAPADAAPBDE@Z$1 10076c2c f    CIL library: CIL module
 0001:00075c2c       __unwindfunclet$?Build_GetGamma@cgiimage@@YA_NAAPADAAPBDE@Z$1 10076c2c f    CIL library: CIL module
 0001:00075c2c       __unwindfunclet$?Build_GetOsdList@cgivideo@@YA_NAAPADAAPBDE@Z$1 10076c2c f    CIL library: CIL module
 0001:00075c37       __unwindfunclet$?Build_GetGamma@cgiimage@@YA_NAAPADAAPBDE@Z$2 10076c37 f    CIL library: CIL module
 0001:00075c37       __unwindfunclet$?Build_GetHlc@cgiimage@@YA_NAAPADAAPBDE@Z$2 10076c37 f    CIL library: CIL module
 0001:00075c37       __unwindfunclet$?Build_SetVideoEncCut@cgivideo@@YA_NAAPADAAPBDPAXH@Z$2 10076c37 f    CIL library: CIL module
 0001:00075c37       __unwindfunclet$?Build_GetWdr@cgiimage@@YA_NAAPADAAPBDE@Z$2 10076c37 f    CIL library: CIL module
 0001:00075c37       __unwindfunclet$?Build_GetImageMode@cgiimage@@YA_NAAPADAAPBDE@Z$2 10076c37 f    CIL library: CIL module
 0001:00075c37       __unwindfunclet$?Build_GetVideoEncCut@cgivideo@@YA_NAAPADAAPBDE@Z$2 10076c37 f    CIL library: CIL module
 0001:00075c37       __unwindfunclet$?Build_GetSmartIR@cgiimage@@YA_NAAPADAAPBDE@Z$2 10076c37 f    CIL library: CIL module
 0001:00075c37       __unwindfunclet$?Build_GetOsdList@cgivideo@@YA_NAAPADAAPBDE@Z$2 10076c37 f    CIL library: CIL module
 0001:00075c37       __unwindfunclet$?Build_GetBlc@cgiimage@@YA_NAAPADAAPBDE@Z$2 10076c37 f    CIL library: CIL module
 0001:00075c37       __unwindfunclet$?Build_GetCorrido@cgiimage@@YA_NAAPADAAPBDE@Z$2 10076c37 f    CIL library: CIL module
 0001:00075c37       __unwindfunclet$?Build_GetNoiseReduce2D@cgiimage@@YA_NAAPADAAPBDE@Z$2 10076c37 f    CIL library: CIL module
 0001:00075c37       __unwindfunclet$?Build_GetNoiseReduce3D@cgiimage@@YA_NAAPADAAPBDE@Z$2 10076c37 f    CIL library: CIL module
 0001:00075c37       __unwindfunclet$?Build_GetOsdCap@cgivideo@@YA_NAAPADAAPBDE@Z$2 10076c37 f    CIL library: CIL module
 0001:00075c37       __unwindfunclet$?Build_GetLocalEcho@cgiimage@@YA_NAAPADAAPBDE@Z$2 10076c37 f    CIL library: CIL module
 0001:00075c37       __unwindfunclet$?Build_GetOsdStateQuery@cgivideo@@YA_NAAPADAAPBDE@Z$2 10076c37 f    CIL library: CIL module
 0001:00075c37       __unwindfunclet$?Build_GetPowerLineFrequency@cgiimage@@YA_NAAPADAAPBDE@Z$2 10076c37 f    CIL library: CIL module
 0001:00075c37       __unwindfunclet$?Build_GetVideoShield@cgivideo@@YA_NAAPADAAPBDE@Z$2 10076c37 f    CIL library: CIL module
 0001:00075c37       __unwindfunclet$?Build_GetMulitVideoMode@cgivideo@@YA_NAAPADAAPBDE@Z$2 10076c37 f    CIL library: CIL module
 0001:00075c37       __unwindfunclet$?Build_SendXml_AlarmIn@cgievent@@YA_NAAPBDPAD1@Z$2 10076c37 f    CIL library: CIL module
 0001:00075c37       __unwindfunclet$?Build_GetOsd@cgivideo@@YA_NAAPADAAPBDE@Z$2 10076c37 f    CIL library: CIL module
 0001:00075c37       __unwindfunclet$?Build_SendXml_AlarmOut@cgievent@@YA_NAAPBDPAD@Z$2 10076c37 f    CIL library: CIL module
 0001:00075c37       __unwindfunclet$?Build_SendXml_Except@cgievent@@YA_NAAPBDPAD1@Z$2 10076c37 f    CIL library: CIL module
 0001:00075c37       __unwindfunclet$?Build_RecoveryDef@cgiimage@@YA_NAAPADAAPBDPAXH@Z$2 10076c37 f    CIL library: CIL module
 0001:00075c37       __unwindfunclet$?Build_GetFogThough@cgiimage@@YA_NAAPADAAPBDE@Z$2 10076c37 f    CIL library: CIL module
 0001:00075c37       __unwindfunclet$?Build_GetColor@cgiimage@@YA_NAAPADAAPBDE@Z$2 10076c37 f    CIL library: CIL module
 0001:00075c37       __unwindfunclet$?Build_GetVideoRoi@cgivideo@@YA_NAAPADAAPBDE@Z$2 10076c37 f    CIL library: CIL module
 0001:00075c42       __unwindfunclet$?Build_GetMulitVideoMode@cgivideo@@YA_NAAPADAAPBDE@Z$3 10076c42 f    CIL library: CIL module
 0001:00075c42       __unwindfunclet$?Build_GetVideoEncCut@cgivideo@@YA_NAAPADAAPBDE@Z$3 10076c42 f    CIL library: CIL module
 0001:00075c42       __unwindfunclet$?Build_RecoveryDef@cgiimage@@YA_NAAPADAAPBDPAXH@Z$3 10076c42 f    CIL library: CIL module
 0001:00075c42       __unwindfunclet$?Build_GetColor@cgiimage@@YA_NAAPADAAPBDE@Z$3 10076c42 f    CIL library: CIL module
 0001:00075c42       __unwindfunclet$?Build_GetCorrido@cgiimage@@YA_NAAPADAAPBDE@Z$3 10076c42 f    CIL library: CIL module
 0001:00075c42       __unwindfunclet$?Build_GetOsd@cgivideo@@YA_NAAPADAAPBDE@Z$3 10076c42 f    CIL library: CIL module
 0001:00075c42       __unwindfunclet$?Build_GetHlc@cgiimage@@YA_NAAPADAAPBDE@Z$3 10076c42 f    CIL library: CIL module
 0001:00075c42       __unwindfunclet$?Build_SetVideoEncCut@cgivideo@@YA_NAAPADAAPBDPAXH@Z$3 10076c42 f    CIL library: CIL module
 0001:00075c42       __unwindfunclet$?Build_GetImageMode@cgiimage@@YA_NAAPADAAPBDE@Z$3 10076c42 f    CIL library: CIL module
 0001:00075c42       __unwindfunclet$?Build_GetGamma@cgiimage@@YA_NAAPADAAPBDE@Z$3 10076c42 f    CIL library: CIL module
 0001:00075c42       __unwindfunclet$?Build_GetOsdList@cgivideo@@YA_NAAPADAAPBDE@Z$3 10076c42 f    CIL library: CIL module
 0001:00075c42       __unwindfunclet$?Build_GetWdr@cgiimage@@YA_NAAPADAAPBDE@Z$3 10076c42 f    CIL library: CIL module
 0001:00075c42       __unwindfunclet$?Build_GetOsdStateQuery@cgivideo@@YA_NAAPADAAPBDE@Z$3 10076c42 f    CIL library: CIL module
 0001:00075c42       __unwindfunclet$?Build_GetSmartIR@cgiimage@@YA_NAAPADAAPBDE@Z$3 10076c42 f    CIL library: CIL module
 0001:00075c42       __unwindfunclet$?Build_GetBlc@cgiimage@@YA_NAAPADAAPBDE@Z$3 10076c42 f    CIL library: CIL module
 0001:00075c42       __unwindfunclet$?Build_GetNoiseReduce2D@cgiimage@@YA_NAAPADAAPBDE@Z$3 10076c42 f    CIL library: CIL module
 0001:00075c42       __unwindfunclet$?Build_GetNoiseReduce3D@cgiimage@@YA_NAAPADAAPBDE@Z$3 10076c42 f    CIL library: CIL module
 0001:00075c42       __unwindfunclet$?Build_GetLocalEcho@cgiimage@@YA_NAAPADAAPBDE@Z$3 10076c42 f    CIL library: CIL module
 0001:00075c42       __unwindfunclet$?Build_GetOsdCap@cgivideo@@YA_NAAPADAAPBDE@Z$3 10076c42 f    CIL library: CIL module
 0001:00075c42       __unwindfunclet$?Build_GetPowerLineFrequency@cgiimage@@YA_NAAPADAAPBDE@Z$3 10076c42 f    CIL library: CIL module
 0001:00075c42       __unwindfunclet$?Build_GetVideoShield@cgivideo@@YA_NAAPADAAPBDE@Z$3 10076c42 f    CIL library: CIL module
 0001:00075c42       __unwindfunclet$?Build_SendXml_AlarmIn@cgievent@@YA_NAAPBDPAD1@Z$3 10076c42 f    CIL library: CIL module
 0001:00075c42       __unwindfunclet$?Build_SendXml_AlarmOut@cgievent@@YA_NAAPBDPAD@Z$3 10076c42 f    CIL library: CIL module
 0001:00075c42       __unwindfunclet$?Build_SendXml_Except@cgievent@@YA_NAAPBDPAD1@Z$3 10076c42 f    CIL library: CIL module
 0001:00075c42       __unwindfunclet$?Build_GetFogThough@cgiimage@@YA_NAAPADAAPBDE@Z$3 10076c42 f    CIL library: CIL module
 0001:00075c42       __unwindfunclet$?Build_GetVideoRoi@cgivideo@@YA_NAAPADAAPBDE@Z$3 10076c42 f    CIL library: CIL module
 0001:00075c4e       __ehhandler$?Build_GetVideoEncCut@cgivideo@@YA_NAAPADAAPBDE@Z 10076c4e f    CIL library: CIL module
 0001:00075c4e       __ehhandler$?Build_GetVideoRoi@cgivideo@@YA_NAAPADAAPBDE@Z 10076c4e f    CIL library: CIL module
 0001:00075c4e       __ehhandler$?Build_RecoveryDef@cgiimage@@YA_NAAPADAAPBDPAXH@Z 10076c4e f    CIL library: CIL module
 0001:00075c4e       __ehhandler$?Build_GetVideoShield@cgivideo@@YA_NAAPADAAPBDE@Z 10076c4e f    CIL library: CIL module
 0001:00075c4e       __ehhandler$?Build_GetHlc@cgiimage@@YA_NAAPADAAPBDE@Z 10076c4e f    CIL library: CIL module
 0001:00075c4e       __ehhandler$?Build_GetFogThough@cgiimage@@YA_NAAPADAAPBDE@Z 10076c4e f    CIL library: CIL module
 0001:00075c4e       __ehhandler$?Build_GetColor@cgiimage@@YA_NAAPADAAPBDE@Z 10076c4e f    CIL library: CIL module
 0001:00075c4e       __ehhandler$?Build_GetOsdStateQuery@cgivideo@@YA_NAAPADAAPBDE@Z 10076c4e f    CIL library: CIL module
 0001:00075c4e       __ehhandler$?Build_GetGamma@cgiimage@@YA_NAAPADAAPBDE@Z 10076c4e f    CIL library: CIL module
 0001:00075c4e       __ehhandler$?Build_GetCorrido@cgiimage@@YA_NAAPADAAPBDE@Z 10076c4e f    CIL library: CIL module
 0001:00075c4e       __ehhandler$?Build_GetMulitVideoMode@cgivideo@@YA_NAAPADAAPBDE@Z 10076c4e f    CIL library: CIL module
 0001:00075c4e       __ehhandler$?Build_SetVideoEncCut@cgivideo@@YA_NAAPADAAPBDPAXH@Z 10076c4e f    CIL library: CIL module
 0001:00075c4e       __ehhandler$?Build_GetNoiseReduce2D@cgiimage@@YA_NAAPADAAPBDE@Z 10076c4e f    CIL library: CIL module
 0001:00075c4e       __ehhandler$?Build_GetSmartIR@cgiimage@@YA_NAAPADAAPBDE@Z 10076c4e f    CIL library: CIL module
 0001:00075c4e       __ehhandler$?Build_GetOsdCap@cgivideo@@YA_NAAPADAAPBDE@Z 10076c4e f    CIL library: CIL module
 0001:00075c4e       __ehhandler$?Build_GetBlc@cgiimage@@YA_NAAPADAAPBDE@Z 10076c4e f    CIL library: CIL module
 0001:00075c4e       __ehhandler$?Build_GetNoiseReduce3D@cgiimage@@YA_NAAPADAAPBDE@Z 10076c4e f    CIL library: CIL module
 0001:00075c4e       __ehhandler$?Build_GetLocalEcho@cgiimage@@YA_NAAPADAAPBDE@Z 10076c4e f    CIL library: CIL module
 0001:00075c4e       __ehhandler$?Build_GetPowerLineFrequency@cgiimage@@YA_NAAPADAAPBDE@Z 10076c4e f    CIL library: CIL module
 0001:00075c4e       __ehhandler$?Build_GetOsd@cgivideo@@YA_NAAPADAAPBDE@Z 10076c4e f    CIL library: CIL module
 0001:00075c4e       __ehhandler$?Build_GetWdr@cgiimage@@YA_NAAPADAAPBDE@Z 10076c4e f    CIL library: CIL module
 0001:00075c4e       __ehhandler$?Build_SendXml_AlarmIn@cgievent@@YA_NAAPBDPAD1@Z 10076c4e f    CIL library: CIL module
 0001:00075c4e       __ehhandler$?Build_SendXml_AlarmOut@cgievent@@YA_NAAPBDPAD@Z 10076c4e f    CIL library: CIL module
 0001:00075c4e       __ehhandler$?Build_GetImageMode@cgiimage@@YA_NAAPADAAPBDE@Z 10076c4e f    CIL library: CIL module
 0001:00075c4e       __ehhandler$?Build_GetOsdList@cgivideo@@YA_NAAPADAAPBDE@Z 10076c4e f    CIL library: CIL module
 0001:00075c4e       __ehhandler$?Build_SendXml_Except@cgievent@@YA_NAAPBDPAD1@Z 10076c4e f    CIL library: CIL module
 0001:00075c80       __unwindfunclet$?Analvze_AudioExcept@cgievent@@YA_NPADPAXH@Z$0 10076c80 f    CIL library: CIL module
 0001:00075c80       __unwindfunclet$?Analvze_GetNoiseReduce2D@cgiimage@@YA_NPADPAXAAH02@Z$0 10076c80 f    CIL library: CIL module
 0001:00075c80       __unwindfunclet$?Analvze_SightChange@cgievent@@YA_NPADPAXH@Z$0 10076c80 f    CIL library: CIL module
 0001:00075c80       __unwindfunclet$?Analvze_GetLaser@cgiimage@@YA_NPADPAXAAH02@Z$0 10076c80 f    CIL library: CIL module
 0001:00075c80       __unwindfunclet$?Analvze_VirtualFocus@cgievent@@YA_NPADPAXH@Z$0 10076c80 f    CIL library: CIL module
 0001:00075c80       __unwindfunclet$?Analvze_GetInfrared@cgiimage@@YA_NPADPAXAAH02@Z$0 10076c80 f    CIL library: CIL module
 0001:00075c80       __unwindfunclet$?Analvze_GetOsdStateQuery@cgivideo@@YA_NPADPAXAAH02@Z$0 10076c80 f    CIL library: CIL module
 0001:00075c80       __unwindfunclet$?Analvze_GetOsdList@cgivideo@@YA_NPADPAXAAH@Z$0 10076c80 f    CIL library: CIL module
 0001:00075c80       __unwindfunclet$?Analvze_GetNoiseReduce3D@cgiimage@@YA_NPADPAXAAH02@Z$0 10076c80 f    CIL library: CIL module
 0001:00075c80       __unwindfunclet$?Analvze_GetIrcutFilter@cgiimage@@YA_NPADPAXAAH02@Z$0 10076c80 f    CIL library: CIL module
 0001:00075c8b       __ehhandler$?Analvze_GetOsdStateQuery@cgivideo@@YA_NPADPAXAAH02@Z 10076c8b f    CIL library: CIL module
 0001:00075c8b       __ehhandler$?Analvze_GetIrcutFilter@cgiimage@@YA_NPADPAXAAH02@Z 10076c8b f    CIL library: CIL module
 0001:00075c8b       __ehhandler$?Analvze_GetNoiseReduce3D@cgiimage@@YA_NPADPAXAAH02@Z 10076c8b f    CIL library: CIL module
 0001:00075c8b       __ehhandler$?Analvze_AudioExcept@cgievent@@YA_NPADPAXH@Z 10076c8b f    CIL library: CIL module
 0001:00075c8b       __ehhandler$?Analvze_GetNoiseReduce2D@cgiimage@@YA_NPADPAXAAH02@Z 10076c8b f    CIL library: CIL module
 0001:00075c8b       __ehhandler$?Analvze_SightChange@cgievent@@YA_NPADPAXH@Z 10076c8b f    CIL library: CIL module
 0001:00075c8b       __ehhandler$?Analvze_GetLaser@cgiimage@@YA_NPADPAXAAH02@Z 10076c8b f    CIL library: CIL module
 0001:00075c8b       __ehhandler$?Analvze_VirtualFocus@cgievent@@YA_NPADPAXH@Z 10076c8b f    CIL library: CIL module
 0001:00075c8b       __ehhandler$?Analvze_GetInfrared@cgiimage@@YA_NPADPAXAAH02@Z 10076c8b f    CIL library: CIL module
 0001:00075c8b       __ehhandler$?Analvze_GetOsdList@cgivideo@@YA_NPADPAXAAH@Z 10076c8b f    CIL library: CIL module
 0001:00075cc0       __unwindfunclet$?Analvze_PersonDetect@cgievent@@YA_NPADPAXH@Z$0 10076cc0 f    CIL library: CIL module
 0001:00075ccb       __ehhandler$?Analvze_PersonDetect@cgievent@@YA_NPADPAXH@Z 10076ccb f    CIL library: CIL module
 0001:00075d00       __unwindfunclet$?Analvze_AreaDetect@cgievent@@YA_NPADPAXH@Z$0 10076d00 f    CIL library: CIL module
 0001:00075d00       __unwindfunclet$?Analvze_WarningLine@cgievent@@YA_NPADPAXH@Z$0 10076d00 f    CIL library: CIL module
 0001:00075d00       __unwindfunclet$?Analvze_ObjectDetect@cgievent@@YA_NPADPAXH@Z$0 10076d00 f    CIL library: CIL module
 0001:00075d0b       __ehhandler$?Analvze_WarningLine@cgievent@@YA_NPADPAXH@Z 10076d0b f    CIL library: CIL module
 0001:00075d0b       __ehhandler$?Analvze_ObjectDetect@cgievent@@YA_NPADPAXH@Z 10076d0b f    CIL library: CIL module
 0001:00075d0b       __ehhandler$?Analvze_AreaDetect@cgievent@@YA_NPADPAXH@Z 10076d0b f    CIL library: CIL module
 0001:00075d40       __unwindfunclet$?Analvze_ShieldAlarm@cgievent@@YA_NPADPAXH1H0AAH@Z$0 10076d40 f    CIL library: CIL module
 0001:00075d4b       __ehhandler$?Analvze_ShieldAlarm@cgievent@@YA_NPADPAXH1H0AAH@Z 10076d4b f    CIL library: CIL module
 0001:00075d80       __unwindfunclet$?Analvze_Detect@cgievent@@YA_NPADPAXH1H0AAH@Z$0 10076d80 f    CIL library: CIL module
 0001:00075d8b       __ehhandler$?Analvze_Detect@cgievent@@YA_NPADPAXH1H0AAH@Z 10076d8b f    CIL library: CIL module
 0001:00075dc0       __unwindfunclet$?Analvze_SnapPicConfig@cgistorage@@YA_NPADPAXH0AAH@Z$0 10076dc0 f    CIL library: CIL module
 0001:00075dcb       __ehhandler$?Analvze_SnapPicConfig@cgistorage@@YA_NPADPAXH0AAH@Z 10076dcb f    CIL library: CIL module
 0001:00075e00       __unwindfunclet$?Build_SetStorageFomat@cgistorage@@YA_NAAPADAAPBDPAXH@Z$0 10076e00 f    CIL library: CIL module
 0001:00075e0c       __unwindfunclet$?Build_SetStorageFomat@cgistorage@@YA_NAAPADAAPBDPAXH@Z$1 10076e0c f    CIL library: CIL module
 0001:00075e17       __unwindfunclet$?Build_SetStorageFomat@cgistorage@@YA_NAAPADAAPBDPAXH@Z$2 10076e17 f    CIL library: CIL module
 0001:00075e23       __ehhandler$?Build_SetStorageFomat@cgistorage@@YA_NAAPADAAPBDPAXH@Z 10076e23 f    CIL library: CIL module
 0001:00075e60       __unwindfunclet$?Analvze_StorageManager@cgistorage@@YA_NPADPAXH0AAH@Z$0 10076e60 f    CIL library: CIL module
 0001:00075e6b       __ehhandler$?Analvze_StorageManager@cgistorage@@YA_NPADPAXH0AAH@Z 10076e6b f    CIL library: CIL module
 0001:00075ea0       __unwindfunclet$?Analvze_StorageState@cgistorage@@YA_NPADPAXH0AAH@Z$0 10076ea0 f    CIL library: CIL module
 0001:00075eab       __ehhandler$?Analvze_StorageState@cgistorage@@YA_NPADPAXH0AAH@Z 10076eab f    CIL library: CIL module
 0001:00075ee0       __unwindfunclet$?Analvze_GB28181@cginet@@YA_NPADPAXH1AAH12QADH@Z$0 10076ee0 f    CIL library: CIL module
 0001:00075eeb       __ehhandler$?Analvze_GB28181@cginet@@YA_NPADPAXH1AAH12QADH@Z 10076eeb f    CIL library: CIL module
 0001:00075f20       __unwindfunclet$?Build_SetDpss@cginet@@YA_NAAPADAAPBDPAXH@Z$0 10076f20 f    CIL library: CIL module
 0001:00075f2c       __unwindfunclet$?Build_SetDpss@cginet@@YA_NAAPADAAPBDPAXH@Z$1 10076f2c f    CIL library: CIL module
 0001:00075f37       __unwindfunclet$?Build_SetDpss@cginet@@YA_NAAPADAAPBDPAXH@Z$2 10076f37 f    CIL library: CIL module
 0001:00075f43       __ehhandler$?Build_SetDpss@cginet@@YA_NAAPADAAPBDPAXH@Z 10076f43 f    CIL library: CIL module
 0001:00075f80       __unwindfunclet$?Build_SetVsip@cginet@@YA_NAAPADAAPBDPAXH@Z$0 10076f80 f    CIL library: CIL module
 0001:00075f8c       __unwindfunclet$?Build_SetVsip@cginet@@YA_NAAPADAAPBDPAXH@Z$1 10076f8c f    CIL library: CIL module
 0001:00075f97       __unwindfunclet$?Build_SetVsip@cginet@@YA_NAAPADAAPBDPAXH@Z$2 10076f97 f    CIL library: CIL module
 0001:00075fa3       __ehhandler$?Build_SetVsip@cginet@@YA_NAAPADAAPBDPAXH@Z 10076fa3 f    CIL library: CIL module
 0001:00075fe0       __unwindfunclet$?Analvze_Upnp@cginet@@YA_NPADPAXH1HAAH@Z$0 10076fe0 f    CIL library: CIL module
 0001:00075feb       __ehhandler$?Analvze_Upnp@cginet@@YA_NPADPAXH1HAAH@Z 10076feb f    CIL library: CIL module
 0001:00076020       __unwindfunclet$?Build_Set8021x@cginet@@YA_NAAPADAAPBDPAXH@Z$0 10077020 f    CIL library: CIL module
 0001:0007602c       __unwindfunclet$?Build_Set8021x@cginet@@YA_NAAPADAAPBDPAXH@Z$1 1007702c f    CIL library: CIL module
 0001:00076037       __unwindfunclet$?Build_Set8021x@cginet@@YA_NAAPADAAPBDPAXH@Z$2 10077037 f    CIL library: CIL module
 0001:00076043       __ehhandler$?Build_Set8021x@cginet@@YA_NAAPADAAPBDPAXH@Z 10077043 f    CIL library: CIL module
 0001:00076080       __unwindfunclet$?Analvze_8021x@cginet@@YA_NPADPAXHQADH@Z$0 10077080 f    CIL library: CIL module
 0001:0007608b       __ehhandler$?Analvze_8021x@cginet@@YA_NPADPAXHQADH@Z 1007708b f    CIL library: CIL module
 0001:000760c0       __unwindfunclet$?Build_SetKSnmp@cginet@@YA_NAAPADAAPBDPAXH@Z$0 100770c0 f    CIL library: CIL module
 0001:000760cc       __unwindfunclet$?Build_SetKSnmp@cginet@@YA_NAAPADAAPBDPAXH@Z$1 100770cc f    CIL library: CIL module
 0001:000760d7       __unwindfunclet$?Build_SetKSnmp@cginet@@YA_NAAPADAAPBDPAXH@Z$2 100770d7 f    CIL library: CIL module
 0001:000760e3       __ehhandler$?Build_SetKSnmp@cginet@@YA_NAAPADAAPBDPAXH@Z 100770e3 f    CIL library: CIL module
 0001:00076120       __unwindfunclet$?Build_SetPppoe@cginet@@YA_NAAPADAAPBDPAXH@Z$0 10077120 f    CIL library: CIL module
 0001:0007612c       __unwindfunclet$?Build_SetPppoe@cginet@@YA_NAAPADAAPBDPAXH@Z$1 1007712c f    CIL library: CIL module
 0001:00076137       __unwindfunclet$?Build_SetPppoe@cginet@@YA_NAAPADAAPBDPAXH@Z$2 10077137 f    CIL library: CIL module
 0001:00076143       __ehhandler$?Build_SetPppoe@cginet@@YA_NAAPADAAPBDPAXH@Z 10077143 f    CIL library: CIL module
 0001:00076180       __unwindfunclet$?Analvze_AssMalfInfo@cgiimage@@YA_NPADPAXH@Z$0 10077180 f    CIL library: CIL module
 0001:00076180       __unwindfunclet$?Analvze_Dpss@cginet@@YA_NPADPAXH@Z$0 10077180 f    CIL library: CIL module
 0001:00076180       __unwindfunclet$?Analvze_GetMTCF@cgiimage@@YA_NPADPAXH@Z$0 10077180 f    CIL library: CIL module
 0001:00076180       __unwindfunclet$?Analvze_Vsip@cginet@@YA_NPADPAXH@Z$0 10077180 f    CIL library: CIL module
 0001:00076180       __unwindfunclet$?Analvze_KSnmp@cginet@@YA_NPADPAXH@Z$0 10077180 f    CIL library: CIL module
 0001:00076180       __unwindfunclet$?Analvze_PPPoE@cginet@@YA_NPADPAXH@Z$0 10077180 f    CIL library: CIL module
 0001:0007618b       __ehhandler$?Analvze_GetMTCF@cgiimage@@YA_NPADPAXH@Z 1007718b f    CIL library: CIL module
 0001:0007618b       __ehhandler$?Analvze_AssMalfInfo@cgiimage@@YA_NPADPAXH@Z 1007718b f    CIL library: CIL module
 0001:0007618b       __ehhandler$?Analvze_Dpss@cginet@@YA_NPADPAXH@Z 1007718b f    CIL library: CIL module
 0001:0007618b       __ehhandler$?Analvze_Vsip@cginet@@YA_NPADPAXH@Z 1007718b f    CIL library: CIL module
 0001:0007618b       __ehhandler$?Analvze_KSnmp@cginet@@YA_NPADPAXH@Z 1007718b f    CIL library: CIL module
 0001:0007618b       __ehhandler$?Analvze_PPPoE@cginet@@YA_NPADPAXH@Z 1007718b f    CIL library: CIL module
 0001:000761c0       __unwindfunclet$?Build_SetDdns@cginet@@YA_NAAPADAAPBDPAXH@Z$0 100771c0 f    CIL library: CIL module
 0001:000761cc       __unwindfunclet$?Build_SetDdns@cginet@@YA_NAAPADAAPBDPAXH@Z$1 100771cc f    CIL library: CIL module
 0001:000761d7       __unwindfunclet$?Build_SetDdns@cginet@@YA_NAAPADAAPBDPAXH@Z$2 100771d7 f    CIL library: CIL module
 0001:000761e3       __ehhandler$?Build_SetDdns@cginet@@YA_NAAPADAAPBDPAXH@Z 100771e3 f    CIL library: CIL module
 0001:00076220       __unwindfunclet$?Analvze_Ddns@cginet@@YA_NPADPAXHQADH@Z$0 10077220 f    CIL library: CIL module
 0001:0007622b       __ehhandler$?Analvze_Ddns@cginet@@YA_NPADPAXHQADH@Z 1007722b f    CIL library: CIL module
 0001:00076260       __unwindfunclet$?Build_SetIp@cginet@@YA_NAAPADAAPBDPAXH@Z$0 10077260 f    CIL library: CIL module
 0001:0007626c       __unwindfunclet$?Build_SetIp@cginet@@YA_NAAPADAAPBDPAXH@Z$1 1007726c f    CIL library: CIL module
 0001:00076277       __unwindfunclet$?Build_SetIp@cginet@@YA_NAAPADAAPBDPAXH@Z$2 10077277 f    CIL library: CIL module
 0001:00076283       __ehhandler$?Build_SetIp@cginet@@YA_NAAPADAAPBDPAXH@Z 10077283 f    CIL library: CIL module
 0001:000762c0       __unwindfunclet$?Analvze_IP@cginet@@YA_NPADPAXH@Z$0 100772c0 f    CIL library: CIL module
 0001:000762cb       __ehhandler$?Analvze_IP@cginet@@YA_NPADPAXH@Z 100772cb f    CIL library: CIL module
 0001:00076300       __unwindfunclet$?Analvze_RecSchedule@cgistorage@@YA_NPADPAXH0AAH@Z$0 10077300 f    CIL library: CIL module
 0001:00076300       __unwindfunclet$?Analvze_GetUsers@cgisecurity@@YA_NPADPAXAAH2@Z$0 10077300 f    CIL library: CIL module
 0001:0007630b       __ehhandler$?Analvze_RecSchedule@cgistorage@@YA_NPADPAXH0AAH@Z 1007730b f    CIL library: CIL module
 0001:0007630b       __ehhandler$?Analvze_GetUsers@cgisecurity@@YA_NPADPAXAAH2@Z 1007730b f    CIL library: CIL module
 0001:00076340       __unwindfunclet$?Build_SendXml_SetUsers@cgisecurity@@YA_NPADPBDPAXH@Z$0 10077340 f    CIL library: CIL module
 0001:0007634c       __unwindfunclet$?Build_SendXml_SetUsers@cgisecurity@@YA_NPADPBDPAXH@Z$1 1007734c f    CIL library: CIL module
 0001:00076357       __unwindfunclet$?Build_SendXml_SetUsers@cgisecurity@@YA_NPADPBDPAXH@Z$2 10077357 f    CIL library: CIL module
 0001:00076363       __ehhandler$?Build_SendXml_SetUsers@cgisecurity@@YA_NPADPBDPAXH@Z 10077363 f    CIL library: CIL module
 0001:000763a0       __unwindfunclet$?Analvze_TimeAuto@cgisystem@@YA_NPADPAXH@Z$0 100773a0 f    CIL library: CIL module
 0001:000763ab       __ehhandler$?Analvze_TimeAuto@cgisystem@@YA_NPADPAXH@Z 100773ab f    CIL library: CIL module
 0001:000763e0       __unwindfunclet$?Analvze_SystemTime@cgisystem@@YA_NPADPAXAAH@Z$0 100773e0 f    CIL library: CIL module
 0001:000763eb       __ehhandler$?Analvze_SystemTime@cgisystem@@YA_NPADPAXAAH@Z 100773eb f    CIL library: CIL module
 0001:00076420       __unwindfunclet$?Build_SendXml_TimeAuto@cgisystem@@YA_NPADPBDPAXH@Z$0 10077420 f    CIL library: CIL module
 0001:0007642c       __unwindfunclet$?Build_SendXml_TimeAuto@cgisystem@@YA_NPADPBDPAXH@Z$1 1007742c f    CIL library: CIL module
 0001:00076437       __unwindfunclet$?Build_SendXml_TimeAuto@cgisystem@@YA_NPADPBDPAXH@Z$2 10077437 f    CIL library: CIL module
 0001:00076443       __ehhandler$?Build_SendXml_TimeAuto@cgisystem@@YA_NPADPBDPAXH@Z 10077443 f    CIL library: CIL module
 0001:00076480       __unwindfunclet$?Analvze_PtzPreset@cgiptz@@YA_NPADEPAXH@Z$0 10077480 f    CIL library: CIL module
 0001:00076480       __unwindfunclet$?Analvze_GetGamma@cgiimage@@YA_NPADPAXAAH@Z$0 10077480 f    CIL library: CIL module
 0001:00076480       __unwindfunclet$?Analvze_AlarmOut@cgievent@@YA_NPADPAXH@Z$0 10077480 f    CIL library: CIL module
 0001:00076480       __unwindfunclet$?Analvze_PtzRatio@cgiptz@@YA_NPADPAXH@Z$0 10077480 f    CIL library: CIL module
 0001:00076480       __unwindfunclet$?Analvze_GetAdvance@cgisystem@@YA_NPADPAXH@Z$0 10077480 f    CIL library: CIL module
 0001:00076480       __unwindfunclet$?Analvze_GetWdr@cgiimage@@YA_NPADPAXAAH@Z$0 10077480 f    CIL library: CIL module
 0001:00076480       __unwindfunclet$?Analvze_Qos@cginet@@YA_NPADPAXH@Z$0 10077480 f    CIL library: CIL module
 0001:00076480       __unwindfunclet$?Analvze_GetMulitVideoMode@cgivideo@@YA_NPADPAXAAH@Z$0 10077480 f    CIL library: CIL module
 0001:00076480       __unwindfunclet$?Analvze_GetRSInfo@cgisystem@@YA_NPADPAXH@Z$0 10077480 f    CIL library: CIL module
 0001:00076480       __unwindfunclet$?Analvze_CallState@cgivideo@@YA_NPADPAXAAH@Z$0 10077480 f    CIL library: CIL module
 0001:00076480       __unwindfunclet$?Analvze_GetFogThough@cgiimage@@YA_NPADPAXAAH@Z$0 10077480 f    CIL library: CIL module
 0001:00076480       __unwindfunclet$?Analvze_GetFillLight@cgiimage@@YA_NPADPAXH@Z$0 10077480 f    CIL library: CIL module
 0001:00076480       __unwindfunclet$?Analvze_PtzMainTain@cgiptz@@YA_NPADPAXH@Z$0 10077480 f    CIL library: CIL module
 0001:00076480       __unwindfunclet$?Analvze_ExceptType@cgievent@@YA_NPADPAXH@Z$0 10077480 f    CIL library: CIL module
 0001:00076480       __unwindfunclet$?Analvze_Onvif@cginet@@YA_NPADPAXH@Z$0 10077480 f    CIL library: CIL module
 0001:00076480       __unwindfunclet$?Analvze_FomatProgress@cgistorage@@YA_NPADPAXH@Z$0 10077480 f    CIL library: CIL module
 0001:00076480       __unwindfunclet$?Analvze_GetSmartIR@cgiimage@@YA_NPADPAXAAH@Z$0 10077480 f    CIL library: CIL module
 0001:00076480       __unwindfunclet$?Analvze_PtzLimit@cgiptz@@YA_NPADPAXH@Z$0 10077480 f    CIL library: CIL module
 0001:00076480       __unwindfunclet$?Analvze_PtzBase@cgiptz@@YA_NPADPAXH@Z$0 10077480 f    CIL library: CIL module
 0001:0007648b       __ehhandler$?Analvze_PtzBase@cgiptz@@YA_NPADPAXH@Z 1007748b f    CIL library: CIL module
 0001:0007648b       __ehhandler$?Analvze_PtzMainTain@cgiptz@@YA_NPADPAXH@Z 1007748b f    CIL library: CIL module
 0001:0007648b       __ehhandler$?Analvze_GetRSInfo@cgisystem@@YA_NPADPAXH@Z 1007748b f    CIL library: CIL module
 0001:0007648b       __ehhandler$?Analvze_GetSmartIR@cgiimage@@YA_NPADPAXAAH@Z 1007748b f    CIL library: CIL module
 0001:0007648b       __ehhandler$?Analvze_CallState@cgivideo@@YA_NPADPAXAAH@Z 1007748b f    CIL library: CIL module
 0001:0007648b       __ehhandler$?Analvze_GetAdvance@cgisystem@@YA_NPADPAXH@Z 1007748b f    CIL library: CIL module
 0001:0007648b       __ehhandler$?Analvze_PtzRatio@cgiptz@@YA_NPADPAXH@Z 1007748b f    CIL library: CIL module
 0001:0007648b       __ehhandler$?Analvze_GetGamma@cgiimage@@YA_NPADPAXAAH@Z 1007748b f    CIL library: CIL module
 0001:0007648b       __ehhandler$?Analvze_Qos@cginet@@YA_NPADPAXH@Z 1007748b f    CIL library: CIL module
 0001:0007648b       __ehhandler$?Analvze_GetWdr@cgiimage@@YA_NPADPAXAAH@Z 1007748b f    CIL library: CIL module
 0001:0007648b       __ehhandler$?Analvze_ExceptType@cgievent@@YA_NPADPAXH@Z 1007748b f    CIL library: CIL module
 0001:0007648b       __ehhandler$?Analvze_GetFogThough@cgiimage@@YA_NPADPAXAAH@Z 1007748b f    CIL library: CIL module
 0001:0007648b       __ehhandler$?Analvze_AlarmOut@cgievent@@YA_NPADPAXH@Z 1007748b f    CIL library: CIL module
 0001:0007648b       __ehhandler$?Analvze_PtzPreset@cgiptz@@YA_NPADEPAXH@Z 1007748b f    CIL library: CIL module
 0001:0007648b       __ehhandler$?Analvze_GetMulitVideoMode@cgivideo@@YA_NPADPAXAAH@Z 1007748b f    CIL library: CIL module
 0001:0007648b       __ehhandler$?Analvze_GetFillLight@cgiimage@@YA_NPADPAXH@Z 1007748b f    CIL library: CIL module
 0001:0007648b       __ehhandler$?Analvze_PtzLimit@cgiptz@@YA_NPADPAXH@Z 1007748b f    CIL library: CIL module
 0001:0007648b       __ehhandler$?Analvze_Onvif@cginet@@YA_NPADPAXH@Z 1007748b f    CIL library: CIL module
 0001:0007648b       __ehhandler$?Analvze_FomatProgress@cgistorage@@YA_NPADPAXH@Z 1007748b f    CIL library: CIL module
 0001:000764c0       __unwindfunclet$?Analvze_AssTeleZoomInfo@cgiimage@@YA_NPADPAXH@Z$0 100774c0 f    CIL library: CIL module
 0001:000764cb       __ehhandler$?Analvze_AssTeleZoomInfo@cgiimage@@YA_NPADPAXH@Z 100774cb f    CIL library: CIL module
 0001:00076500       __unwindfunclet$?Build_SetBlc@cgiimage@@YA_NAAPADAAPBDPAXH@Z$0 10077500 f    CIL library: CIL module
 0001:0007650c       __unwindfunclet$?Build_SetBlc@cgiimage@@YA_NAAPADAAPBDPAXH@Z$1 1007750c f    CIL library: CIL module
 0001:00076517       __unwindfunclet$?Build_SetBlc@cgiimage@@YA_NAAPADAAPBDPAXH@Z$2 10077517 f    CIL library: CIL module
 0001:00076522       __unwindfunclet$?Build_SetBlc@cgiimage@@YA_NAAPADAAPBDPAXH@Z$3 10077522 f    CIL library: CIL module
 0001:0007652e       __ehhandler$?Build_SetBlc@cgiimage@@YA_NAAPADAAPBDPAXH@Z 1007752e f    CIL library: CIL module
 0001:00076560       __unwindfunclet$?Build_SetInfrared@cgiimage@@YA_NAAPADAAPBDPAXH@Z$0 10077560 f    CIL library: CIL module
 0001:00076560       __unwindfunclet$?Build_SetFocus@cgiimage@@YA_NAAPADAAPBDPAXH@Z$0 10077560 f    CIL library: CIL module
 0001:00076560       __unwindfunclet$?Build_GetRtspURL_CgiMeta@cgivideo@@YA_NAAPADPADPAXAAPBD2HH@Z$0 10077560 f    CIL library: CIL module
 0001:00076560       __unwindfunclet$?Build_SetLaser@cgiimage@@YA_NAAPADAAPBDPAXH@Z$0 10077560 f    CIL library: CIL module
 0001:00076560       __unwindfunclet$?Build_SetShutter@cgiimage@@YA_NAAPADAAPBDPAXH@Z$0 10077560 f    CIL library: CIL module
 0001:0007656c       __unwindfunclet$?Build_GetRtspURL_CgiMeta@cgivideo@@YA_NAAPADPADPAXAAPBD2HH@Z$1 1007756c f    CIL library: CIL module
 0001:0007656c       __unwindfunclet$?Build_SetFocus@cgiimage@@YA_NAAPADAAPBDPAXH@Z$1 1007756c f    CIL library: CIL module
 0001:0007656c       __unwindfunclet$?Build_SetShutter@cgiimage@@YA_NAAPADAAPBDPAXH@Z$1 1007756c f    CIL library: CIL module
 0001:0007656c       __unwindfunclet$?Build_SetLaser@cgiimage@@YA_NAAPADAAPBDPAXH@Z$1 1007756c f    CIL library: CIL module
 0001:0007656c       __unwindfunclet$?Build_SetInfrared@cgiimage@@YA_NAAPADAAPBDPAXH@Z$1 1007756c f    CIL library: CIL module
 0001:00076577       __unwindfunclet$?Build_SetFocus@cgiimage@@YA_NAAPADAAPBDPAXH@Z$2 10077577 f    CIL library: CIL module
 0001:00076577       __unwindfunclet$?Build_SetInfrared@cgiimage@@YA_NAAPADAAPBDPAXH@Z$2 10077577 f    CIL library: CIL module
 0001:00076577       __unwindfunclet$?Build_GetRtspURL_CgiMeta@cgivideo@@YA_NAAPADPADPAXAAPBD2HH@Z$2 10077577 f    CIL library: CIL module
 0001:00076577       __unwindfunclet$?Build_SetShutter@cgiimage@@YA_NAAPADAAPBDPAXH@Z$2 10077577 f    CIL library: CIL module
 0001:00076577       __unwindfunclet$?Build_SetLaser@cgiimage@@YA_NAAPADAAPBDPAXH@Z$2 10077577 f    CIL library: CIL module
 0001:00076583       __ehhandler$?Build_SetFocus@cgiimage@@YA_NAAPADAAPBDPAXH@Z 10077583 f    CIL library: CIL module
 0001:00076583       __ehhandler$?Build_SetShutter@cgiimage@@YA_NAAPADAAPBDPAXH@Z 10077583 f    CIL library: CIL module
 0001:00076583       __ehhandler$?Build_SetInfrared@cgiimage@@YA_NAAPADAAPBDPAXH@Z 10077583 f    CIL library: CIL module
 0001:00076583       __ehhandler$?Build_GetRtspURL_CgiMeta@cgivideo@@YA_NAAPADPADPAXAAPBD2HH@Z 10077583 f    CIL library: CIL module
 0001:00076583       __ehhandler$?Build_SetLaser@cgiimage@@YA_NAAPADAAPBDPAXH@Z 10077583 f    CIL library: CIL module
 0001:000765c0       __unwindfunclet$?Analvze_GetWhiteBlance@cgiimage@@YA_NPADPAXAAH02@Z$0 100775c0 f    CIL library: CIL module
 0001:000765c0       __unwindfunclet$?Analvze_GetFocus@cgiimage@@YA_NPADPAXAAH02@Z$0 100775c0 f    CIL library: CIL module
 0001:000765c0       __unwindfunclet$?Analvze_GetAudioEnc@cgivideo@@YA_NPADPAXAAH02@Z$0 100775c0 f    CIL library: CIL module
 0001:000765c0       __unwindfunclet$?Analvze_GetShutter@cgiimage@@YA_NPADPAXAAH02@Z$0 100775c0 f    CIL library: CIL module
 0001:000765cb       __ehhandler$?Analvze_GetShutter@cgiimage@@YA_NPADPAXAAH02@Z 100775cb f    CIL library: CIL module
 0001:000765cb       __ehhandler$?Analvze_GetAudioEnc@cgivideo@@YA_NPADPAXAAH02@Z 100775cb f    CIL library: CIL module
 0001:000765cb       __ehhandler$?Analvze_GetFocus@cgiimage@@YA_NPADPAXAAH02@Z 100775cb f    CIL library: CIL module
 0001:000765cb       __ehhandler$?Analvze_GetWhiteBlance@cgiimage@@YA_NPADPAXAAH02@Z 100775cb f    CIL library: CIL module
 0001:00076600       __unwindfunclet$?Build_SetIris@cgiimage@@YA_NAAPADAAPBDPAXH@Z$0 10077600 f    CIL library: CIL module
 0001:00076600       __unwindfunclet$?Build_SetGain@cgiimage@@YA_NAAPADAAPBDPAXH@Z$0 10077600 f    CIL library: CIL module
 0001:0007660c       __unwindfunclet$?Build_SetGain@cgiimage@@YA_NAAPADAAPBDPAXH@Z$1 1007760c f    CIL library: CIL module
 0001:0007660c       __unwindfunclet$?Build_SetIris@cgiimage@@YA_NAAPADAAPBDPAXH@Z$1 1007760c f    CIL library: CIL module
 0001:00076617       __unwindfunclet$?Build_SetIris@cgiimage@@YA_NAAPADAAPBDPAXH@Z$2 10077617 f    CIL library: CIL module
 0001:00076617       __unwindfunclet$?Build_SetGain@cgiimage@@YA_NAAPADAAPBDPAXH@Z$2 10077617 f    CIL library: CIL module
 0001:00076623       __ehhandler$?Build_SetIris@cgiimage@@YA_NAAPADAAPBDPAXH@Z 10077623 f    CIL library: CIL module
 0001:00076623       __ehhandler$?Build_SetGain@cgiimage@@YA_NAAPADAAPBDPAXH@Z 10077623 f    CIL library: CIL module
 0001:00076660       __unwindfunclet$?Analvze_GetGain@cgiimage@@YA_NPADPAXAAH@Z$0 10077660 f    CIL library: CIL module
 0001:00076660       __unwindfunclet$?Analvze_GetIris@cgiimage@@YA_NPADPAXAAH@Z$0 10077660 f    CIL library: CIL module
 0001:00076660       __unwindfunclet$?Analvze_GetAudioDec@cgivideo@@YA_NPADPAXAAH@Z$0 10077660 f    CIL library: CIL module
 0001:00076660       __unwindfunclet$?Analvze_DeviceInfo@cgisystem@@YA_NPADPAXH@Z$0 10077660 f    CIL library: CIL module
 0001:00076660       __unwindfunclet$?Analvze_Wlan@cginet@@YA_NPADPAXH@Z$0 10077660 f    CIL library: CIL module
 0001:00076660       __unwindfunclet$?Analvze_GetVideoVolume_Rtcp@cgivideo@@YA_NPADPAXAAH@Z$0 10077660 f    CIL library: CIL module
 0001:00076660       __unwindfunclet$?Analvze_SnapEvent@cgistorage@@YA_NPADPAXH@Z$0 10077660 f    CIL library: CIL module
 0001:00076660       __unwindfunclet$?Analvze_GetVideoEncCut@cgivideo@@YA_NPADPAXAAH@Z$0 10077660 f    CIL library: CIL module
 0001:00076660       __unwindfunclet$?Analvze_GetDST@cgisystem@@YA_NPADPAXH@Z$0 10077660 f    CIL library: CIL module
 0001:00076660       __unwindfunclet$?Analvze_NetPort@cginet@@YA_NPADPAXH@Z$0 10077660 f    CIL library: CIL module
 0001:00076660       __unwindfunclet$?Analvze_TransData@cginormal@@YA_NPAD00AAH@Z$0 10077660 f    CIL library: CIL module
 0001:00076660       __unwindfunclet$?Analvze_SnapTime@cgistorage@@YA_NPADPAXH@Z$0 10077660 f    CIL library: CIL module
 0001:00076660       __unwindfunclet$?Analvze_StartRecordPlay@cgivideo@@YA_NPADAAHPAXH@Z$0 10077660 f    CIL library: CIL module
 0001:00076660       __unwindfunclet$?Analvze_Getrecplaystate@cgivideo@@YA_NPADPAXAAH@Z$0 10077660 f    CIL library: CIL module
 0001:0007666b       __ehhandler$?Analvze_TransData@cginormal@@YA_NPAD00AAH@Z 1007766b f    CIL library: CIL module
 0001:0007666b       __ehhandler$?Analvze_NetPort@cginet@@YA_NPADPAXH@Z 1007766b f    CIL library: CIL module
 0001:0007666b       __ehhandler$?Analvze_GetGain@cgiimage@@YA_NPADPAXAAH@Z 1007766b f    CIL library: CIL module
 0001:0007666b       __ehhandler$?Analvze_GetDST@cgisystem@@YA_NPADPAXH@Z 1007766b f    CIL library: CIL module
 0001:0007666b       __ehhandler$?Analvze_SnapTime@cgistorage@@YA_NPADPAXH@Z 1007766b f    CIL library: CIL module
 0001:0007666b       __ehhandler$?Analvze_Wlan@cginet@@YA_NPADPAXH@Z 1007766b f    CIL library: CIL module
 0001:0007666b       __ehhandler$?Analvze_GetVideoEncCut@cgivideo@@YA_NPADPAXAAH@Z 1007766b f    CIL library: CIL module
 0001:0007666b       __ehhandler$?Analvze_SnapEvent@cgistorage@@YA_NPADPAXH@Z 1007766b f    CIL library: CIL module
 0001:0007666b       __ehhandler$?Analvze_DeviceInfo@cgisystem@@YA_NPADPAXH@Z 1007766b f    CIL library: CIL module
 0001:0007666b       __ehhandler$?Analvze_GetAudioDec@cgivideo@@YA_NPADPAXAAH@Z 1007766b f    CIL library: CIL module
 0001:0007666b       __ehhandler$?Analvze_GetIris@cgiimage@@YA_NPADPAXAAH@Z 1007766b f    CIL library: CIL module
 0001:0007666b       __ehhandler$?Analvze_Getrecplaystate@cgivideo@@YA_NPADPAXAAH@Z 1007766b f    CIL library: CIL module
 0001:0007666b       __ehhandler$?Analvze_GetVideoVolume_Rtcp@cgivideo@@YA_NPADPAXAAH@Z 1007766b f    CIL library: CIL module
 0001:0007666b       __ehhandler$?Analvze_StartRecordPlay@cgivideo@@YA_NPADAAHPAXH@Z 1007766b f    CIL library: CIL module
 0001:000766a0       __unwindfunclet$?Build_SetIrcutFilter@cgiimage@@YA_NAAPADAAPBDPAXH@Z$0 100776a0 f    CIL library: CIL module
 0001:000766ac       __unwindfunclet$?Build_SetIrcutFilter@cgiimage@@YA_NAAPADAAPBDPAXH@Z$1 100776ac f    CIL library: CIL module
 0001:000766b7       __unwindfunclet$?Build_SetIrcutFilter@cgiimage@@YA_NAAPADAAPBDPAXH@Z$2 100776b7 f    CIL library: CIL module
 0001:000766c3       __ehhandler$?Build_SetIrcutFilter@cgiimage@@YA_NAAPADAAPBDPAXH@Z 100776c3 f    CIL library: CIL module
 0001:00076700       __unwindfunclet$?Analvze_GetPowerLineFrequency@cgiimage@@YA_NPADPAXAAH02@Z$0 10077700 f    CIL library: CIL module
 0001:00076700       __unwindfunclet$?Analvze_GetLocalEcho@cgiimage@@YA_NPADPAXAAH02@Z$0 10077700 f    CIL library: CIL module
 0001:00076700       __unwindfunclet$?Analvze_GetDownload@cgisystem@@YA_NPADPAH10@Z$0 10077700 f    CIL library: CIL module
 0001:00076700       __unwindfunclet$?Analvze_StartVideo_Rtcp@cgivideo@@YA_NPADAAKPAXAAHH@Z$0 10077700 f    CIL library: CIL module
 0001:00076700       __unwindfunclet$?Analvze_GetImageMode@cgiimage@@YA_NPADPAXAAH02@Z$0 10077700 f    CIL library: CIL module
 0001:00076700       __unwindfunclet$?Analvze_GetColor@cgiimage@@YA_NPADPAXAAH@Z$0 10077700 f    CIL library: CIL module
 0001:00076700       __unwindfunclet$?Analvze_GetCorrido@cgiimage@@YA_NPADPAXAAH02@Z$0 10077700 f    CIL library: CIL module
 0001:00076700       __unwindfunclet$?Analvze_GetUploadState@cgisystem@@YA_NPAD0PAH@Z$0 10077700 f    CIL library: CIL module
 0001:00076700       __unwindfunclet$?Analvze_PtzPatterns@cgiptz@@YA_NPADPAXAAH@Z$0 10077700 f    CIL library: CIL module
 0001:0007670b       __ehhandler$?Analvze_PtzPatterns@cgiptz@@YA_NPADPAXAAH@Z 1007770b f    CIL library: CIL module
 0001:0007670b       __ehhandler$?Analvze_GetImageMode@cgiimage@@YA_NPADPAXAAH02@Z 1007770b f    CIL library: CIL module
 0001:0007670b       __ehhandler$?Analvze_GetLocalEcho@cgiimage@@YA_NPADPAXAAH02@Z 1007770b f    CIL library: CIL module
 0001:0007670b       __ehhandler$?Analvze_GetDownload@cgisystem@@YA_NPADPAH10@Z 1007770b f    CIL library: CIL module
 0001:0007670b       __ehhandler$?Analvze_StartVideo_Rtcp@cgivideo@@YA_NPADAAKPAXAAHH@Z 1007770b f    CIL library: CIL module
 0001:0007670b       __ehhandler$?Analvze_GetPowerLineFrequency@cgiimage@@YA_NPADPAXAAH02@Z 1007770b f    CIL library: CIL module
 0001:0007670b       __ehhandler$?Analvze_GetCorrido@cgiimage@@YA_NPADPAXAAH02@Z 1007770b f    CIL library: CIL module
 0001:0007670b       __ehhandler$?Analvze_GetUploadState@cgisystem@@YA_NPAD0PAH@Z 1007770b f    CIL library: CIL module
 0001:0007670b       __ehhandler$?Analvze_GetColor@cgiimage@@YA_NPADPAXAAH@Z 1007770b f    CIL library: CIL module
 0001:00076740       __unwindfunclet$?Build_StopRecordPlay@cgivideo@@YA_NAAPADAAPBDK@Z$0 10077740 f    CIL library: CIL module
 0001:00076740       __unwindfunclet$?Build_PauseRecordPlay@cgivideo@@YA_NAAPADAAPBDK@Z$0 10077740 f    CIL library: CIL module
 0001:00076740       __unwindfunclet$?Build_SetNetPort@cginet@@YA_NAAPADAAPBDPAXH@Z$0 10077740 f    CIL library: CIL module
 0001:00076740       __unwindfunclet$?Build_SetWlan@cginet@@YA_NAAPADAAPBDPAXH@Z$0 10077740 f    CIL library: CIL module
 0001:00076740       __unwindfunclet$?Build_SendXml_SetPreUploadCfg@cgisystem@@YA_NPADPBDPAXH@Z$0 10077740 f    CIL library: CIL module
 0001:00076740       __unwindfunclet$?Build_MoveRecordPlay@cgivideo@@YA_NAAPADAAPBDKPAXH@Z$0 10077740 f    CIL library: CIL module
 0001:00076740       __unwindfunclet$?Build_AssMalfInfo@cgiimage@@YA_NAAPADAAPBDPAXH@Z$0 10077740 f    CIL library: CIL module
 0001:00076740       __unwindfunclet$?Build_SetRecordPlayRate@cgivideo@@YA_NAAPADAAPBDKK@Z$0 10077740 f    CIL library: CIL module
 0001:00076740       __unwindfunclet$?Build_SetQos@cginet@@YA_NAAPADAAPBDPAXH@Z$0 10077740 f    CIL library: CIL module
 0001:00076740       __unwindfunclet$?Build_SetFillLight@cgiimage@@YA_NAAPADAAPBDPAXH@Z$0 10077740 f    CIL library: CIL module
 0001:00076740       __unwindfunclet$?Build_SetOnvif@cginet@@YA_NAAPADAAPBDPAXH@Z$0 10077740 f    CIL library: CIL module
 0001:00076740       __unwindfunclet$?Build_SetAuthMode@cginet@@YA_NAAPADAAPBDPAXH@Z$0 10077740 f    CIL library: CIL module
 0001:00076740       __unwindfunclet$?Build_SetVideoVolume_Rtcp@cgivideo@@YA_NAAPADAAPBDPAXH@Z$0 10077740 f    CIL library: CIL module
 0001:00076740       __unwindfunclet$?Build_SendXml_DeviceInfo@cgisystem@@YA_NPADPBDPAXH@Z$0 10077740 f    CIL library: CIL module
 0001:00076740       __unwindfunclet$?Build_SendXml_SetSSH@cgisystem@@YA_NPADPBD_N@Z$0 10077740 f    CIL library: CIL module
 0001:00076740       __unwindfunclet$?Build_ResumeRecordPlay@cgivideo@@YA_NAAPADAAPBDK@Z$0 10077740 f    CIL library: CIL module
 0001:0007674c       __unwindfunclet$?Build_SetAuthMode@cginet@@YA_NAAPADAAPBDPAXH@Z$1 1007774c f    CIL library: CIL module
 0001:0007674c       __unwindfunclet$?Build_SetOnvif@cginet@@YA_NAAPADAAPBDPAXH@Z$1 1007774c f    CIL library: CIL module
 0001:0007674c       __unwindfunclet$?Build_SetWlan@cginet@@YA_NAAPADAAPBDPAXH@Z$1 1007774c f    CIL library: CIL module
 0001:0007674c       __unwindfunclet$?Build_PauseRecordPlay@cgivideo@@YA_NAAPADAAPBDK@Z$1 1007774c f    CIL library: CIL module
 0001:0007674c       __unwindfunclet$?Build_ResumeRecordPlay@cgivideo@@YA_NAAPADAAPBDK@Z$1 1007774c f    CIL library: CIL module
 0001:0007674c       __unwindfunclet$?Build_SendXml_SetSSH@cgisystem@@YA_NPADPBD_N@Z$1 1007774c f    CIL library: CIL module
 0001:0007674c       __unwindfunclet$?Build_StopRecordPlay@cgivideo@@YA_NAAPADAAPBDK@Z$1 1007774c f    CIL library: CIL module
 0001:0007674c       __unwindfunclet$?Build_MoveRecordPlay@cgivideo@@YA_NAAPADAAPBDKPAXH@Z$1 1007774c f    CIL library: CIL module
 0001:0007674c       __unwindfunclet$?Build_AssMalfInfo@cgiimage@@YA_NAAPADAAPBDPAXH@Z$1 1007774c f    CIL library: CIL module
 0001:0007674c       __unwindfunclet$?Build_SetRecordPlayRate@cgivideo@@YA_NAAPADAAPBDKK@Z$1 1007774c f    CIL library: CIL module
 0001:0007674c       __unwindfunclet$?Build_SendXml_SetPreUploadCfg@cgisystem@@YA_NPADPBDPAXH@Z$1 1007774c f    CIL library: CIL module
 0001:0007674c       __unwindfunclet$?Build_SetFillLight@cgiimage@@YA_NAAPADAAPBDPAXH@Z$1 1007774c f    CIL library: CIL module
 0001:0007674c       __unwindfunclet$?Build_SetVideoVolume_Rtcp@cgivideo@@YA_NAAPADAAPBDPAXH@Z$1 1007774c f    CIL library: CIL module
 0001:0007674c       __unwindfunclet$?Build_SetQos@cginet@@YA_NAAPADAAPBDPAXH@Z$1 1007774c f    CIL library: CIL module
 0001:0007674c       __unwindfunclet$?Build_SetNetPort@cginet@@YA_NAAPADAAPBDPAXH@Z$1 1007774c f    CIL library: CIL module
 0001:0007674c       __unwindfunclet$?Build_SendXml_DeviceInfo@cgisystem@@YA_NPADPBDPAXH@Z$1 1007774c f    CIL library: CIL module
 0001:00076757       __unwindfunclet$?Build_SetQos@cginet@@YA_NAAPADAAPBDPAXH@Z$2 10077757 f    CIL library: CIL module
 0001:00076757       __unwindfunclet$?Build_SetVideoVolume_Rtcp@cgivideo@@YA_NAAPADAAPBDPAXH@Z$2 10077757 f    CIL library: CIL module
 0001:00076757       __unwindfunclet$?Build_SendXml_SetSSH@cgisystem@@YA_NPADPBD_N@Z$2 10077757 f    CIL library: CIL module
 0001:00076757       __unwindfunclet$?Build_SendXml_SetPreUploadCfg@cgisystem@@YA_NPADPBDPAXH@Z$2 10077757 f    CIL library: CIL module
 0001:00076757       __unwindfunclet$?Build_SetFillLight@cgiimage@@YA_NAAPADAAPBDPAXH@Z$2 10077757 f    CIL library: CIL module
 0001:00076757       __unwindfunclet$?Build_SetWlan@cginet@@YA_NAAPADAAPBDPAXH@Z$2 10077757 f    CIL library: CIL module
 0001:00076757       __unwindfunclet$?Build_SetRecordPlayRate@cgivideo@@YA_NAAPADAAPBDKK@Z$2 10077757 f    CIL library: CIL module
 0001:00076757       __unwindfunclet$?Build_AssMalfInfo@cgiimage@@YA_NAAPADAAPBDPAXH@Z$2 10077757 f    CIL library: CIL module
 0001:00076757       __unwindfunclet$?Build_SetAuthMode@cginet@@YA_NAAPADAAPBDPAXH@Z$2 10077757 f    CIL library: CIL module
 0001:00076757       __unwindfunclet$?Build_MoveRecordPlay@cgivideo@@YA_NAAPADAAPBDKPAXH@Z$2 10077757 f    CIL library: CIL module
 0001:00076757       __unwindfunclet$?Build_SetNetPort@cginet@@YA_NAAPADAAPBDPAXH@Z$2 10077757 f    CIL library: CIL module
 0001:00076757       __unwindfunclet$?Build_SetOnvif@cginet@@YA_NAAPADAAPBDPAXH@Z$2 10077757 f    CIL library: CIL module
 0001:00076757       __unwindfunclet$?Build_StopRecordPlay@cgivideo@@YA_NAAPADAAPBDK@Z$2 10077757 f    CIL library: CIL module
 0001:00076757       __unwindfunclet$?Build_ResumeRecordPlay@cgivideo@@YA_NAAPADAAPBDK@Z$2 10077757 f    CIL library: CIL module
 0001:00076757       __unwindfunclet$?Build_PauseRecordPlay@cgivideo@@YA_NAAPADAAPBDK@Z$2 10077757 f    CIL library: CIL module
 0001:00076757       __unwindfunclet$?Build_SendXml_DeviceInfo@cgisystem@@YA_NPADPBDPAXH@Z$2 10077757 f    CIL library: CIL module
 0001:00076763       __ehhandler$?Build_SetNetPort@cginet@@YA_NAAPADAAPBDPAXH@Z 10077763 f    CIL library: CIL module
 0001:00076763       __ehhandler$?Build_StopRecordPlay@cgivideo@@YA_NAAPADAAPBDK@Z 10077763 f    CIL library: CIL module
 0001:00076763       __ehhandler$?Build_PauseRecordPlay@cgivideo@@YA_NAAPADAAPBDK@Z 10077763 f    CIL library: CIL module
 0001:00076763       __ehhandler$?Build_MoveRecordPlay@cgivideo@@YA_NAAPADAAPBDKPAXH@Z 10077763 f    CIL library: CIL module
 0001:00076763       __ehhandler$?Build_AssMalfInfo@cgiimage@@YA_NAAPADAAPBDPAXH@Z 10077763 f    CIL library: CIL module
 0001:00076763       __ehhandler$?Build_SetAuthMode@cginet@@YA_NAAPADAAPBDPAXH@Z 10077763 f    CIL library: CIL module
 0001:00076763       __ehhandler$?Build_SetRecordPlayRate@cgivideo@@YA_NAAPADAAPBDKK@Z 10077763 f    CIL library: CIL module
 0001:00076763       __ehhandler$?Build_SetVideoVolume_Rtcp@cgivideo@@YA_NAAPADAAPBDPAXH@Z 10077763 f    CIL library: CIL module
 0001:00076763       __ehhandler$?Build_SetFillLight@cgiimage@@YA_NAAPADAAPBDPAXH@Z 10077763 f    CIL library: CIL module
 0001:00076763       __ehhandler$?Build_SetWlan@cginet@@YA_NAAPADAAPBDPAXH@Z 10077763 f    CIL library: CIL module
 0001:00076763       __ehhandler$?Build_SetOnvif@cginet@@YA_NAAPADAAPBDPAXH@Z 10077763 f    CIL library: CIL module
 0001:00076763       __ehhandler$?Build_SetQos@cginet@@YA_NAAPADAAPBDPAXH@Z 10077763 f    CIL library: CIL module
 0001:00076763       __ehhandler$?Build_ResumeRecordPlay@cgivideo@@YA_NAAPADAAPBDK@Z 10077763 f    CIL library: CIL module
 0001:00076763       __ehhandler$?Build_SendXml_DeviceInfo@cgisystem@@YA_NPADPBDPAXH@Z 10077763 f    CIL library: CIL module
 0001:00076763       __ehhandler$?Build_SendXml_SetSSH@cgisystem@@YA_NPADPBD_N@Z 10077763 f    CIL library: CIL module
 0001:00076763       __ehhandler$?Build_SendXml_SetPreUploadCfg@cgisystem@@YA_NPADPBDPAXH@Z 10077763 f    CIL library: CIL module
 0001:000767a0       __unwindfunclet$?Build_StartRecordPlay@cgivideo@@YA_NAAPADAAPBD_NPAXH@Z$0 100777a0 f    CIL library: CIL module
 0001:000767ac       __unwindfunclet$?Build_StartRecordPlay@cgivideo@@YA_NAAPADAAPBD_NPAXH@Z$1 100777ac f    CIL library: CIL module
 0001:000767b7       __unwindfunclet$?Build_StartRecordPlay@cgivideo@@YA_NAAPADAAPBD_NPAXH@Z$2 100777b7 f    CIL library: CIL module
 0001:000767c3       __ehhandler$?Build_StartRecordPlay@cgivideo@@YA_NAAPADAAPBD_NPAXH@Z 100777c3 f    CIL library: CIL module
 0001:00076800       __unwindfunclet$?Analvze_AlarmIn@cgievent@@YA_NPADPAXH0AAH@Z$0 10077800 f    CIL library: CIL module
 0001:00076800       __unwindfunclet$?Analvze_GetRecordNext@cgivideo@@YA_NPADPAXHAAHAA_N@Z$0 10077800 f    CIL library: CIL module
 0001:0007680b       __ehhandler$?Analvze_AlarmIn@cgievent@@YA_NPADPAXH0AAH@Z 1007780b f    CIL library: CIL module
 0001:0007680b       __ehhandler$?Analvze_GetRecordNext@cgivideo@@YA_NPADPAXHAAHAA_N@Z 1007780b f    CIL library: CIL module
 0001:00076840       __unwindfunclet$?Analvze_GetPreLoadRecordList@cgivideo@@YA_NPADAAK@Z$0 10077840 f    CIL library: CIL module
 0001:0007684b       __ehhandler$?Analvze_GetPreLoadRecordList@cgivideo@@YA_NPADAAK@Z 1007784b f    CIL library: CIL module
 0001:00076880       __unwindfunclet$?Build_GetPreLoadRecordList@cgivideo@@YA_NAAPADAAPBDPAXH@Z$0 10077880 f    CIL library: CIL module
 0001:0007688c       __unwindfunclet$?Build_GetPreLoadRecordList@cgivideo@@YA_NAAPADAAPBDPAXH@Z$1 1007788c f    CIL library: CIL module
 0001:00076897       __unwindfunclet$?Build_GetPreLoadRecordList@cgivideo@@YA_NAAPADAAPBDPAXH@Z$2 10077897 f    CIL library: CIL module
 0001:000768a3       __ehhandler$?Build_GetPreLoadRecordList@cgivideo@@YA_NAAPADAAPBDPAXH@Z 100778a3 f    CIL library: CIL module
 0001:000768e0       __unwindfunclet$?Build_GetRecMonthInfo@cgivideo@@YA_NAAPADAAPBDH@Z$0 100778e0 f    CIL library: CIL module
 0001:000768ec       __unwindfunclet$?Build_GetRecMonthInfo@cgivideo@@YA_NAAPADAAPBDH@Z$1 100778ec f    CIL library: CIL module
 0001:000768f7       __unwindfunclet$?Build_GetRecMonthInfo@cgivideo@@YA_NAAPADAAPBDH@Z$2 100778f7 f    CIL library: CIL module
 0001:00076902       __unwindfunclet$?Build_GetRecMonthInfo@cgivideo@@YA_NAAPADAAPBDH@Z$3 10077902 f    CIL library: CIL module
 0001:0007690e       __ehhandler$?Build_GetRecMonthInfo@cgivideo@@YA_NAAPADAAPBDH@Z 1007790e f    CIL library: CIL module
 0001:00076940       __unwindfunclet$?Analvze_GetOsdCap@cgivideo@@YA_NPADPAXAAH@Z$0 10077940 f    CIL library: CIL module
 0001:0007694b       __ehhandler$?Analvze_GetOsdCap@cgivideo@@YA_NPADPAXAAH@Z 1007794b f    CIL library: CIL module
 0001:00076980       __unwindfunclet$?Analvze_GetBlc@cgiimage@@YA_NPADPAXAAH02@Z$0 10077980 f    CIL library: CIL module
 0001:00076980       __unwindfunclet$?Analvze_GetVideoRoi@cgivideo@@YA_NPADPAXAAH@Z$0 10077980 f    CIL library: CIL module
 0001:0007698b       __ehhandler$?Analvze_GetBlc@cgiimage@@YA_NPADPAXAAH02@Z 1007798b f    CIL library: CIL module
 0001:0007698b       __ehhandler$?Analvze_GetVideoRoi@cgivideo@@YA_NPADPAXAAH@Z 1007798b f    CIL library: CIL module
 0001:000769c0       __unwindfunclet$?Analvze_GetVideoShield@cgivideo@@YA_NPADPAXAAH02@Z$0 100779c0 f    CIL library: CIL module
 0001:000769cb       __ehhandler$?Analvze_GetVideoShield@cgivideo@@YA_NPADPAXAAH02@Z 100779cb f    CIL library: CIL module
 0001:00076a00       __unwindfunclet$?Build_SetVideoShield@cgivideo@@YA_NAAPADAAPBDPAXH@Z$0 10077a00 f    CIL library: CIL module
 0001:00076a0c       __unwindfunclet$?Build_SetVideoShield@cgivideo@@YA_NAAPADAAPBDPAXH@Z$1 10077a0c f    CIL library: CIL module
 0001:00076a17       __unwindfunclet$?Build_SetVideoShield@cgivideo@@YA_NAAPADAAPBDPAXH@Z$2 10077a17 f    CIL library: CIL module
 0001:00076a22       __unwindfunclet$?Build_SetVideoShield@cgivideo@@YA_NAAPADAAPBDPAXH@Z$3 10077a22 f    CIL library: CIL module
 0001:00076a2e       __ehhandler$?Build_SetVideoShield@cgivideo@@YA_NAAPADAAPBDPAXH@Z 10077a2e f    CIL library: CIL module
 0001:00076a60       __unwindfunclet$?Analvze_GetVideoEnc@cgivideo@@YA_NPADPAXAAH02@Z$0 10077a60 f    CIL library: CIL module
 0001:00076a6b       __ehhandler$?Analvze_GetVideoEnc@cgivideo@@YA_NPADPAXAAH02@Z 10077a6b f    CIL library: CIL module
 0001:00076aa0       __unwindfunclet$?Build_SetVideoRoi@cgivideo@@YA_NAAPADAAPBDPAXH@Z$0 10077aa0 f    CIL library: CIL module
 0001:00076aa0       __unwindfunclet$?Build_SetWhiteBlance@cgiimage@@YA_NAAPADAAPBDPAXH@Z$0 10077aa0 f    CIL library: CIL module
 0001:00076aa0       __unwindfunclet$?Build_SetAudioEec@cgivideo@@YA_NAAPADAAPBDPAXH@Z$0 10077aa0 f    CIL library: CIL module
 0001:00076aa0       __unwindfunclet$?Build_SetOsdUploadFile@cgivideo@@YA_NAAPADAAPBDPAXH@Z$0 10077aa0 f    CIL library: CIL module
 0001:00076aa0       __unwindfunclet$?Build_SetOsdPrepare@cgivideo@@YA_NAAPADAAPBDPAXH@Z$0 10077aa0 f    CIL library: CIL module
 0001:00076aa0       __unwindfunclet$?Build_SetVideoEnc@cgivideo@@YA_NAAPADAAPBDPAXH@Z$0 10077aa0 f    CIL library: CIL module
 0001:00076aac       __unwindfunclet$?Build_SetOsdUploadFile@cgivideo@@YA_NAAPADAAPBDPAXH@Z$1 10077aac f    CIL library: CIL module
 0001:00076aac       __unwindfunclet$?Build_SetAudioEec@cgivideo@@YA_NAAPADAAPBDPAXH@Z$1 10077aac f    CIL library: CIL module
 0001:00076aac       __unwindfunclet$?Build_SetVideoRoi@cgivideo@@YA_NAAPADAAPBDPAXH@Z$1 10077aac f    CIL library: CIL module
 0001:00076aac       __unwindfunclet$?Build_SetVideoEnc@cgivideo@@YA_NAAPADAAPBDPAXH@Z$1 10077aac f    CIL library: CIL module
 0001:00076aac       __unwindfunclet$?Build_SetWhiteBlance@cgiimage@@YA_NAAPADAAPBDPAXH@Z$1 10077aac f    CIL library: CIL module
 0001:00076aac       __unwindfunclet$?Build_SetOsdPrepare@cgivideo@@YA_NAAPADAAPBDPAXH@Z$1 10077aac f    CIL library: CIL module
 0001:00076ab7       __unwindfunclet$?Build_SetWhiteBlance@cgiimage@@YA_NAAPADAAPBDPAXH@Z$2 10077ab7 f    CIL library: CIL module
 0001:00076ab7       __unwindfunclet$?Build_SetVideoEnc@cgivideo@@YA_NAAPADAAPBDPAXH@Z$2 10077ab7 f    CIL library: CIL module
 0001:00076ab7       __unwindfunclet$?Build_SetVideoRoi@cgivideo@@YA_NAAPADAAPBDPAXH@Z$2 10077ab7 f    CIL library: CIL module
 0001:00076ab7       __unwindfunclet$?Build_SetOsdUploadFile@cgivideo@@YA_NAAPADAAPBDPAXH@Z$2 10077ab7 f    CIL library: CIL module
 0001:00076ab7       __unwindfunclet$?Build_SetAudioEec@cgivideo@@YA_NAAPADAAPBDPAXH@Z$2 10077ab7 f    CIL library: CIL module
 0001:00076ab7       __unwindfunclet$?Build_SetOsdPrepare@cgivideo@@YA_NAAPADAAPBDPAXH@Z$2 10077ab7 f    CIL library: CIL module
 0001:00076ac2       __unwindfunclet$?Build_SetAudioEec@cgivideo@@YA_NAAPADAAPBDPAXH@Z$3 10077ac2 f    CIL library: CIL module
 0001:00076ac2       __unwindfunclet$?Build_SetVideoEnc@cgivideo@@YA_NAAPADAAPBDPAXH@Z$3 10077ac2 f    CIL library: CIL module
 0001:00076ac2       __unwindfunclet$?Build_SetOsdUploadFile@cgivideo@@YA_NAAPADAAPBDPAXH@Z$3 10077ac2 f    CIL library: CIL module
 0001:00076ac2       __unwindfunclet$?Build_SetOsdPrepare@cgivideo@@YA_NAAPADAAPBDPAXH@Z$3 10077ac2 f    CIL library: CIL module
 0001:00076ac2       __unwindfunclet$?Build_SetVideoRoi@cgivideo@@YA_NAAPADAAPBDPAXH@Z$3 10077ac2 f    CIL library: CIL module
 0001:00076ac2       __unwindfunclet$?Build_SetWhiteBlance@cgiimage@@YA_NAAPADAAPBDPAXH@Z$3 10077ac2 f    CIL library: CIL module
 0001:00076ace       __ehhandler$?Build_SetOsdUploadFile@cgivideo@@YA_NAAPADAAPBDPAXH@Z 10077ace f    CIL library: CIL module
 0001:00076ace       __ehhandler$?Build_SetVideoRoi@cgivideo@@YA_NAAPADAAPBDPAXH@Z 10077ace f    CIL library: CIL module
 0001:00076ace       __ehhandler$?Build_SetVideoEnc@cgivideo@@YA_NAAPADAAPBDPAXH@Z 10077ace f    CIL library: CIL module
 0001:00076ace       __ehhandler$?Build_SetAudioEec@cgivideo@@YA_NAAPADAAPBDPAXH@Z 10077ace f    CIL library: CIL module
 0001:00076ace       __ehhandler$?Build_SetOsdPrepare@cgivideo@@YA_NAAPADAAPBDPAXH@Z 10077ace f    CIL library: CIL module
 0001:00076ace       __ehhandler$?Build_SetWhiteBlance@cgiimage@@YA_NAAPADAAPBDPAXH@Z 10077ace f    CIL library: CIL module
 0001:00076b00       __unwindfunclet$?Analvze_CGIVer@cginormal@@YA_NPAD0@Z$0 10077b00 f    CIL library: CIL module
 0001:00076b00       __unwindfunclet$?Analvze_PuSnapShop@cgivideo@@YA_NPAD0@Z$0 10077b00 f    CIL library: CIL module
 0001:00076b00       __unwindfunclet$?Analvze_DdnsState@cginet@@YA_NPADPAXH@Z$0 10077b00 f    CIL library: CIL module
 0001:00076b00       __unwindfunclet$?Analvze_GetPreDownload@cgisystem@@YA_NPADPAXH@Z$0 10077b00 f    CIL library: CIL module
 0001:00076b00       __unwindfunclet$?Analvze_GetHlc@cgiimage@@YA_NPADPAXH@Z$0 10077b00 f    CIL library: CIL module
 0001:00076b00       __unwindfunclet$?Analvze_FaceDetect@cgievent@@YA_NPADPAXH@Z$0 10077b00 f    CIL library: CIL module
 0001:00076b00       __unwindfunclet$?Analvze_BatteryStatus@cgisystem@@YA_NPADPAXH@Z$0 10077b00 f    CIL library: CIL module
 0001:00076b00       __unwindfunclet$?Analvze_AuthMode@cginet@@YA_NPADPAXH@Z$0 10077b00 f    CIL library: CIL module
 0001:00076b0b       __ehhandler$?Analvze_PuSnapShop@cgivideo@@YA_NPAD0@Z 10077b0b f    CIL library: CIL module
 0001:00076b0b       __ehhandler$?Analvze_BatteryStatus@cgisystem@@YA_NPADPAXH@Z 10077b0b f    CIL library: CIL module
 0001:00076b0b       __ehhandler$?Analvze_GetHlc@cgiimage@@YA_NPADPAXH@Z 10077b0b f    CIL library: CIL module
 0001:00076b0b       __ehhandler$?Analvze_DdnsState@cginet@@YA_NPADPAXH@Z 10077b0b f    CIL library: CIL module
 0001:00076b0b       __ehhandler$?Analvze_AuthMode@cginet@@YA_NPADPAXH@Z 10077b0b f    CIL library: CIL module
 0001:00076b0b       __ehhandler$?Analvze_GetPreDownload@cgisystem@@YA_NPADPAXH@Z 10077b0b f    CIL library: CIL module
 0001:00076b0b       __ehhandler$?Analvze_FaceDetect@cgievent@@YA_NPADPAXH@Z 10077b0b f    CIL library: CIL module
 0001:00076b0b       __ehhandler$?Analvze_CGIVer@cginormal@@YA_NPAD0@Z 10077b0b f    CIL library: CIL module
 0001:00076b40       __unwindfunclet$?Build_StartCall_Rtcp@cgivideo@@YAKAAPADPADW4emTransType@@AAPBDPAXAAH@Z$0 10077b40 f    CIL library: CIL module
 0001:00076b4b       __unwindfunclet$?Build_StartCall_Rtcp@cgivideo@@YAKAAPADPADW4emTransType@@AAPBDPAXAAH@Z$1 10077b4b f    CIL library: CIL module
 0001:00076b57       __unwindfunclet$?Build_StartCall_Rtcp@cgivideo@@YAKAAPADPADW4emTransType@@AAPBDPAXAAH@Z$2 10077b57 f    CIL library: CIL module
 0001:00076b62       __unwindfunclet$?Build_StartCall_Rtcp@cgivideo@@YAKAAPADPADW4emTransType@@AAPBDPAXAAH@Z$3 10077b62 f    CIL library: CIL module
 0001:00076b6e       __ehhandler$?Build_StartCall_Rtcp@cgivideo@@YAKAAPADPADW4emTransType@@AAPBDPAXAAH@Z 10077b6e f    CIL library: CIL module
 0001:00076ba0       __unwindfunclet$?Analvze_GetRtspURL@cgivideo@@YA_NPAD_NPAXAAH@Z$0 10077ba0 f    CIL library: CIL module
 0001:00076bab       __ehhandler$?Analvze_GetRtspURL@cgivideo@@YA_NPAD_NPAXAAH@Z 10077bab f    CIL library: CIL module
 0001:00076be0       __unwindfunclet$?Build_StartVideo_Rtcp@cgivideo@@YA_NPADAAPADAAPBDPAXHAAH@Z$0 10077be0 f    CIL library: CIL module
 0001:00076beb       __unwindfunclet$?Build_StartVideo_Rtcp@cgivideo@@YA_NPADAAPADAAPBDPAXHAAH@Z$1 10077beb f    CIL library: CIL module
 0001:00076bf7       __unwindfunclet$?Build_StartVideo_Rtcp@cgivideo@@YA_NPADAAPADAAPBDPAXHAAH@Z$2 10077bf7 f    CIL library: CIL module
 0001:00076c02       __unwindfunclet$?Build_StartVideo_Rtcp@cgivideo@@YA_NPADAAPADAAPBDPAXHAAH@Z$3 10077c02 f    CIL library: CIL module
 0001:00076c0e       __ehhandler$?Build_StartVideo_Rtcp@cgivideo@@YA_NPADAAPADAAPBDPAXHAAH@Z 10077c0e f    CIL library: CIL module
 0001:00076c40       __unwindfunclet$?Analvze_EventTime@cginormal@@YA_NPAD0PAXHH0AAH@Z$0 10077c40 f    CIL library: CIL module
 0001:00076c4b       __ehhandler$?Analvze_EventTime@cginormal@@YA_NPAD0PAXHH0AAH@Z 10077c4b f    CIL library: CIL module
 0001:00076c80       __unwindfunclet$?Build_SendXml_EventTime@cginormal@@YA_NPADPBD00@Z$0 10077c80 f    CIL library: CIL module
 0001:00076c8c       __unwindfunclet$?Build_SendXml_EventTime@cginormal@@YA_NPADPBD00@Z$1 10077c8c f    CIL library: CIL module
 0001:00076c97       __unwindfunclet$?Build_SendXml_EventTime@cginormal@@YA_NPADPBD00@Z$2 10077c97 f    CIL library: CIL module
 0001:00076ca2       __unwindfunclet$?Build_SendXml_EventTime@cginormal@@YA_NPADPBD00@Z$3 10077ca2 f    CIL library: CIL module
 0001:00076cae       __ehhandler$?Build_SendXml_EventTime@cginormal@@YA_NPADPBD00@Z 10077cae f    CIL library: CIL module
 0001:00076ce0       __unwindfunclet$?Analvze_Result@cgixml@@YAKPAD@Z$0 10077ce0 f    CIL library: CIL module
 0001:00076ceb       __ehhandler$?Analvze_Result@cgixml@@YAKPAD@Z 10077ceb f    CIL library: CIL module
 0001:00076d20       __unwindfunclet$?UserActive@CPuCtrl_Normal@@QAEHPAXKG0PAK@Z$0 10077d20 f    CIL library: CIL module
 0001:00076d28       __unwindfunclet$?UserActive@CPuCtrl_Normal@@QAEHPAXKG0PAK@Z$1 10077d28 f    CIL library: CIL module
 0001:00076d30       __ehhandler$?UserActive@CPuCtrl_Normal@@QAEHPAXKG0PAK@Z 10077d30 f    CIL library: CIL module
 0001:00076d50       __unwindfunclet$??1CConnectMgr@@QAE@XZ$3 10077d50 f    CIL library: CIL module
 0001:00076d58       __ehhandler$??1CConnectMgr@@QAE@XZ 10077d58 f    CIL library: CIL module
 0001:00076d80       __unwindfunclet$?Build_SetEventTime@cginormal@@YA_NAAPADAAPBDPAD2PAXHH@Z$0 10077d80 f    CIL library: CIL module
 0001:00076d80       __unwindfunclet$?Build_SetTimeTask@cgiptz@@YA_NAAPADAAPBDPAXH2HH@Z$0 10077d80 f    CIL library: CIL module
 0001:00076d8c       __unwindfunclet$?Build_SetTimeTask@cgiptz@@YA_NAAPADAAPBDPAXH2HH@Z$1 10077d8c f    CIL library: CIL module
 0001:00076d8c       __unwindfunclet$?Build_SetEventTime@cginormal@@YA_NAAPADAAPBDPAD2PAXHH@Z$1 10077d8c f    CIL library: CIL module
 0001:00076d97       __unwindfunclet$?Build_SetEventTime@cginormal@@YA_NAAPADAAPBDPAD2PAXHH@Z$2 10077d97 f    CIL library: CIL module
 0001:00076d97       __unwindfunclet$?Build_SetTimeTask@cgiptz@@YA_NAAPADAAPBDPAXH2HH@Z$2 10077d97 f    CIL library: CIL module
 0001:00076da3       __ehhandler$?Build_SetEventTime@cginormal@@YA_NAAPADAAPBDPAD2PAXHH@Z 10077da3 f    CIL library: CIL module
 0001:00076da3       __ehhandler$?Build_SetTimeTask@cgiptz@@YA_NAAPADAAPBDPAXH2HH@Z 10077da3 f    CIL library: CIL module
 0001:00076de0       __unwindfunclet$?Build_AssTeleZoomInfo@cgiimage@@YA_NAAPADAAPBDPAXH@Z$0 10077de0 f    CIL library: CIL module
 0001:00076de0       __unwindfunclet$?Build_SetVirtualFocus@cgievent@@YA_NAAPADAAPBDPAXH@Z$0 10077de0 f    CIL library: CIL module
 0001:00076de0       __unwindfunclet$?Build_SetSightChange@cgievent@@YA_NAAPADAAPBDPAXH@Z$0 10077de0 f    CIL library: CIL module
 0001:00076de0       __unwindfunclet$?Build_SetAudioExcept@cgievent@@YA_NAAPADAAPBDPAXH@Z$0 10077de0 f    CIL library: CIL module
 0001:00076dec       __unwindfunclet$?Build_AssTeleZoomInfo@cgiimage@@YA_NAAPADAAPBDPAXH@Z$1 10077dec f    CIL library: CIL module
 0001:00076dec       __unwindfunclet$?Build_SetVirtualFocus@cgievent@@YA_NAAPADAAPBDPAXH@Z$1 10077dec f    CIL library: CIL module
 0001:00076dec       __unwindfunclet$?Build_SetAudioExcept@cgievent@@YA_NAAPADAAPBDPAXH@Z$1 10077dec f    CIL library: CIL module
 0001:00076dec       __unwindfunclet$?Build_SetSightChange@cgievent@@YA_NAAPADAAPBDPAXH@Z$1 10077dec f    CIL library: CIL module
 0001:00076df7       __unwindfunclet$?Build_SetSightChange@cgievent@@YA_NAAPADAAPBDPAXH@Z$2 10077df7 f    CIL library: CIL module
 0001:00076df7       __unwindfunclet$?Build_AssTeleZoomInfo@cgiimage@@YA_NAAPADAAPBDPAXH@Z$2 10077df7 f    CIL library: CIL module
 0001:00076df7       __unwindfunclet$?Build_SetVirtualFocus@cgievent@@YA_NAAPADAAPBDPAXH@Z$2 10077df7 f    CIL library: CIL module
 0001:00076df7       __unwindfunclet$?Build_SetAudioExcept@cgievent@@YA_NAAPADAAPBDPAXH@Z$2 10077df7 f    CIL library: CIL module
 0001:00076e03       __ehhandler$?Build_SetSightChange@cgievent@@YA_NAAPADAAPBDPAXH@Z 10077e03 f    CIL library: CIL module
 0001:00076e03       __ehhandler$?Build_AssTeleZoomInfo@cgiimage@@YA_NAAPADAAPBDPAXH@Z 10077e03 f    CIL library: CIL module
 0001:00076e03       __ehhandler$?Build_SetAudioExcept@cgievent@@YA_NAAPADAAPBDPAXH@Z 10077e03 f    CIL library: CIL module
 0001:00076e03       __ehhandler$?Build_SetVirtualFocus@cgievent@@YA_NAAPADAAPBDPAXH@Z 10077e03 f    CIL library: CIL module
 0001:00076e40       __unwindfunclet$?Build_SetObjectDetect@cgievent@@YA_NAAPADAAPBDPAXHH@Z$0 10077e40 f    CIL library: CIL module
 0001:00076e40       __unwindfunclet$?Build_SetPersonDetect@cgievent@@YA_NAAPADAAPBDPAXHH@Z$0 10077e40 f    CIL library: CIL module
 0001:00076e40       __unwindfunclet$?Build_SetAreaDetect@cgievent@@YA_NAAPADAAPBDPAXHH@Z$0 10077e40 f    CIL library: CIL module
 0001:00076e4c       __unwindfunclet$?Build_SetPersonDetect@cgievent@@YA_NAAPADAAPBDPAXHH@Z$1 10077e4c f    CIL library: CIL module
 0001:00076e4c       __unwindfunclet$?Build_SetAreaDetect@cgievent@@YA_NAAPADAAPBDPAXHH@Z$1 10077e4c f    CIL library: CIL module
 0001:00076e4c       __unwindfunclet$?Build_SetObjectDetect@cgievent@@YA_NAAPADAAPBDPAXHH@Z$1 10077e4c f    CIL library: CIL module
 0001:00076e57       __unwindfunclet$?Build_SetPersonDetect@cgievent@@YA_NAAPADAAPBDPAXHH@Z$2 10077e57 f    CIL library: CIL module
 0001:00076e57       __unwindfunclet$?Build_SetAreaDetect@cgievent@@YA_NAAPADAAPBDPAXHH@Z$2 10077e57 f    CIL library: CIL module
 0001:00076e57       __unwindfunclet$?Build_SetObjectDetect@cgievent@@YA_NAAPADAAPBDPAXHH@Z$2 10077e57 f    CIL library: CIL module
 0001:00076e63       __ehhandler$?Build_SetObjectDetect@cgievent@@YA_NAAPADAAPBDPAXHH@Z 10077e63 f    CIL library: CIL module
 0001:00076e63       __ehhandler$?Build_SetAreaDetect@cgievent@@YA_NAAPADAAPBDPAXHH@Z 10077e63 f    CIL library: CIL module
 0001:00076e63       __ehhandler$?Build_SetPersonDetect@cgievent@@YA_NAAPADAAPBDPAXHH@Z 10077e63 f    CIL library: CIL module
 0001:00076ea0       __unwindfunclet$?Build_SetStorageManager@cgistorage@@YA_NAAPADAAPBDPAXH@Z$0 10077ea0 f    CIL library: CIL module
 0001:00076ea0       __unwindfunclet$?Build_SetPtzLimit@cgiptz@@YA_NAAPADAAPBDPAXH@Z$0 10077ea0 f    CIL library: CIL module
 0001:00076ea0       __unwindfunclet$?Build_SetWarningLine@cgievent@@YA_NAAPADAAPBDPAXH@Z$0 10077ea0 f    CIL library: CIL module
 0001:00076ea0       __unwindfunclet$?Build_SetExcept@cgievent@@YA_NAAPADAAPBDPAXH@Z$0 10077ea0 f    CIL library: CIL module
 0001:00076ea0       __unwindfunclet$?Build_SetAlarmIn@cgievent@@YA_NAAPADAAPBDPAXH@Z$0 10077ea0 f    CIL library: CIL module
 0001:00076eac       __unwindfunclet$?Build_SetAlarmIn@cgievent@@YA_NAAPADAAPBDPAXH@Z$1 10077eac f    CIL library: CIL module
 0001:00076eac       __unwindfunclet$?Build_SetPtzLimit@cgiptz@@YA_NAAPADAAPBDPAXH@Z$1 10077eac f    CIL library: CIL module
 0001:00076eac       __unwindfunclet$?Build_SetExcept@cgievent@@YA_NAAPADAAPBDPAXH@Z$1 10077eac f    CIL library: CIL module
 0001:00076eac       __unwindfunclet$?Build_SetWarningLine@cgievent@@YA_NAAPADAAPBDPAXH@Z$1 10077eac f    CIL library: CIL module
 0001:00076eac       __unwindfunclet$?Build_SetStorageManager@cgistorage@@YA_NAAPADAAPBDPAXH@Z$1 10077eac f    CIL library: CIL module
 0001:00076eb7       __unwindfunclet$?Build_SetWarningLine@cgievent@@YA_NAAPADAAPBDPAXH@Z$2 10077eb7 f    CIL library: CIL module
 0001:00076eb7       __unwindfunclet$?Build_SetExcept@cgievent@@YA_NAAPADAAPBDPAXH@Z$2 10077eb7 f    CIL library: CIL module
 0001:00076eb7       __unwindfunclet$?Build_SetStorageManager@cgistorage@@YA_NAAPADAAPBDPAXH@Z$2 10077eb7 f    CIL library: CIL module
 0001:00076eb7       __unwindfunclet$?Build_SetPtzLimit@cgiptz@@YA_NAAPADAAPBDPAXH@Z$2 10077eb7 f    CIL library: CIL module
 0001:00076eb7       __unwindfunclet$?Build_SetAlarmIn@cgievent@@YA_NAAPADAAPBDPAXH@Z$2 10077eb7 f    CIL library: CIL module
 0001:00076ec3       __ehhandler$?Build_SetWarningLine@cgievent@@YA_NAAPADAAPBDPAXH@Z 10077ec3 f    CIL library: CIL module
 0001:00076ec3       __ehhandler$?Build_SetStorageManager@cgistorage@@YA_NAAPADAAPBDPAXH@Z 10077ec3 f    CIL library: CIL module
 0001:00076ec3       __ehhandler$?Build_SetExcept@cgievent@@YA_NAAPADAAPBDPAXH@Z 10077ec3 f    CIL library: CIL module
 0001:00076ec3       __ehhandler$?Build_SetAlarmIn@cgievent@@YA_NAAPADAAPBDPAXH@Z 10077ec3 f    CIL library: CIL module
 0001:00076ec3       __ehhandler$?Build_SetPtzLimit@cgiptz@@YA_NAAPADAAPBDPAXH@Z 10077ec3 f    CIL library: CIL module
 0001:00076f00       __unwindfunclet$?Build_SetDetect@cgievent@@YA_NAAPADAAPBDPAXH2H@Z$0 10077f00 f    CIL library: CIL module
 0001:00076f00       __unwindfunclet$?Build_SetShieldAlarm@cgievent@@YA_NAAPADAAPBDPAXH2H@Z$0 10077f00 f    CIL library: CIL module
 0001:00076f0c       __unwindfunclet$?Build_SetShieldAlarm@cgievent@@YA_NAAPADAAPBDPAXH2H@Z$1 10077f0c f    CIL library: CIL module
 0001:00076f0c       __unwindfunclet$?Build_SetDetect@cgievent@@YA_NAAPADAAPBDPAXH2H@Z$1 10077f0c f    CIL library: CIL module
 0001:00076f17       __unwindfunclet$?Build_SetShieldAlarm@cgievent@@YA_NAAPADAAPBDPAXH2H@Z$2 10077f17 f    CIL library: CIL module
 0001:00076f17       __unwindfunclet$?Build_SetDetect@cgievent@@YA_NAAPADAAPBDPAXH2H@Z$2 10077f17 f    CIL library: CIL module
 0001:00076f23       __ehhandler$?Build_SetDetect@cgievent@@YA_NAAPADAAPBDPAXH2H@Z 10077f23 f    CIL library: CIL module
 0001:00076f23       __ehhandler$?Build_SetShieldAlarm@cgievent@@YA_NAAPADAAPBDPAXH2H@Z 10077f23 f    CIL library: CIL module
 0001:00076f60       __unwindfunclet$?Build_SetGB28181@cginet@@YA_NAAPADAAPBDPADPAXH3H3H@Z$0 10077f60 f    CIL library: CIL module
 0001:00076f6c       __unwindfunclet$?Build_SetGB28181@cginet@@YA_NAAPADAAPBDPADPAXH3H3H@Z$1 10077f6c f    CIL library: CIL module
 0001:00076f77       __unwindfunclet$?Build_SetGB28181@cginet@@YA_NAAPADAAPBDPADPAXH3H3H@Z$2 10077f77 f    CIL library: CIL module
 0001:00076f83       __ehhandler$?Build_SetGB28181@cginet@@YA_NAAPADAAPBDPADPAXH3H3H@Z 10077f83 f    CIL library: CIL module
 0001:00076fc0       __unwindfunclet$?Build_SetUpnp@cginet@@YA_NAAPADAAPBDPAXH2HAAH@Z$0 10077fc0 f    CIL library: CIL module
 0001:00076fcc       __unwindfunclet$?Build_SetUpnp@cginet@@YA_NAAPADAAPBDPAXH2HAAH@Z$1 10077fcc f    CIL library: CIL module
 0001:00076fd7       __unwindfunclet$?Build_SetUpnp@cginet@@YA_NAAPADAAPBDPAXH2HAAH@Z$2 10077fd7 f    CIL library: CIL module
 0001:00076fe3       __ehhandler$?Build_SetUpnp@cginet@@YA_NAAPADAAPBDPAXH2HAAH@Z 10077fe3 f    CIL library: CIL module
 0001:00077020       __unwindfunclet$?Build_SendXml_SetSysTimeSynChronise@cgisystem@@YA_NPADPBDPAXH@Z$0 10078020 f    CIL library: CIL module
 0001:00077020       __unwindfunclet$?Build_SendXml_SystemTime@cgisystem@@YA_NPADPBDPAXH@Z$0 10078020 f    CIL library: CIL module
 0001:0007702c       __unwindfunclet$?Build_SendXml_SystemTime@cgisystem@@YA_NPADPBDPAXH@Z$1 1007802c f    CIL library: CIL module
 0001:0007702c       __unwindfunclet$?Build_SendXml_SetSysTimeSynChronise@cgisystem@@YA_NPADPBDPAXH@Z$1 1007802c f    CIL library: CIL module
 0001:00077037       __unwindfunclet$?Build_SendXml_SetSysTimeSynChronise@cgisystem@@YA_NPADPBDPAXH@Z$2 10078037 f    CIL library: CIL module
 0001:00077037       __unwindfunclet$?Build_SendXml_SystemTime@cgisystem@@YA_NPADPBDPAXH@Z$2 10078037 f    CIL library: CIL module
 0001:00077043       __ehhandler$?Build_SendXml_SystemTime@cgisystem@@YA_NPADPBDPAXH@Z 10078043 f    CIL library: CIL module
